

Microchip MPLAB XC8 Assembler V2.31 build 20201012212115 
                                                                                               Thu May  6 21:31:24 2021

Microchip MPLAB XC8 C Compiler v2.31 (Free license) build 20201012212115 Og9 
     1                           	processor	18F46K22
     2                           	fnconf	rparam,??,?,0
     3                           	pagewidth 120
     4                           	opt	flic
     5                           	psect	smallconst,global,reloc=2,class=SMALLCONST,delta=1,noexec
     6                           	psect	cinit,global,reloc=2,class=CODE,delta=1
     7                           	psect	bssCOMRAM,global,class=COMRAM,space=1,delta=1,lowdata,noexec
     8                           	psect	bssBANK0,global,class=BANK0,space=1,delta=1,lowdata,noexec
     9                           	psect	cstackBANK0,global,class=BANK0,space=1,delta=1,lowdata,noexec
    10                           	psect	cstackCOMRAM,global,class=COMRAM,space=1,delta=1,lowdata,noexec
    11                           	psect	text0,global,reloc=2,class=CODE,delta=1
    12                           	psect	text1,global,reloc=2,class=CODE,delta=1
    13                           	psect	text2,global,reloc=2,class=CODE,delta=1
    14                           	psect	text3,global,reloc=2,class=CODE,delta=1
    15                           	psect	text4,global,reloc=2,class=CODE,delta=1
    16                           	psect	text5,global,reloc=2,class=CODE,delta=1
    17                           	psect	text6,global,reloc=2,class=CODE,delta=1
    18                           	psect	text7,global,reloc=2,class=CODE,delta=1
    19                           	psect	text8,global,reloc=2,class=CODE,delta=1
    20                           	psect	text9,global,reloc=2,class=CODE,delta=1
    21                           	psect	text10,global,reloc=2,class=CODE,delta=1
    22                           	psect	text11,global,reloc=2,class=CODE,delta=1
    23                           	psect	text12,global,reloc=2,class=CODE,delta=1
    24                           	psect	text13,global,reloc=2,class=CODE,delta=1
    25                           	psect	text14,global,reloc=2,class=CODE,delta=1
    26                           	psect	text15,global,reloc=2,class=CODE,delta=1,group=1
    27                           	psect	text16,global,reloc=2,class=CODE,delta=1
    28                           	psect	text17,global,reloc=2,class=CODE,delta=1
    29                           	psect	intcode,global,reloc=2,class=CODE,delta=1
    30                           	psect	text19,global,reloc=2,class=CODE,delta=1
    31                           	psect	text20,global,reloc=2,class=CODE,delta=1
    32                           	psect	text21,global,reloc=2,class=CODE,delta=1
    33                           	psect	intsave_regs,global,class=BIGRAM,space=1,delta=1,noexec
    34                           	psect	text22,global,reloc=2,class=CODE,delta=1
    35                           	psect	rparam,global,class=COMRAM,space=1,delta=1,noexec
    36                           	psect	temp,global,ovrld,common,class=COMRAM,space=1,delta=1
    37                           	psect	idloc,global,abs,ovrld,class=IDLOC,space=5,delta=1,noexec
    38                           	psect	config,global,abs,ovrld,class=CONFIG,space=4,delta=1,noexec
    39  0000                     
    40                           ; Version 2.20
    41                           ; Generated 05/05/2020 GMT
    42                           ; 
    43                           ; Copyright © 2020, Microchip Technology Inc. and its subsidiaries ("Microchip")
    44                           ; All rights reserved.
    45                           ; 
    46                           ; This software is developed by Microchip Technology Inc. and its subsidiaries ("Microch
      +                          ip").
    47                           ; 
    48                           ; Redistribution and use in source and binary forms, with or without modification, are
    49                           ; permitted provided that the following conditions are met:
    50                           ; 
    51                           ;     1. Redistributions of source code must retain the above copyright notice, this lis
      +                          t of
    52                           ;        conditions and the following disclaimer.
    53                           ; 
    54                           ;     2. Redistributions in binary form must reproduce the above copyright notice, this 
      +                          list
    55                           ;        of conditions and the following disclaimer in the documentation and/or other
    56                           ;        materials provided with the distribution.
    57                           ; 
    58                           ;     3. Microchip's name may not be used to endorse or promote products derived from th
      +                          is
    59                           ;        software without specific prior written permission.
    60                           ; 
    61                           ; THIS SOFTWARE IS PROVIDED BY MICROCHIP "AS IS" AND ANY EXPRESS OR IMPLIED WARRANTIES,
    62                           ; INCLUDING, BUT NOT LIMITED TO, THE IMPLIED WARRANTIES OF MERCHANTABILITY AND FITNESS F
      +                          OR
    63                           ; PURPOSE ARE DISCLAIMED.  IN NO EVENT SHALL MICROCHIP BE LIABLE FOR ANY DIRECT, INDIREC
      +                          T,
    64                           ; INCIDENTAL, SPECIAL, EXEMPLARY, OR CONSEQUENTIAL DAMAGES (INCLUDING BUT NOT LIMITED TO
    65                           ; PROCUREMENT OF SUBSTITUTE GOODS OR SERVICES; LOSS OF USE, DATA OR PROFITS; OR BUSINESS
    66                           ; INTERRUPTION) HOWSOEVER CAUSED AND ON ANY THEORY OF LIABILITY, WHETHER IN CONTRACT, ST
      +                          RICT
    67                           ; LIABILITY, OR TORT (INCLUDING NEGLIGENCE OR OTHERWISE) ARISING IN ANY WAY OUT OF THE U
      +                          SE OF
    68                           ; THIS SOFTWARE, EVEN IF ADVISED OF THE POSSIBILITY OF SUCH DAMAGE.
    69                           ; 
    70                           ; 
    71                           ; Code-generator required, PIC18F46K22 Definitions
    72                           ; 
    73                           ; SFR Addresses
    74  0000                     
    75                           	psect	smallconst
    76  001000                     __psmallconst:
    77                           	callstack 0
    78  001000  00                 	db	0
    79  001001                     gostergeGuncelle@BCDdenOrtakAnoda:
    80                           	callstack 0
    81  001001  C0                 	db	192
    82  001002  F9                 	db	249
    83  001003  A4                 	db	164
    84  001004  B0                 	db	176
    85  001005  99                 	db	153
    86  001006  92                 	db	146
    87  001007  82                 	db	130
    88  001008  F8                 	db	248
    89  001009  80                 	db	128
    90  00100A  90                 	db	144
    91  00100B  88                 	db	136
    92  00100C  83                 	db	131
    93  00100D  C6                 	db	198
    94  00100E  A1                 	db	161
    95  00100F  86                 	db	134
    96  001010  8E                 	db	142
    97  001011  BF                 	db	191
    98  001012                     __end_ofgostergeGuncelle@BCDdenOrtakAnoda:
    99                           	callstack 0
   100  001012  0E                 	db	14
   101  001013                     __end_ofledCakarlama1@sonSira:
   102                           	callstack 0
   103  001013                     ledCakarlama1@sureler:
   104                           	callstack 0
   105  001013  0032               	dw	50
   106  001015  003C               	dw	60
   107  001017  0046               	dw	70
   108  001019  0050               	dw	80
   109  00101B  005A               	dw	90
   110  00101D  0064               	dw	100
   111  00101F  00C8               	dw	200
   112  001021  012C               	dw	300
   113  001023  0190               	dw	400
   114  001025  01F4               	dw	500
   115  001027  0258               	dw	600
   116  001029  02BC               	dw	700
   117  00102B  0320               	dw	800
   118  00102D  0384               	dw	900
   119  00102F  03E8               	dw	1000
   120  001031                     __end_ofledCakarlama1@sureler:
   121                           	callstack 0
   122  0000                     _ANSELB	set	3897
   123  0000                     _ANSELC	set	3898
   124  0000                     _ANSELD	set	3899
   125  0000                     _ANSELEbits	set	3900
   126  0000                     _TMR0	set	4054
   127  0000                     _LATBbits	set	3978
   128  0000                     _TRISB	set	3987
   129  0000                     _LATB	set	3978
   130  0000                     _TRISC	set	3988
   131  0000                     _LATC	set	3979
   132  0000                     _ADRESL	set	4035
   133  0000                     _ADRESH	set	4036
   134  0000                     _ADCON0bits	set	4034
   135  0000                     _TRISAbits	set	3986
   136  0000                     _ADCON1	set	4033
   137  0000                     _ADCON2	set	4032
   138  0000                     _PORTD	set	3971
   139  0000                     _TRISD	set	3989
   140  0000                     _LATD	set	3980
   141  0000                     _PORTEbits	set	3972
   142  0000                     _TRISEbits	set	3990
   143  0000                     _LATEbits	set	3981
   144  0000                     _INTCON	set	4082
   145  0000                     _OSCTUNE	set	3995
   146  0000                     _OSCCON2	set	4050
   147  0000                     _OSCCON	set	4051
   148  0000                     _T0CONbits	set	4053
   149  0000                     _T0CON	set	4053
   150  0000                     _PIR1bits	set	3998
   151  0000                     _PIE1bits	set	3997
   152  0000                     _INTCONbits	set	4082
   153  0000                     _RCONbits	set	4048
   154  0000                     _TXIF	set	31988
   155  0000                     _TXIE	set	31980
   156  0000                     _RCIF	set	31989
   157  0000                     _TMR0IF	set	32658
   158  001031  00                 	db	0	; dummy byte at the end
   159  0000                     
   160                           ; #config settings
   161                           
   162                           	psect	cinit
   163  001B6E                     __pcinit:
   164                           	callstack 0
   165  001B6E                     start_initialization:
   166                           	callstack 0
   167  001B6E                     __initialization:
   168                           	callstack 0
   169                           
   170                           ; Clear objects allocated to BANK0 (48 bytes)
   171  001B6E  EE00  F060         	lfsr	0,__pbssBANK0
   172  001B72  0E30               	movlw	48
   173  001B74                     clear_0:
   174  001B74  6AEE               	clrf	postinc0,c
   175  001B76  06E8               	decf	wreg,f,c
   176  001B78  E1FD               	bnz	clear_0
   177                           
   178                           ; Clear objects allocated to COMRAM (58 bytes)
   179  001B7A  EE00  F001         	lfsr	0,__pbssCOMRAM
   180  001B7E  0E3A               	movlw	58
   181  001B80                     clear_1:
   182  001B80  6AEE               	clrf	postinc0,c
   183  001B82  06E8               	decf	wreg,f,c
   184  001B84  E1FD               	bnz	clear_1
   185  001B86                     end_of_initialization:
   186                           	callstack 0
   187  001B86                     __end_of__initialization:
   188                           	callstack 0
   189  001B86  9051               	bcf	int$flags,0,c	;clear compiler interrupt flag (level 1)
   190  001B88  9251               	bcf	int$flags,1,c	;clear compiler interrupt flag (level 2)
   191  001B8A  0100               	movlb	0
   192  001B8C  EF05  F00D         	goto	_main	;jump to C main() function
   193                           
   194                           	psect	bssCOMRAM
   195  000001                     __pbssCOMRAM:
   196                           	callstack 0
   197  000001                     gostergeGuncelle@s5:
   198                           	callstack 0
   199  000001                     	ds	4
   200  000005                     karaSimsekHiziOkuma@s4:
   201                           	callstack 0
   202  000005                     	ds	4
   203  000009                     karaSimsek@s3:
   204                           	callstack 0
   205  000009                     	ds	4
   206  00000D                     ledCakarlama2@s2:
   207                           	callstack 0
   208  00000D                     	ds	4
   209  000011                     ledCakarlama1@s1:
   210                           	callstack 0
   211  000011                     	ds	4
   212  000015                     _gosterge:
   213                           	callstack 0
   214  000015                     	ds	4
   215  000019                     karaSimsekHiziOkuma@oncekiSonuc:
   216                           	callstack 0
   217  000019                     	ds	2
   218  00001B                     _karaSimsekHizi:
   219                           	callstack 0
   220  00001B                     	ds	2
   221  00001D                     _gercekDeger:
   222                           	callstack 0
   223  00001D                     	ds	2
   224  00001F                     _tikSayimi:
   225                           	callstack 0
   226  00001F                     	ds	2
   227  000021                     _sisTimerDisIsleyici:
   228                           	callstack 0
   229  000021                     	ds	2
   230  000023                     _uartRxKesmeIsleyici:
   231                           	callstack 0
   232  000023                     	ds	2
   233  000025                     _uartTxKesmeIsleyici:
   234                           	callstack 0
   235  000025                     	ds	2
   236  000027                     _timer0KesmeIsleyici:
   237                           	callstack 0
   238  000027                     	ds	2
   239  000029                     karaSimsek@sola:
   240                           	callstack 0
   241  000029                     	ds	1
   242  00002A                     ledCakarlama1@artir:
   243                           	callstack 0
   244  00002A                     	ds	1
   245  00002B                     ledCakarlama1@secici:
   246                           	callstack 0
   247  00002B                     	ds	1
   248  00002C                     _gostergeDegeriHesaplandi:
   249                           	callstack 0
   250  00002C                     	ds	1
   251  00002D                     _karasimsekHiziOkundu:
   252                           	callstack 0
   253  00002D                     	ds	1
   254  00002E                     	ds	1
   255  00002F                     _gorevSayimi:
   256                           	callstack 0
   257  00002F                     	ds	1
   258  000030                     _intconYedek@portmacro$F427:
   259                           	callstack 0
   260  000030                     	ds	1
   261  000031                     	ds	1
   262  000032                     	ds	1
   263  000033                     _cikanListesi:
   264                           	callstack 0
   265  000033                     	ds	6
   266  000039                     _cikanSayimi:
   267                           	callstack 0
   268  000039                     	ds	1
   269  00003A                     _calisanSayimi:
   270                           	callstack 0
   271  00003A                     	ds	1
   272                           
   273                           	psect	bssBANK0
   274  000060                     __pbssBANK0:
   275                           	callstack 0
   276  000060                     _gorevHeap:
   277                           	callstack 0
   278  000060                     	ds	32
   279  000080                     _calisanListesi:
   280                           	callstack 0
   281  000080                     	ds	16
   282                           
   283                           	psect	cstackBANK0
   284  000090                     __pcstackBANK0:
   285                           	callstack 0
   286  000090                     ??_listedenSil:
   287  000090                     gorevOlustur@gkb:
   288                           	callstack 0
   289  000090                     ledCakarlama1@tutucu:
   290                           	callstack 0
   291  000090                     ledCakarlama2@tutucu:
   292                           	callstack 0
   293  000090                     karaSimsek@tutucu:
   294                           	callstack 0
   295  000090                     karaSimsekHiziOkuma@tutucu:
   296                           	callstack 0
   297  000090                     gostergeDegeriGuncelle@tutucu:
   298                           	callstack 0
   299  000090                     gostergeGuncelle@tutucu:
   300                           	callstack 0
   301                           
   302                           ; 2 bytes @ 0x0
   303  000090                     	ds	2
   304  000092                     ??_ledCakarlama1:
   305  000092                     ??_ledCakarlama2:
   306  000092                     ??_karaSimsek:
   307  000092                     ??_karaSimsekHiziOkuma:
   308  000092                     ??_gostergeDegeriGuncelle:
   309  000092                     ??_gostergeGuncelle:
   310                           
   311                           ; 1 bytes @ 0x2
   312  000092                     	ds	3
   313  000095                     karaSimsekHiziOkuma@sonuc:
   314                           	callstack 0
   315  000095                     gostergeDegeriGuncelle@olcekliDeger:
   316                           	callstack 0
   317                           
   318                           ; 2 bytes @ 0x5
   319  000095                     	ds	2
   320  000097                     ??_gorevciyiBaslat:
   321                           
   322                           ; 1 bytes @ 0x7
   323  000097                     	ds	2
   324  000099                     gorevciyiBaslat@glo:
   325                           	callstack 0
   326                           
   327                           ; 2 bytes @ 0x9
   328  000099                     	ds	2
   329  00009B                     gorevciyiBaslat@donus:
   330                           	callstack 0
   331                           
   332                           ; 1 bytes @ 0xB
   333  00009B                     	ds	1
   334  00009C                     gorevciyiBaslat@s:
   335                           	callstack 0
   336                           
   337                           ; 1 bytes @ 0xC
   338  00009C                     	ds	1
   339                           
   340                           	psect	cstackCOMRAM
   341  00003B                     __pcstackCOMRAM:
   342                           	callstack 0
   343  00003B                     ??_interruptYonetici:
   344  00003B                     
   345                           ; 1 bytes @ 0x0
   346  00003B                     	ds	14
   347  000049                     ?_tikSayiminiAl:
   348                           	callstack 0
   349  000049                     ?___lwdiv:
   350                           	callstack 0
   351  000049                     listeyeEkle@liste:
   352                           	callstack 0
   353  000049                     listedenSil@liste:
   354                           	callstack 0
   355  000049                     timer0KesmeIsleyiciKur@isleyici:
   356                           	callstack 0
   357  000049                     ___lwdiv@dividend:
   358                           	callstack 0
   359                           
   360                           ; 2 bytes @ 0xE
   361  000049                     	ds	1
   362  00004A                     listeyeEkle@sayim:
   363                           	callstack 0
   364  00004A                     listedenSil@sayim:
   365                           	callstack 0
   366                           
   367                           ; 1 bytes @ 0xF
   368  00004A                     	ds	1
   369  00004B                     listeyeEkle@max:
   370                           	callstack 0
   371  00004B                     listedenSil@konum:
   372                           	callstack 0
   373  00004B                     sisTimerIlkle@isleyici:
   374                           	callstack 0
   375  00004B                     tikSayiminiAl@sayim:
   376                           	callstack 0
   377  00004B                     ___lwdiv@divisor:
   378                           	callstack 0
   379                           
   380                           ; 2 bytes @ 0x10
   381  00004B                     	ds	1
   382  00004C                     listedenSil@cSayim:
   383                           	callstack 0
   384  00004C                     listeyeEkle@glo:
   385                           	callstack 0
   386                           
   387                           ; 2 bytes @ 0x11
   388  00004C                     	ds	1
   389  00004D                     listedenSil@k:
   390                           	callstack 0
   391  00004D                     ___lwdiv@counter:
   392                           	callstack 0
   393                           
   394                           ; 1 bytes @ 0x12
   395  00004D                     	ds	1
   396  00004E                     listeyeEkle@cSayim:
   397                           	callstack 0
   398  00004E                     ___lwdiv@quotient:
   399                           	callstack 0
   400                           
   401                           ; 2 bytes @ 0x13
   402  00004E                     	ds	1
   403  00004F                     gorevOlustur@is:
   404                           	callstack 0
   405                           
   406                           ; 2 bytes @ 0x14
   407  00004F                     	ds	2
   408  000051                     
   409                           ; 1 bytes @ 0x16
   410 ;;
   411 ;;Main: autosize = 0, tempsize = 0, incstack = 0, save=0
   412 ;;
   413 ;; *************** function _main *****************
   414 ;; Defined at:
   415 ;;		line 352 in file "ornek3.c"
   416 ;; Parameters:    Size  Location     Type
   417 ;;		None
   418 ;; Auto vars:     Size  Location     Type
   419 ;;		None
   420 ;; Return value:  Size  Location     Type
   421 ;;                  1    wreg      void 
   422 ;; Registers used:
   423 ;;		wreg, fsr1l, fsr1h, fsr2l, fsr2h, status,2, status,0, pclath, tosl, tblptrl, tblptrh, tblptru, prodl, prodh, cstack
   424 ;; Tracked objects:
   425 ;;		On entry : 0/0
   426 ;;		On exit  : 3F/0
   427 ;;		Unchanged: 0/0
   428 ;; Data sizes:     COMRAM   BANK0   BANK1   BANK2   BANK3   BANK4   BANK5   BANK6   BANK7   BANK8   BANK9  BANK10  BANK1
      +1  BANK12  BANK13  BANK14  BANK15
   429 ;;      Params:         0       0       0       0       0       0       0       0       0       0       0       0       
      +0       0       0       0       0
   430 ;;      Locals:         0       0       0       0       0       0       0       0       0       0       0       0       
      +0       0       0       0       0
   431 ;;      Temps:          0       0       0       0       0       0       0       0       0       0       0       0       
      +0       0       0       0       0
   432 ;;      Totals:         0       0       0       0       0       0       0       0       0       0       0       0       
      +0       0       0       0       0
   433 ;;Total ram usage:        0 bytes
   434 ;; Hardware stack levels required when called:    7
   435 ;; This function calls:
   436 ;;		_gorevOlustur
   437 ;;		_portGorevciyiBaslat
   438 ;;		_sisOsilatorIlkle
   439 ;; This function is called by:
   440 ;;		Startup code after reset
   441 ;; This function uses a non-reentrant model
   442 ;;
   443                           
   444                           	psect	text0
   445  001A0A                     __ptext0:
   446                           	callstack 0
   447  001A0A                     _main:
   448                           	callstack 24
   449                           
   450                           ;ornek3.c: 354:     sisOsilatorIlkle();
   451                           
   452                           ;incstack = 0
   453  001A0A  ECF1  F00D         	call	_sisOsilatorIlkle	;wreg free
   454                           
   455                           ;ornek3.c: 357:     gorevOlustur(ledCakarlama1);
   456  001A0E  0EB0               	movlw	low _ledCakarlama1
   457  001A10  6E4F               	movwf	gorevOlustur@is^0,c
   458  001A12  0E14               	movlw	high _ledCakarlama1
   459  001A14  6E50               	movwf	(gorevOlustur@is+1)^0,c
   460  001A16  EC58  F00D         	call	_gorevOlustur	;wreg free
   461                           
   462                           ;ornek3.c: 358:     gorevOlustur(ledCakarlama2);
   463  001A1A  0E32               	movlw	low _ledCakarlama2
   464  001A1C  6E4F               	movwf	gorevOlustur@is^0,c
   465  001A1E  0E10               	movlw	high _ledCakarlama2
   466  001A20  6E50               	movwf	(gorevOlustur@is+1)^0,c
   467  001A22  EC58  F00D         	call	_gorevOlustur	;wreg free
   468                           
   469                           ;ornek3.c: 359:     gorevOlustur(karaSimsek);
   470  001A26  0E04               	movlw	low _karaSimsek
   471  001A28  6E4F               	movwf	gorevOlustur@is^0,c
   472  001A2A  0E18               	movlw	high _karaSimsek
   473  001A2C  6E50               	movwf	(gorevOlustur@is+1)^0,c
   474  001A2E  EC58  F00D         	call	_gorevOlustur	;wreg free
   475                           
   476                           ;ornek3.c: 360:     gorevOlustur(karaSimsekHiziOkuma);
   477  001A32  0E06               	movlw	low _karaSimsekHiziOkuma
   478  001A34  6E4F               	movwf	gorevOlustur@is^0,c
   479  001A36  0E16               	movlw	high _karaSimsekHiziOkuma
   480  001A38  6E50               	movwf	(gorevOlustur@is+1)^0,c
   481  001A3A  EC58  F00D         	call	_gorevOlustur	;wreg free
   482                           
   483                           ;ornek3.c: 361:     gorevOlustur(gostergeDegeriGuncelle);
   484  001A3E  0E1A               	movlw	low _gostergeDegeriGuncelle
   485  001A40  6E4F               	movwf	gorevOlustur@is^0,c
   486  001A42  0E17               	movlw	high _gostergeDegeriGuncelle
   487  001A44  6E50               	movwf	(gorevOlustur@is+1)^0,c
   488  001A46  EC58  F00D         	call	_gorevOlustur	;wreg free
   489                           
   490                           ;ornek3.c: 362:     gorevOlustur(gostergeGuncelle);
   491  001A4A  0EB0               	movlw	low _gostergeGuncelle
   492  001A4C  6E4F               	movwf	gorevOlustur@is^0,c
   493  001A4E  0E12               	movlw	high _gostergeGuncelle
   494  001A50  6E50               	movwf	(gorevOlustur@is+1)^0,c
   495  001A52  EC58  F00D         	call	_gorevOlustur	;wreg free
   496                           
   497                           ;ornek3.c: 365:     portGorevciyiBaslat();
   498  001A56  ECE5  F00D         	call	_portGorevciyiBaslat	;wreg free
   499                           
   500                           ; BSR set to: 0
   501  001A5A  EF59  F000         	goto	start
   502  001A5E                     __end_of_main:
   503                           	callstack 0
   504                           
   505 ;; *************** function _sisOsilatorIlkle *****************
   506 ;; Defined at:
   507 ;;		line 27 in file "osilator.c"
   508 ;; Parameters:    Size  Location     Type
   509 ;;		None
   510 ;; Auto vars:     Size  Location     Type
   511 ;;		None
   512 ;; Return value:  Size  Location     Type
   513 ;;                  1    wreg      void 
   514 ;; Registers used:
   515 ;;		wreg, status,2
   516 ;; Tracked objects:
   517 ;;		On entry : 0/0
   518 ;;		On exit  : 0/0
   519 ;;		Unchanged: 0/0
   520 ;; Data sizes:     COMRAM   BANK0   BANK1   BANK2   BANK3   BANK4   BANK5   BANK6   BANK7   BANK8   BANK9  BANK10  BANK1
      +1  BANK12  BANK13  BANK14  BANK15
   521 ;;      Params:         0       0       0       0       0       0       0       0       0       0       0       0       
      +0       0       0       0       0
   522 ;;      Locals:         0       0       0       0       0       0       0       0       0       0       0       0       
      +0       0       0       0       0
   523 ;;      Temps:          0       0       0       0       0       0       0       0       0       0       0       0       
      +0       0       0       0       0
   524 ;;      Totals:         0       0       0       0       0       0       0       0       0       0       0       0       
      +0       0       0       0       0
   525 ;;Total ram usage:        0 bytes
   526 ;; Hardware stack levels used:    1
   527 ;; Hardware stack levels required when called:    3
   528 ;; This function calls:
   529 ;;		Nothing
   530 ;; This function is called by:
   531 ;;		_main
   532 ;; This function uses a non-reentrant model
   533 ;;
   534                           
   535                           	psect	text1
   536  001BE2                     __ptext1:
   537                           	callstack 0
   538  001BE2                     _sisOsilatorIlkle:
   539                           	callstack 27
   540                           
   541                           ;osilator.c: 29:     OSCCON = 0b01110011;
   542                           
   543                           ; BSR set to: 0
   544                           ;incstack = 0
   545  001BE2  0E73               	movlw	115
   546  001BE4  6ED3               	movwf	211,c	;volatile
   547                           
   548                           ;osilator.c: 31:     OSCCON2 = 0x04;
   549  001BE6  0E04               	movlw	4
   550  001BE8  6ED2               	movwf	210,c	;volatile
   551                           
   552                           ;osilator.c: 33:     OSCTUNE = 0x00;
   553  001BEA  0E00               	movlw	0
   554  001BEC  6E9B               	movwf	155,c	;volatile
   555  001BEE  0012               	return		;funcret
   556  001BF0                     __end_of_sisOsilatorIlkle:
   557                           	callstack 0
   558                           
   559 ;; *************** function _portGorevciyiBaslat *****************
   560 ;; Defined at:
   561 ;;		line 47 in file "../../../../../kaynak/portlar/mplabx/xc8/pic18/port.c"
   562 ;; Parameters:    Size  Location     Type
   563 ;;		None
   564 ;; Auto vars:     Size  Location     Type
   565 ;;		None
   566 ;; Return value:  Size  Location     Type
   567 ;;                  1    wreg      void 
   568 ;; Registers used:
   569 ;;		wreg, fsr1l, fsr1h, fsr2l, fsr2h, status,2, status,0, pclath, tosl, tblptrl, tblptrh, tblptru, prodl, prodh, cstack
   570 ;; Tracked objects:
   571 ;;		On entry : 0/0
   572 ;;		On exit  : 3F/0
   573 ;;		Unchanged: 0/0
   574 ;; Data sizes:     COMRAM   BANK0   BANK1   BANK2   BANK3   BANK4   BANK5   BANK6   BANK7   BANK8   BANK9  BANK10  BANK1
      +1  BANK12  BANK13  BANK14  BANK15
   575 ;;      Params:         0       0       0       0       0       0       0       0       0       0       0       0       
      +0       0       0       0       0
   576 ;;      Locals:         0       0       0       0       0       0       0       0       0       0       0       0       
      +0       0       0       0       0
   577 ;;      Temps:          0       0       0       0       0       0       0       0       0       0       0       0       
      +0       0       0       0       0
   578 ;;      Totals:         0       0       0       0       0       0       0       0       0       0       0       0       
      +0       0       0       0       0
   579 ;;Total ram usage:        0 bytes
   580 ;; Hardware stack levels used:    1
   581 ;; Hardware stack levels required when called:    6
   582 ;; This function calls:
   583 ;;		_gorevciyiBaslat
   584 ;;		_interruptIlkle
   585 ;;		_sisTimerIlkle
   586 ;; This function is called by:
   587 ;;		_main
   588 ;; This function uses a non-reentrant model
   589 ;;
   590                           
   591                           	psect	text2
   592  001BCA                     __ptext2:
   593                           	callstack 0
   594  001BCA                     _portGorevciyiBaslat:
   595                           	callstack 24
   596                           
   597                           ;../../../../../kaynak/portlar/mplabx/xc8/pic18/port.c: 49:  interruptIlkle();
   598                           
   599                           ;incstack = 0
   600  001BCA  EC00  F00E         	call	_interruptIlkle	;wreg free
   601                           
   602                           ;../../../../../kaynak/portlar/mplabx/xc8/pic18/port.c: 52:  sisTimerIlkle(sisTikKesmeIs
      +                          leyici);
   603  001BCE  0EFA               	movlw	low _sisTikKesmeIsleyici
   604  001BD0  6E4B               	movwf	sisTimerIlkle@isleyici^0,c
   605  001BD2  0E1B               	movlw	high _sisTikKesmeIsleyici
   606  001BD4  6E4C               	movwf	(sisTimerIlkle@isleyici+1)^0,c
   607  001BD6  EC7F  F00D         	call	_sisTimerIlkle	;wreg free
   608                           
   609                           ;../../../../../kaynak/portlar/mplabx/xc8/pic18/port.c: 55:  INTCONbits.GIEH = 1;;
   610  001BDA  8EF2               	bsf	242,7,c	;volatile
   611                           
   612                           ;../../../../../kaynak/portlar/mplabx/xc8/pic18/port.c: 58:  gorevciyiBaslat();
   613  001BDC  ECB3  F00C         	call	_gorevciyiBaslat	;wreg free
   614                           
   615                           ; BSR set to: 0
   616  001BE0  0012               	return		;funcret
   617  001BE2                     __end_of_portGorevciyiBaslat:
   618                           	callstack 0
   619                           
   620 ;; *************** function _sisTimerIlkle *****************
   621 ;; Defined at:
   622 ;;		line 134 in file "sistimer.c"
   623 ;; Parameters:    Size  Location     Type
   624 ;;  isleyici        2   16[COMRAM] PTR FTN()void 
   625 ;;		 -> sisTikKesmeIsleyici(1), 
   626 ;; Auto vars:     Size  Location     Type
   627 ;;		None
   628 ;; Return value:  Size  Location     Type
   629 ;;                  1    wreg      void 
   630 ;; Registers used:
   631 ;;		wreg, status,2, status,0, cstack
   632 ;; Tracked objects:
   633 ;;		On entry : 0/0
   634 ;;		On exit  : 0/0
   635 ;;		Unchanged: 0/0
   636 ;; Data sizes:     COMRAM   BANK0   BANK1   BANK2   BANK3   BANK4   BANK5   BANK6   BANK7   BANK8   BANK9  BANK10  BANK1
      +1  BANK12  BANK13  BANK14  BANK15
   637 ;;      Params:         2       0       0       0       0       0       0       0       0       0       0       0       
      +0       0       0       0       0
   638 ;;      Locals:         0       0       0       0       0       0       0       0       0       0       0       0       
      +0       0       0       0       0
   639 ;;      Temps:          0       0       0       0       0       0       0       0       0       0       0       0       
      +0       0       0       0       0
   640 ;;      Totals:         2       0       0       0       0       0       0       0       0       0       0       0       
      +0       0       0       0       0
   641 ;;Total ram usage:        2 bytes
   642 ;; Hardware stack levels used:    1
   643 ;; Hardware stack levels required when called:    4
   644 ;; This function calls:
   645 ;;		_timer0KesmeIsleyiciKur
   646 ;; This function is called by:
   647 ;;		_portGorevciyiBaslat
   648 ;; This function uses a non-reentrant model
   649 ;;
   650                           
   651                           	psect	text3
   652  001AFE                     __ptext3:
   653                           	callstack 0
   654  001AFE                     _sisTimerIlkle:
   655                           	callstack 25
   656                           
   657                           ;sistimer.c: 135:     T0CON = 0;
   658                           
   659                           ; BSR set to: 0
   660                           ;incstack = 0
   661  001AFE  0E00               	movlw	0
   662  001B00  6ED5               	movwf	213,c	;volatile
   663                           
   664                           ;sistimer.c: 137:     T0CONbits.T08BIT = 0;
   665  001B02  9CD5               	bcf	213,6,c	;volatile
   666                           
   667                           ;sistimer.c: 142:     T0CONbits.T0CS = 0;
   668  001B04  9AD5               	bcf	213,5,c	;volatile
   669                           
   670                           ;sistimer.c: 145:     T0CONbits.PSA = 1;
   671  001B06  86D5               	bsf	213,3,c	;volatile
   672                           
   673                           ;sistimer.c: 154:     TMR0 = (uint16_t) ((uint16_t)((65536)-((( 1000u - ( ( ( 52 ) * ( (
      +                           1 * ( 100 ) ) / ( (16000000 / 4 ) / 1000000 ) ) ) / ( 100 ) ) )* (16000000/1000000))/(4
      +                          *(1)))-1));
   674  001B08  0EF0               	movlw	240
   675  001B0A  6ED7               	movwf	215,c	;volatile
   676  001B0C  0E93               	movlw	147
   677  001B0E  6ED6               	movwf	214,c	;volatile
   678                           
   679                           ;sistimer.c: 160:     sisTimerDisIsleyici = isleyici == ((void*)0) ? sisTimerIsleyiciVar
      +                          sayilan : isleyici;
   680  001B10  504B               	movf	sisTimerIlkle@isleyici^0,w,c
   681  001B12  104C               	iorwf	(sisTimerIlkle@isleyici+1)^0,w,c
   682  001B14  B4D8               	btfsc	status,2,c
   683  001B16  D005               	goto	l2371
   684  001B18  C04B  F021         	movff	sisTimerIlkle@isleyici,_sisTimerDisIsleyici
   685  001B1C  C04C  F022         	movff	sisTimerIlkle@isleyici+1,_sisTimerDisIsleyici+1
   686  001B20  D004               	goto	l2373
   687  001B22                     l2371:
   688  001B22  0E04               	movlw	low _sisTimerIsleyiciVarsayilan
   689  001B24  6E21               	movwf	_sisTimerDisIsleyici^0,c
   690  001B26  0E1C               	movlw	high _sisTimerIsleyiciVarsayilan
   691  001B28  6E22               	movwf	(_sisTimerDisIsleyici+1)^0,c
   692  001B2A                     l2373:
   693                           
   694                           ;sistimer.c: 162:     timer0KesmeIsleyiciKur(sisTimerKesmeIsleyici);
   695  001B2A  0E90               	movlw	low _sisTimerKesmeIsleyici
   696  001B2C  6E49               	movwf	timer0KesmeIsleyiciKur@isleyici^0,c
   697  001B2E  0E1B               	movlw	high _sisTimerKesmeIsleyici
   698  001B30  6E4A               	movwf	(timer0KesmeIsleyiciKur@isleyici+1)^0,c
   699  001B32  ECF8  F00D         	call	_timer0KesmeIsleyiciKur	;wreg free
   700                           
   701                           ;sistimer.c: 165:     INTCONbits.TMR0IF = 0;
   702  001B36  94F2               	bcf	242,2,c	;volatile
   703                           
   704                           ;sistimer.c: 166:     INTCONbits.TMR0IE = 1;
   705  001B38  8AF2               	bsf	242,5,c	;volatile
   706                           
   707                           ;sistimer.c: 169:     T0CONbits.TMR0ON = 1;
   708  001B3A  8ED5               	bsf	213,7,c	;volatile
   709  001B3C  0012               	return		;funcret
   710  001B3E                     __end_of_sisTimerIlkle:
   711                           	callstack 0
   712                           
   713 ;; *************** function _timer0KesmeIsleyiciKur *****************
   714 ;; Defined at:
   715 ;;		line 38 in file "interrupt.c"
   716 ;; Parameters:    Size  Location     Type
   717 ;;  isleyici        2   14[COMRAM] PTR FTN()void 
   718 ;;		 -> sisTimerKesmeIsleyici(1), 
   719 ;; Auto vars:     Size  Location     Type
   720 ;;		None
   721 ;; Return value:  Size  Location     Type
   722 ;;                  1    wreg      void 
   723 ;; Registers used:
   724 ;;		wreg, status,2, status,0
   725 ;; Tracked objects:
   726 ;;		On entry : 0/0
   727 ;;		On exit  : 0/0
   728 ;;		Unchanged: 0/0
   729 ;; Data sizes:     COMRAM   BANK0   BANK1   BANK2   BANK3   BANK4   BANK5   BANK6   BANK7   BANK8   BANK9  BANK10  BANK1
      +1  BANK12  BANK13  BANK14  BANK15
   730 ;;      Params:         2       0       0       0       0       0       0       0       0       0       0       0       
      +0       0       0       0       0
   731 ;;      Locals:         0       0       0       0       0       0       0       0       0       0       0       0       
      +0       0       0       0       0
   732 ;;      Temps:          0       0       0       0       0       0       0       0       0       0       0       0       
      +0       0       0       0       0
   733 ;;      Totals:         2       0       0       0       0       0       0       0       0       0       0       0       
      +0       0       0       0       0
   734 ;;Total ram usage:        2 bytes
   735 ;; Hardware stack levels used:    1
   736 ;; Hardware stack levels required when called:    3
   737 ;; This function calls:
   738 ;;		Nothing
   739 ;; This function is called by:
   740 ;;		_sisTimerIlkle
   741 ;; This function uses a non-reentrant model
   742 ;;
   743                           
   744                           	psect	text4
   745  001BF0                     __ptext4:
   746                           	callstack 0
   747  001BF0                     _timer0KesmeIsleyiciKur:
   748                           	callstack 25
   749                           
   750                           ;interrupt.c: 39:     timer0KesmeIsleyici = isleyici;
   751                           
   752                           ;incstack = 0
   753  001BF0  C049  F027         	movff	timer0KesmeIsleyiciKur@isleyici,_timer0KesmeIsleyici
   754  001BF4  C04A  F028         	movff	timer0KesmeIsleyiciKur@isleyici+1,_timer0KesmeIsleyici+1
   755  001BF8  0012               	return		;funcret
   756  001BFA                     __end_of_timer0KesmeIsleyiciKur:
   757                           	callstack 0
   758                           
   759 ;; *************** function _interruptIlkle *****************
   760 ;; Defined at:
   761 ;;		line 31 in file "interrupt.c"
   762 ;; Parameters:    Size  Location     Type
   763 ;;		None
   764 ;; Auto vars:     Size  Location     Type
   765 ;;		None
   766 ;; Return value:  Size  Location     Type
   767 ;;                  1    wreg      void 
   768 ;; Registers used:
   769 ;;		None
   770 ;; Tracked objects:
   771 ;;		On entry : 0/0
   772 ;;		On exit  : 0/0
   773 ;;		Unchanged: 0/0
   774 ;; Data sizes:     COMRAM   BANK0   BANK1   BANK2   BANK3   BANK4   BANK5   BANK6   BANK7   BANK8   BANK9  BANK10  BANK1
      +1  BANK12  BANK13  BANK14  BANK15
   775 ;;      Params:         0       0       0       0       0       0       0       0       0       0       0       0       
      +0       0       0       0       0
   776 ;;      Locals:         0       0       0       0       0       0       0       0       0       0       0       0       
      +0       0       0       0       0
   777 ;;      Temps:          0       0       0       0       0       0       0       0       0       0       0       0       
      +0       0       0       0       0
   778 ;;      Totals:         0       0       0       0       0       0       0       0       0       0       0       0       
      +0       0       0       0       0
   779 ;;Total ram usage:        0 bytes
   780 ;; Hardware stack levels used:    1
   781 ;; Hardware stack levels required when called:    3
   782 ;; This function calls:
   783 ;;		Nothing
   784 ;; This function is called by:
   785 ;;		_portGorevciyiBaslat
   786 ;; This function uses a non-reentrant model
   787 ;;
   788                           
   789                           	psect	text5
   790  001C00                     __ptext5:
   791                           	callstack 0
   792  001C00                     _interruptIlkle:
   793                           	callstack 26
   794                           
   795                           ;interrupt.c: 34:     RCONbits.IPEN = 0;
   796                           
   797                           ;incstack = 0
   798  001C00  9ED0               	bcf	208,7,c	;volatile
   799  001C02  0012               	return		;funcret
   800  001C04                     __end_of_interruptIlkle:
   801                           	callstack 0
   802                           
   803 ;; *************** function _gorevciyiBaslat *****************
   804 ;; Defined at:
   805 ;;		line 120 in file "../../../../../kaynak/gorev.c"
   806 ;; Parameters:    Size  Location     Type
   807 ;;		None
   808 ;; Auto vars:     Size  Location     Type
   809 ;;  glo             2    9[BANK0 ] PTR struct .
   810 ;;		 -> gorevHeap(32), NULL(0), 
   811 ;;  donus           1   11[BANK0 ] unsigned char 
   812 ;;  s               1   12[BANK0 ] unsigned char 
   813 ;; Return value:  Size  Location     Type
   814 ;;                  1    wreg      void 
   815 ;; Registers used:
   816 ;;		wreg, fsr1l, fsr1h, fsr2l, fsr2h, status,2, status,0, pclath, tosl, tblptrl, tblptrh, tblptru, prodl, prodh, cstack
   817 ;; Tracked objects:
   818 ;;		On entry : 0/0
   819 ;;		On exit  : 3F/0
   820 ;;		Unchanged: 0/0
   821 ;; Data sizes:     COMRAM   BANK0   BANK1   BANK2   BANK3   BANK4   BANK5   BANK6   BANK7   BANK8   BANK9  BANK10  BANK1
      +1  BANK12  BANK13  BANK14  BANK15
   822 ;;      Params:         0       0       0       0       0       0       0       0       0       0       0       0       
      +0       0       0       0       0
   823 ;;      Locals:         0       4       0       0       0       0       0       0       0       0       0       0       
      +0       0       0       0       0
   824 ;;      Temps:          0       2       0       0       0       0       0       0       0       0       0       0       
      +0       0       0       0       0
   825 ;;      Totals:         0       6       0       0       0       0       0       0       0       0       0       0       
      +0       0       0       0       0
   826 ;;Total ram usage:        6 bytes
   827 ;; Hardware stack levels used:    1
   828 ;; Hardware stack levels required when called:    5
   829 ;; This function calls:
   830 ;;		_gostergeDegeriGuncelle
   831 ;;		_gostergeGuncelle
   832 ;;		_karaSimsek
   833 ;;		_karaSimsekHiziOkuma
   834 ;;		_ledCakarlama1
   835 ;;		_ledCakarlama2
   836 ;;		_listedenSil
   837 ;;		_listeyeEkle
   838 ;; This function is called by:
   839 ;;		_portGorevciyiBaslat
   840 ;; This function uses a non-reentrant model
   841 ;;
   842                           
   843                           	psect	text6
   844  001966                     __ptext6:
   845                           	callstack 0
   846  001966                     _gorevciyiBaslat:
   847                           	callstack 24
   848                           
   849                           ;../../../../../kaynak/gorev.c: 122:   for(char s = 0; s < gorevSayimi; s++) {
   850                           
   851                           ;incstack = 0
   852                           ;../../../../../kaynak/gorev.c: 121:  while(1) {
   853  001966  0E00               	movlw	0
   854  001968  0100               	movlb	0	; () banked
   855  00196A  6F9C               	movwf	gorevciyiBaslat@s& (0+255),b
   856  00196C  D049               	goto	l3147
   857  00196E                     l3135:
   858                           
   859                           ; BSR set to: 0
   860                           ;../../../../../kaynak/gorev.c: 123:    char donus = calisanListesi[s]->is(calisanListes
      +                          i[s]);
   861  00196E  519C               	movf	gorevciyiBaslat@s& (0+255),w,b
   862  001970  0D02               	mullw	2
   863  001972  50F3               	movf	243,w,c
   864  001974  0F80               	addlw	low _calisanListesi
   865  001976  6ED9               	movwf	fsr2l,c
   866  001978  6ADA               	clrf	fsr2h,c
   867  00197A  CFDE F090          	movff	postinc2,gostergeGuncelle@tutucu
   868  00197E  CFDD F091          	movff	postdec2,gostergeGuncelle@tutucu+1
   869  001982  519C               	movf	gorevciyiBaslat@s& (0+255),w,b
   870  001984  0D02               	mullw	2
   871  001986  50F3               	movf	243,w,c
   872  001988  0F80               	addlw	low _calisanListesi
   873  00198A  6ED9               	movwf	fsr2l,c
   874  00198C  6ADA               	clrf	fsr2h,c
   875  00198E  EE10 F002          	lfsr	1,2
   876  001992  50DE               	movf	postinc2,w,c
   877  001994  26E1               	addwf	fsr1l,f,c
   878  001996  50DD               	movf	postdec2,w,c
   879  001998  22E2               	addwfc	fsr1h,f,c
   880  00199A  CFE6 F097          	movff	postinc1,??_gorevciyiBaslat
   881  00199E  CFE5 F098          	movff	postdec1,??_gorevciyiBaslat+1
   882  0019A2  D801               	call	u1978
   883  0019A4  D009               	goto	u1979
   884  0019A6                     u1978:
   885  0019A6  0005               	push	
   886  0019A8  6EFA               	movwf	pclath,c
   887  0019AA  5197               	movf	??_gorevciyiBaslat& (0+255),w,b
   888  0019AC  6EFD               	movwf	tosl,c
   889  0019AE  5198               	movf	(??_gorevciyiBaslat+1)& (0+255),w,b
   890  0019B0  6EFE               	movwf	tosh,c
   891  0019B2  6AFF               	clrf	tosu,c
   892  0019B4  50FA               	movf	pclath,w,c
   893  0019B6  0012               	return		;indir
   894  0019B8                     u1979:
   895  0019B8  0100               	movlb	0	; () banked
   896  0019BA  6F9B               	movwf	gorevciyiBaslat@donus& (0+255),b
   897                           
   898                           ; BSR set to: 0
   899                           ;../../../../../kaynak/gorev.c: 124:             if(donus == 1) {
   900  0019BC  059B               	decf	gorevciyiBaslat@donus& (0+255),w,b
   901  0019BE  A4D8               	btfss	status,2,c
   902  0019C0  D01E               	goto	l3145
   903                           
   904                           ; BSR set to: 0
   905                           ;../../../../../kaynak/gorev.c: 128:                 gorevListeOgesi_t glo = calisanList
      +                          esi[s];
   906  0019C2  519C               	movf	gorevciyiBaslat@s& (0+255),w,b
   907  0019C4  0D02               	mullw	2
   908  0019C6  50F3               	movf	243,w,c
   909  0019C8  0F80               	addlw	low _calisanListesi
   910  0019CA  6ED9               	movwf	fsr2l,c
   911  0019CC  6ADA               	clrf	fsr2h,c
   912  0019CE  CFDE F099          	movff	postinc2,gorevciyiBaslat@glo
   913  0019D2  CFDD F09A          	movff	postdec2,gorevciyiBaslat@glo+1
   914                           
   915                           ; BSR set to: 0
   916                           ;../../../../../kaynak/gorev.c: 131:                 listedenSil(calisanListesi, &calisa
      +                          nSayimi, s);
   917  0019D6  0E80               	movlw	low _calisanListesi
   918  0019D8  6E49               	movwf	listedenSil@liste^0,c
   919  0019DA  0E3A               	movlw	low _calisanSayimi
   920  0019DC  6E4A               	movwf	listedenSil@sayim^0,c
   921  0019DE  C09C  F04B         	movff	gorevciyiBaslat@s,listedenSil@konum
   922  0019E2  EC5E  F00C         	call	_listedenSil	;wreg free
   923                           
   924                           ; BSR set to: 0
   925                           ;../../../../../kaynak/gorev.c: 134:                 listeyeEkle(cikanListesi, &cikanSay
      +                          imi, 3, glo);
   926  0019E6  0E33               	movlw	low _cikanListesi
   927  0019E8  6E49               	movwf	listeyeEkle@liste^0,c
   928  0019EA  0E39               	movlw	low _cikanSayimi
   929  0019EC  6E4A               	movwf	listeyeEkle@sayim^0,c
   930  0019EE  0E03               	movlw	3
   931  0019F0  6E4B               	movwf	listeyeEkle@max^0,c
   932  0019F2  C099  F04C         	movff	gorevciyiBaslat@glo,listeyeEkle@glo
   933  0019F6  C09A  F04D         	movff	gorevciyiBaslat@glo+1,listeyeEkle@glo+1
   934  0019FA  EC9F  F00D         	call	_listeyeEkle	;wreg free
   935  0019FE                     l3145:
   936                           
   937                           ; BSR set to: 0
   938                           ;../../../../../kaynak/gorev.c: 136:   }
   939  0019FE  2B9C               	incf	gorevciyiBaslat@s& (0+255),f,b
   940  001A00                     l3147:
   941                           
   942                           ; BSR set to: 0
   943  001A00  502F               	movf	_gorevSayimi^0,w,c
   944  001A02  5D9C               	subwf	gorevciyiBaslat@s& (0+255),w,b
   945  001A04  B0D8               	btfsc	status,0,c
   946  001A06  D7AF               	goto	_gorevciyiBaslat
   947  001A08  D7B2               	goto	l3135
   948  001A0A                     __end_of_gorevciyiBaslat:
   949                           	callstack 0
   950                           
   951 ;; *************** function _listedenSil *****************
   952 ;; Defined at:
   953 ;;		line 80 in file "../../../../../kaynak/gorev.c"
   954 ;; Parameters:    Size  Location     Type
   955 ;;  liste           1   14[COMRAM] PTR PTR struct .
   956 ;;		 -> calisanListesi(16), 
   957 ;;  sayim           1   15[COMRAM] PTR unsigned char 
   958 ;;		 -> calisanSayimi(1), 
   959 ;;  konum           1   16[COMRAM] const unsigned char 
   960 ;; Auto vars:     Size  Location     Type
   961 ;;  sonrakiOge      3    0        PTR struct .
   962 ;;  k               1   18[COMRAM] unsigned char 
   963 ;;  cSayim          1   17[COMRAM] const unsigned char 
   964 ;; Return value:  Size  Location     Type
   965 ;;                  1    wreg      void 
   966 ;; Registers used:
   967 ;;		wreg, fsr1l, fsr1h, fsr2l, fsr2h, status,2, status,0, prodl, prodh
   968 ;; Tracked objects:
   969 ;;		On entry : 3F/0
   970 ;;		On exit  : 3F/0
   971 ;;		Unchanged: 0/0
   972 ;; Data sizes:     COMRAM   BANK0   BANK1   BANK2   BANK3   BANK4   BANK5   BANK6   BANK7   BANK8   BANK9  BANK10  BANK1
      +1  BANK12  BANK13  BANK14  BANK15
   973 ;;      Params:         3       0       0       0       0       0       0       0       0       0       0       0       
      +0       0       0       0       0
   974 ;;      Locals:         2       0       0       0       0       0       0       0       0       0       0       0       
      +0       0       0       0       0
   975 ;;      Temps:          0       6       0       0       0       0       0       0       0       0       0       0       
      +0       0       0       0       0
   976 ;;      Totals:         5       6       0       0       0       0       0       0       0       0       0       0       
      +0       0       0       0       0
   977 ;;Total ram usage:       11 bytes
   978 ;; Hardware stack levels used:    1
   979 ;; Hardware stack levels required when called:    3
   980 ;; This function calls:
   981 ;;		Nothing
   982 ;; This function is called by:
   983 ;;		_gorevciyiBaslat
   984 ;; This function uses a non-reentrant model
   985 ;;
   986                           
   987                           	psect	text7
   988  0018BC                     __ptext7:
   989                           	callstack 0
   990  0018BC                     _listedenSil:
   991                           	callstack 25
   992                           
   993                           ; BSR set to: 0
   994                           ;../../../../../kaynak/gorev.c: 80: static void listedenSil(gorevListeOgesi_t liste[],;.
      +                          ./../../../../kaynak/gorev.c: 81:         char *sayim, const char konum) {;../../../../.
      +                          ./kaynak/gorev.c: 83:     const char cSayim = *sayim;
   995                           
   996                           ; BSR set to: 0
   997                           ;incstack = 0
   998  0018BC  504A               	movf	listedenSil@sayim^0,w,c
   999  0018BE  6ED9               	movwf	fsr2l,c
  1000  0018C0  6ADA               	clrf	fsr2h,c
  1001  0018C2  50DF               	movf	indf2,w,c
  1002  0018C4  6E4C               	movwf	listedenSil@cSayim^0,c
  1003                           
  1004                           ; BSR set to: 0
  1005                           ;../../../../../kaynak/gorev.c: 86:     if(konum >= cSayim || konum == 0) return;
  1006  0018C6  504C               	movf	listedenSil@cSayim^0,w,c
  1007  0018C8  5C4B               	subwf	listedenSil@konum^0,w,c
  1008  0018CA  B0D8               	btfsc	status,0,c
  1009  0018CC  0012               	return	
  1010                           
  1011                           ; BSR set to: 0
  1012  0018CE  504B               	movf	listedenSil@konum^0,w,c
  1013  0018D0  B4D8               	btfsc	status,2,c
  1014  0018D2  0012               	return	
  1015                           
  1016                           ; BSR set to: 0
  1017                           ;../../../../../kaynak/gorev.c: 88:     if(konum == (cSayim - 1)) {
  1018  0018D4  504B               	movf	listedenSil@konum^0,w,c
  1019  0018D6  6F90               	movwf	??_listedenSil& (0+255),b
  1020  0018D8  6B91               	clrf	(??_listedenSil+1)& (0+255),b
  1021  0018DA  0EFF               	movlw	255
  1022  0018DC  6F92               	movwf	(??_listedenSil+2)& (0+255),b
  1023  0018DE  0EFF               	movlw	255
  1024  0018E0  6F93               	movwf	(??_listedenSil+3)& (0+255),b
  1025  0018E2  504C               	movf	listedenSil@cSayim^0,w,c
  1026  0018E4  6F94               	movwf	(??_listedenSil+4)& (0+255),b
  1027  0018E6  6B95               	clrf	(??_listedenSil+5)& (0+255),b
  1028  0018E8  5192               	movf	(??_listedenSil+2)& (0+255),w,b
  1029  0018EA  2794               	addwf	(??_listedenSil+4)& (0+255),f,b
  1030  0018EC  5193               	movf	(??_listedenSil+3)& (0+255),w,b
  1031  0018EE  2395               	addwfc	(??_listedenSil+5)& (0+255),f,b
  1032  0018F0  5190               	movf	??_listedenSil& (0+255),w,b
  1033  0018F2  1994               	xorwf	(??_listedenSil+4)& (0+255),w,b
  1034  0018F4  E113               	bnz	l129
  1035  0018F6  5191               	movf	(??_listedenSil+1)& (0+255),w,b
  1036  0018F8  1995               	xorwf	(??_listedenSil+5)& (0+255),w,b
  1037  0018FA  A4D8               	btfss	status,2,c
  1038  0018FC  D00F               	goto	l129
  1039                           
  1040                           ; BSR set to: 0
  1041                           ;../../../../../kaynak/gorev.c: 91:         liste[konum] = ((void*)0);
  1042  0018FE  504B               	movf	listedenSil@konum^0,w,c
  1043  001900  0D02               	mullw	2
  1044  001902  5049               	movf	listedenSil@liste^0,w,c
  1045  001904  24F3               	addwf	243,w,c
  1046  001906  6ED9               	movwf	fsr2l,c
  1047  001908  6ADA               	clrf	fsr2h,c
  1048  00190A  0E00               	movlw	0
  1049  00190C  6EDE               	movwf	postinc2,c
  1050  00190E  0E00               	movlw	0
  1051  001910  6EDD               	movwf	postdec2,c
  1052  001912                     l2643:
  1053                           
  1054                           ; BSR set to: 0
  1055                           ;../../../../../kaynak/gorev.c: 92:         (*sayim)--;
  1056  001912  504A               	movf	listedenSil@sayim^0,w,c
  1057  001914  6ED9               	movwf	fsr2l,c
  1058  001916  6ADA               	clrf	fsr2h,c
  1059  001918  06DF               	decf	indf2,f,c
  1060  00191A  0012               	return	
  1061  00191C                     l129:
  1062                           
  1063                           ; BSR set to: 0
  1064                           ;../../../../../kaynak/gorev.c: 96:     gorevListeOgesi_t sonrakiOge;;../../../../../kay
      +                          nak/gorev.c: 97:     char k = konum;
  1065  00191C  C04B  F04D         	movff	listedenSil@konum,listedenSil@k
  1066                           
  1067                           ; BSR set to: 0
  1068                           ;../../../../../kaynak/gorev.c: 98:     liste[konum] = ((void*)0);
  1069  001920  504B               	movf	listedenSil@konum^0,w,c
  1070  001922  0D02               	mullw	2
  1071  001924  5049               	movf	listedenSil@liste^0,w,c
  1072  001926  24F3               	addwf	243,w,c
  1073  001928  6ED9               	movwf	fsr2l,c
  1074  00192A  6ADA               	clrf	fsr2h,c
  1075  00192C  0E00               	movlw	0
  1076  00192E  6EDE               	movwf	postinc2,c
  1077  001930  0E00               	movlw	0
  1078  001932  6EDD               	movwf	postdec2,c
  1079                           
  1080                           ;../../../../../kaynak/gorev.c: 99:     while(k < cSayim) {
  1081  001934  D013               	goto	l2653
  1082  001936                     l2649:
  1083                           
  1084                           ; BSR set to: 0
  1085                           ;../../../../../kaynak/gorev.c: 101:         liste[k] = liste[k+1];
  1086  001936  504D               	movf	listedenSil@k^0,w,c
  1087  001938  0D02               	mullw	2
  1088  00193A  5049               	movf	listedenSil@liste^0,w,c
  1089  00193C  24F3               	addwf	243,w,c
  1090  00193E  6ED9               	movwf	fsr2l,c
  1091  001940  6ADA               	clrf	fsr2h,c
  1092  001942  0E02               	movlw	2
  1093  001944  26D9               	addwf	fsr2l,f,c
  1094  001946  504D               	movf	listedenSil@k^0,w,c
  1095  001948  0D02               	mullw	2
  1096  00194A  5049               	movf	listedenSil@liste^0,w,c
  1097  00194C  24F3               	addwf	243,w,c
  1098  00194E  6EE1               	movwf	fsr1l,c
  1099  001950  6AE2               	clrf	fsr1h,c
  1100  001952  CFDE FFE6          	movff	postinc2,postinc1
  1101  001956  CFDD FFE5          	movff	postdec2,postdec1
  1102                           
  1103                           ; BSR set to: 0
  1104                           ;../../../../../kaynak/gorev.c: 102:         k++;
  1105  00195A  2A4D               	incf	listedenSil@k^0,f,c
  1106  00195C                     l2653:
  1107                           
  1108                           ; BSR set to: 0
  1109                           ;../../../../../kaynak/gorev.c: 99:     while(k < cSayim) {
  1110  00195C  504C               	movf	listedenSil@cSayim^0,w,c
  1111  00195E  5C4D               	subwf	listedenSil@k^0,w,c
  1112  001960  B0D8               	btfsc	status,0,c
  1113  001962  D7D7               	goto	l2643
  1114  001964  D7E8               	goto	l2649
  1115  001966                     __end_of_listedenSil:
  1116                           	callstack 0
  1117                           
  1118 ;; *************** function _gostergeGuncelle *****************
  1119 ;; Defined at:
  1120 ;;		line 285 in file "ornek3.c"
  1121 ;; Parameters:    Size  Location     Type
  1122 ;;  tutucu          2    0[BANK0 ] PTR void 
  1123 ;;		 -> gorevHeap(32), NULL(0), 
  1124 ;; Auto vars:     Size  Location     Type
  1125 ;;  VAZGECIS_BAY    1    0        unsigned char 
  1126 ;; Return value:  Size  Location     Type
  1127 ;;                  1    wreg      unsigned char 
  1128 ;; Registers used:
  1129 ;;		wreg, fsr2l, fsr2h, status,2, status,0, tblptrl, tblptrh, tblptru, cstack
  1130 ;; Tracked objects:
  1131 ;;		On entry : 3F/0
  1132 ;;		On exit  : 0/0
  1133 ;;		Unchanged: 0/0
  1134 ;; Data sizes:     COMRAM   BANK0   BANK1   BANK2   BANK3   BANK4   BANK5   BANK6   BANK7   BANK8   BANK9  BANK10  BANK1
      +1  BANK12  BANK13  BANK14  BANK15
  1135 ;;      Params:         0       2       0       0       0       0       0       0       0       0       0       0       
      +0       0       0       0       0
  1136 ;;      Locals:         1       0       0       0       0       0       0       0       0       0       0       0       
      +0       0       0       0       0
  1137 ;;      Temps:          0       2       0       0       0       0       0       0       0       0       0       0       
      +0       0       0       0       0
  1138 ;;      Totals:         1       4       0       0       0       0       0       0       0       0       0       0       
      +0       0       0       0       0
  1139 ;;Total ram usage:        5 bytes
  1140 ;; Hardware stack levels used:    1
  1141 ;; Hardware stack levels required when called:    4
  1142 ;; This function calls:
  1143 ;;		_tikSayiminiAl
  1144 ;; This function is called by:
  1145 ;;		_main
  1146 ;;		_gorevciyiBaslat
  1147 ;; This function uses a non-reentrant model
  1148 ;;
  1149                           
  1150                           	psect	text8
  1151  0012B0                     __ptext8:
  1152                           	callstack 0
  1153  0012B0                     _gostergeGuncelle:
  1154                           	callstack 24
  1155                           
  1156                           ; BSR set to: 0
  1157                           
  1158                           ; BSR set to: 0
  1159                           ;incstack = 0
  1160  0012B0  D0D8               	goto	l3115
  1161  0012B2                     l3019:
  1162                           
  1163                           ; BSR set to: 0
  1164                           ;ornek3.c: 305:     LATC = 0;
  1165  0012B2  0E00               	movlw	0
  1166  0012B4  6E8B               	movwf	139,c	;volatile
  1167                           
  1168                           ;ornek3.c: 306:     ANSELC = 0;
  1169  0012B6  0E00               	movlw	0
  1170  0012B8  010F               	movlb	15	; () banked
  1171  0012BA  6F3A               	movwf	58,b	;volatile
  1172                           
  1173                           ;ornek3.c: 307:     TRISC = 0;
  1174  0012BC  0E00               	movlw	0
  1175  0012BE  6E94               	movwf	148,c	;volatile
  1176                           
  1177                           ;ornek3.c: 310:     LATB = 0;
  1178  0012C0  0E00               	movlw	0
  1179  0012C2  6E8A               	movwf	138,c	;volatile
  1180                           
  1181                           ;ornek3.c: 311:     ANSELB = 0xF0;
  1182  0012C4  0EF0               	movlw	240
  1183  0012C6  6F39               	movwf	57,b	;volatile
  1184                           
  1185                           ;ornek3.c: 312:     TRISB = 0xF0;
  1186  0012C8  0EF0               	movlw	240
  1187  0012CA  6E93               	movwf	147,c	;volatile
  1188  0012CC                     l3021:
  1189                           
  1190                           ;ornek3.c: 317:         LATB &= 0xF0;
  1191  0012CC  0EF0               	movlw	240
  1192  0012CE  168A               	andwf	138,f,c	;volatile
  1193                           
  1194                           ;ornek3.c: 318:         LATC = BCDdenOrtakAnoda[gosterge[0]];
  1195  0012D0  5015               	movf	_gosterge^0,w,c
  1196  0012D2  0F01               	addlw	low gostergeGuncelle@BCDdenOrtakAnoda
  1197  0012D4  0100               	movlb	0	; () banked
  1198  0012D6  6F92               	movwf	??_gostergeGuncelle& (0+255),b
  1199  0012D8  C092  FFF6         	movff	??_gostergeGuncelle,tblptrl
  1200  0012DC                     	if	1	;There is more than 1 active tblptr byte
  1201  0012DC  0E10               	movlw	high __smallconst
  1202  0012DE  6EF7               	movwf	tblptrh,c
  1203  0012E0                     	endif
  1204  0012E0                     	if	1	;Program memory is < 0x10000, tblptru is always zero
  1205  0012E0  6AF8               	clrf	tblptru,c
  1206  0012E2                     	endif
  1207  0012E2                     	if	0	;tblptru may be non-zero
  1208  0012E2                     	endif
  1209  0012E2  0008               	tblrd		*
  1210  0012E4  CFF5 FF8B          	movff	tablat,3979	;volatile
  1211                           
  1212                           ; BSR set to: 0
  1213                           ;ornek3.c: 319:         LATBbits.LATB0 = 1;
  1214  0012E8  808A               	bsf	138,0,c	;volatile
  1215                           
  1216                           ; BSR set to: 0
  1217                           ;ornek3.c: 320:         ( (sure_t*) &s5 )->kacTik = (5u / (1000u / 1000u)); ( (sure_t*) 
      +                          &s5 )->baslangic = tikSayiminiAl(); ( (gorev_t*) tutucu )->sn = 320; case 320:; if(!(( (
      +                          tikSayiminiAl() - ( (sure_t*) &s5 )->baslangic) >= ( (sure_t*) &s5 )->kacTik ))){ return
      +                           0; };
  1218  0012EA  0E00               	movlw	0
  1219  0012EC  6E04               	movwf	(gostergeGuncelle@s5+3)^0,c
  1220  0012EE  0E05               	movlw	5
  1221  0012F0  6E03               	movwf	(gostergeGuncelle@s5+2)^0,c
  1222                           
  1223                           ; BSR set to: 0
  1224  0012F2  ECD7  F00D         	call	_tikSayiminiAl	;wreg free
  1225  0012F6  C049  F001         	movff	?_tikSayiminiAl,gostergeGuncelle@s5
  1226  0012FA  C04A  F002         	movff	?_tikSayiminiAl+1,gostergeGuncelle@s5+1
  1227  0012FE  C090  FFD9         	movff	gostergeGuncelle@tutucu,fsr2l
  1228  001302  C091  FFDA         	movff	gostergeGuncelle@tutucu+1,fsr2h
  1229  001306  0E40               	movlw	64
  1230  001308  6EDE               	movwf	postinc2,c
  1231  00130A  0E01               	movlw	1
  1232  00130C  6EDD               	movwf	postdec2,c
  1233  00130E                     l3033:
  1234  00130E  ECD7  F00D         	call	_tikSayiminiAl	;wreg free
  1235  001312  5001               	movf	gostergeGuncelle@s5^0,w,c
  1236  001314  5E49               	subwf	?_tikSayiminiAl^0,f,c
  1237  001316  5002               	movf	(gostergeGuncelle@s5+1)^0,w,c
  1238  001318  5A4A               	subwfb	(?_tikSayiminiAl+1)^0,f,c
  1239  00131A  5003               	movf	(gostergeGuncelle@s5+2)^0,w,c
  1240  00131C  5C49               	subwf	?_tikSayiminiAl^0,w,c
  1241  00131E  5004               	movf	(gostergeGuncelle@s5+3)^0,w,c
  1242  001320  584A               	subwfb	(?_tikSayiminiAl+1)^0,w,c
  1243  001322  B0D8               	btfsc	status,0,c
  1244  001324  D002               	goto	l3039
  1245  001326                     u1870:
  1246  001326  0E00               	movlw	0
  1247  001328  0012               	return	
  1248  00132A                     l3039:
  1249                           
  1250                           ;ornek3.c: 323:         if( (gosterge[3] != 0 || gosterge[2] != 0) || gosterge[1] != 0){
  1251  00132A  5018               	movf	(_gosterge+3)^0,w,c
  1252  00132C  A4D8               	btfss	status,2,c
  1253  00132E  D006               	goto	u1900
  1254  001330  5017               	movf	(_gosterge+2)^0,w,c
  1255  001332  A4D8               	btfss	status,2,c
  1256  001334  D003               	goto	u1900
  1257  001336  5016               	movf	(_gosterge+1)^0,w,c
  1258  001338  B4D8               	btfsc	status,2,c
  1259  00133A  D02D               	goto	l3063
  1260  00133C                     u1900:
  1261                           
  1262                           ;ornek3.c: 324:             LATB &= 0xF0;
  1263  00133C  0EF0               	movlw	240
  1264  00133E  168A               	andwf	138,f,c	;volatile
  1265                           
  1266                           ;ornek3.c: 325:             LATC = BCDdenOrtakAnoda[gosterge[1]];
  1267  001340  5016               	movf	(_gosterge+1)^0,w,c
  1268  001342  0F01               	addlw	low gostergeGuncelle@BCDdenOrtakAnoda
  1269  001344  0100               	movlb	0	; () banked
  1270  001346  6F92               	movwf	??_gostergeGuncelle& (0+255),b
  1271  001348  C092  FFF6         	movff	??_gostergeGuncelle,tblptrl
  1272  00134C                     	if	1	;There is more than 1 active tblptr byte
  1273  00134C  0E10               	movlw	high __smallconst
  1274  00134E  6EF7               	movwf	tblptrh,c
  1275  001350                     	endif
  1276  001350                     	if	1	;Program memory is < 0x10000, tblptru is always zero
  1277  001350  6AF8               	clrf	tblptru,c
  1278  001352                     	endif
  1279  001352                     	if	0	;tblptru may be non-zero
  1280  001352                     	endif
  1281  001352  0008               	tblrd		*
  1282  001354  CFF5 FF8B          	movff	tablat,3979	;volatile
  1283                           
  1284                           ; BSR set to: 0
  1285                           ;ornek3.c: 326:             LATBbits.LATB1 = 1;
  1286  001358  828A               	bsf	138,1,c	;volatile
  1287                           
  1288                           ; BSR set to: 0
  1289                           ;ornek3.c: 327:             ( (sure_t*) &s5 )->kacTik = (5u / (1000u / 1000u)); ( (sure_
      +                          t*) &s5 )->baslangic = tikSayiminiAl(); ( (gorev_t*) tutucu )->sn = 327; case 327:; if(!
      +                          (( (tikSayiminiAl() - ( (sure_t*) &s5 )->baslangic) >= ( (sure_t*) &s5 )->kacTik ))){ re
      +                          turn 0; };
  1290  00135A  0E00               	movlw	0
  1291  00135C  6E04               	movwf	(gostergeGuncelle@s5+3)^0,c
  1292  00135E  0E05               	movlw	5
  1293  001360  6E03               	movwf	(gostergeGuncelle@s5+2)^0,c
  1294                           
  1295                           ; BSR set to: 0
  1296  001362  ECD7  F00D         	call	_tikSayiminiAl	;wreg free
  1297  001366  C049  F001         	movff	?_tikSayiminiAl,gostergeGuncelle@s5
  1298  00136A  C04A  F002         	movff	?_tikSayiminiAl+1,gostergeGuncelle@s5+1
  1299  00136E  C090  FFD9         	movff	gostergeGuncelle@tutucu,fsr2l
  1300  001372  C091  FFDA         	movff	gostergeGuncelle@tutucu+1,fsr2h
  1301  001376  0E47               	movlw	71
  1302  001378  6EDE               	movwf	postinc2,c
  1303  00137A  0E01               	movlw	1
  1304  00137C  6EDD               	movwf	postdec2,c
  1305  00137E                     l3057:
  1306  00137E  ECD7  F00D         	call	_tikSayiminiAl	;wreg free
  1307  001382  5001               	movf	gostergeGuncelle@s5^0,w,c
  1308  001384  5E49               	subwf	?_tikSayiminiAl^0,f,c
  1309  001386  5002               	movf	(gostergeGuncelle@s5+1)^0,w,c
  1310  001388  5A4A               	subwfb	(?_tikSayiminiAl+1)^0,f,c
  1311  00138A  5003               	movf	(gostergeGuncelle@s5+2)^0,w,c
  1312  00138C  5C49               	subwf	?_tikSayiminiAl^0,w,c
  1313  00138E  5004               	movf	(gostergeGuncelle@s5+3)^0,w,c
  1314  001390  584A               	subwfb	(?_tikSayiminiAl+1)^0,w,c
  1315  001392  A0D8               	btfss	status,0,c
  1316  001394  D7C8               	goto	u1870
  1317  001396                     l3063:
  1318                           
  1319                           ;ornek3.c: 331:         if(gosterge[3] != 0 || gosterge[2] != 0){
  1320  001396  5018               	movf	(_gosterge+3)^0,w,c
  1321  001398  A4D8               	btfss	status,2,c
  1322  00139A  D003               	goto	u1930
  1323  00139C  5017               	movf	(_gosterge+2)^0,w,c
  1324  00139E  B4D8               	btfsc	status,2,c
  1325  0013A0  D02D               	goto	l3085
  1326  0013A2                     u1930:
  1327                           
  1328                           ;ornek3.c: 332:             LATB &= 0xF0;
  1329  0013A2  0EF0               	movlw	240
  1330  0013A4  168A               	andwf	138,f,c	;volatile
  1331                           
  1332                           ;ornek3.c: 333:             LATC = BCDdenOrtakAnoda[gosterge[2]];
  1333  0013A6  5017               	movf	(_gosterge+2)^0,w,c
  1334  0013A8  0F01               	addlw	low gostergeGuncelle@BCDdenOrtakAnoda
  1335  0013AA  0100               	movlb	0	; () banked
  1336  0013AC  6F92               	movwf	??_gostergeGuncelle& (0+255),b
  1337  0013AE  C092  FFF6         	movff	??_gostergeGuncelle,tblptrl
  1338  0013B2                     	if	1	;There is more than 1 active tblptr byte
  1339  0013B2  0E10               	movlw	high __smallconst
  1340  0013B4  6EF7               	movwf	tblptrh,c
  1341  0013B6                     	endif
  1342  0013B6                     	if	1	;Program memory is < 0x10000, tblptru is always zero
  1343  0013B6  6AF8               	clrf	tblptru,c
  1344  0013B8                     	endif
  1345  0013B8                     	if	0	;tblptru may be non-zero
  1346  0013B8                     	endif
  1347  0013B8  0008               	tblrd		*
  1348  0013BA  CFF5 FF8B          	movff	tablat,3979	;volatile
  1349                           
  1350                           ; BSR set to: 0
  1351                           ;ornek3.c: 334:             LATBbits.LATB2 = 1;
  1352  0013BE  848A               	bsf	138,2,c	;volatile
  1353                           
  1354                           ; BSR set to: 0
  1355                           ;ornek3.c: 335:             ( (sure_t*) &s5 )->kacTik = (5u / (1000u / 1000u)); ( (sure_
      +                          t*) &s5 )->baslangic = tikSayiminiAl(); ( (gorev_t*) tutucu )->sn = 335; case 335:; if(!
      +                          (( (tikSayiminiAl() - ( (sure_t*) &s5 )->baslangic) >= ( (sure_t*) &s5 )->kacTik ))){ re
      +                          turn 0; };
  1356  0013C0  0E00               	movlw	0
  1357  0013C2  6E04               	movwf	(gostergeGuncelle@s5+3)^0,c
  1358  0013C4  0E05               	movlw	5
  1359  0013C6  6E03               	movwf	(gostergeGuncelle@s5+2)^0,c
  1360                           
  1361                           ; BSR set to: 0
  1362  0013C8  ECD7  F00D         	call	_tikSayiminiAl	;wreg free
  1363  0013CC  C049  F001         	movff	?_tikSayiminiAl,gostergeGuncelle@s5
  1364  0013D0  C04A  F002         	movff	?_tikSayiminiAl+1,gostergeGuncelle@s5+1
  1365  0013D4  C090  FFD9         	movff	gostergeGuncelle@tutucu,fsr2l
  1366  0013D8  C091  FFDA         	movff	gostergeGuncelle@tutucu+1,fsr2h
  1367  0013DC  0E4F               	movlw	79
  1368  0013DE  6EDE               	movwf	postinc2,c
  1369  0013E0  0E01               	movlw	1
  1370  0013E2  6EDD               	movwf	postdec2,c
  1371  0013E4                     l3079:
  1372  0013E4  ECD7  F00D         	call	_tikSayiminiAl	;wreg free
  1373  0013E8  5001               	movf	gostergeGuncelle@s5^0,w,c
  1374  0013EA  5E49               	subwf	?_tikSayiminiAl^0,f,c
  1375  0013EC  5002               	movf	(gostergeGuncelle@s5+1)^0,w,c
  1376  0013EE  5A4A               	subwfb	(?_tikSayiminiAl+1)^0,f,c
  1377  0013F0  5003               	movf	(gostergeGuncelle@s5+2)^0,w,c
  1378  0013F2  5C49               	subwf	?_tikSayiminiAl^0,w,c
  1379  0013F4  5004               	movf	(gostergeGuncelle@s5+3)^0,w,c
  1380  0013F6  584A               	subwfb	(?_tikSayiminiAl+1)^0,w,c
  1381  0013F8  A0D8               	btfss	status,0,c
  1382  0013FA  D795               	goto	u1870
  1383  0013FC                     l3085:
  1384                           
  1385                           ;ornek3.c: 339:         if(gosterge[3] != 0){
  1386  0013FC  5018               	movf	(_gosterge+3)^0,w,c
  1387  0013FE  B4D8               	btfsc	status,2,c
  1388  001400  D765               	goto	l3021
  1389                           
  1390                           ;ornek3.c: 340:             LATB &= 0xF0;
  1391  001402  0EF0               	movlw	240
  1392  001404  168A               	andwf	138,f,c	;volatile
  1393                           
  1394                           ;ornek3.c: 341:             LATC = BCDdenOrtakAnoda[gosterge[3]];
  1395  001406  5018               	movf	(_gosterge+3)^0,w,c
  1396  001408  0F01               	addlw	low gostergeGuncelle@BCDdenOrtakAnoda
  1397  00140A  0100               	movlb	0	; () banked
  1398  00140C  6F92               	movwf	??_gostergeGuncelle& (0+255),b
  1399  00140E  C092  FFF6         	movff	??_gostergeGuncelle,tblptrl
  1400  001412                     	if	1	;There is more than 1 active tblptr byte
  1401  001412  0E10               	movlw	high __smallconst
  1402  001414  6EF7               	movwf	tblptrh,c
  1403  001416                     	endif
  1404  001416                     	if	1	;Program memory is < 0x10000, tblptru is always zero
  1405  001416  6AF8               	clrf	tblptru,c
  1406  001418                     	endif
  1407  001418                     	if	0	;tblptru may be non-zero
  1408  001418                     	endif
  1409  001418  0008               	tblrd		*
  1410  00141A  CFF5 FF8B          	movff	tablat,3979	;volatile
  1411                           
  1412                           ; BSR set to: 0
  1413                           ;ornek3.c: 342:             LATBbits.LATB3 = 1;
  1414  00141E  868A               	bsf	138,3,c	;volatile
  1415                           
  1416                           ; BSR set to: 0
  1417                           ;ornek3.c: 343:             ( (sure_t*) &s5 )->kacTik = (5u / (1000u / 1000u)); ( (sure_
      +                          t*) &s5 )->baslangic = tikSayiminiAl(); ( (gorev_t*) tutucu )->sn = 343; case 343:; if(!
      +                          (( (tikSayiminiAl() - ( (sure_t*) &s5 )->baslangic) >= ( (sure_t*) &s5 )->kacTik ))){ re
      +                          turn 0; };
  1418  001420  0E00               	movlw	0
  1419  001422  6E04               	movwf	(gostergeGuncelle@s5+3)^0,c
  1420  001424  0E05               	movlw	5
  1421  001426  6E03               	movwf	(gostergeGuncelle@s5+2)^0,c
  1422                           
  1423                           ; BSR set to: 0
  1424  001428  ECD7  F00D         	call	_tikSayiminiAl	;wreg free
  1425  00142C  C049  F001         	movff	?_tikSayiminiAl,gostergeGuncelle@s5
  1426  001430  C04A  F002         	movff	?_tikSayiminiAl+1,gostergeGuncelle@s5+1
  1427  001434  C090  FFD9         	movff	gostergeGuncelle@tutucu,fsr2l
  1428  001438  C091  FFDA         	movff	gostergeGuncelle@tutucu+1,fsr2h
  1429  00143C  0E57               	movlw	87
  1430  00143E  6EDE               	movwf	postinc2,c
  1431  001440  0E01               	movlw	1
  1432  001442  6EDD               	movwf	postdec2,c
  1433  001444                     l3099:
  1434  001444  ECD7  F00D         	call	_tikSayiminiAl	;wreg free
  1435  001448  5001               	movf	gostergeGuncelle@s5^0,w,c
  1436  00144A  5E49               	subwf	?_tikSayiminiAl^0,f,c
  1437  00144C  5002               	movf	(gostergeGuncelle@s5+1)^0,w,c
  1438  00144E  5A4A               	subwfb	(?_tikSayiminiAl+1)^0,f,c
  1439  001450  5003               	movf	(gostergeGuncelle@s5+2)^0,w,c
  1440  001452  5C49               	subwf	?_tikSayiminiAl^0,w,c
  1441  001454  5004               	movf	(gostergeGuncelle@s5+3)^0,w,c
  1442  001456  584A               	subwfb	(?_tikSayiminiAl+1)^0,w,c
  1443  001458  A0D8               	btfss	status,0,c
  1444  00145A  D765               	goto	u1870
  1445  00145C  D737               	goto	l3021
  1446  00145E                     l3109:
  1447                           
  1448                           ; BSR set to: 0
  1449  00145E  0E02               	movlw	2
  1450  001460  0012               	return	
  1451  001462                     l3115:
  1452                           
  1453                           ; BSR set to: 0
  1454  001462  C090  FFD9         	movff	gostergeGuncelle@tutucu,fsr2l
  1455  001466  C091  FFDA         	movff	gostergeGuncelle@tutucu+1,fsr2h
  1456  00146A  CFDE F092          	movff	postinc2,??_gostergeGuncelle
  1457  00146E  CFDD F093          	movff	postdec2,??_gostergeGuncelle+1
  1458                           
  1459                           ; Switch on 2 bytes has been partitioned into a top level switch of size 1, and 2 sub-sw
      +                          itches
  1460                           ; Switch size 1, requested type "simple"
  1461                           ; Number of cases is 2, Range of values is 0 to 1
  1462                           ; switch strategies available:
  1463                           ; Name         Instructions Cycles
  1464                           ; simple_byte            7     4 (average)
  1465                           ;	Chosen strategy is simple_byte
  1466  001472  5193               	movf	(??_gostergeGuncelle+1)& (0+255),w,b
  1467  001474  0A00               	xorlw	0	; case 0
  1468  001476  B4D8               	btfsc	status,2,c
  1469  001478  D004               	goto	l3399
  1470  00147A  0A01               	xorlw	1	; case 1
  1471  00147C  B4D8               	btfsc	status,2,c
  1472  00147E  D006               	goto	l3401
  1473  001480  D015               	goto	l3117
  1474  001482                     l3399:
  1475                           
  1476                           ; BSR set to: 0
  1477                           ; Switch size 1, requested type "simple"
  1478                           ; Number of cases is 1, Range of values is 0 to 0
  1479                           ; switch strategies available:
  1480                           ; Name         Instructions Cycles
  1481                           ; simple_byte            4     3 (average)
  1482                           ;	Chosen strategy is simple_byte
  1483  001482  5192               	movf	??_gostergeGuncelle& (0+255),w,b
  1484  001484  0A00               	xorlw	0	; case 0
  1485  001486  B4D8               	btfsc	status,2,c
  1486  001488  D714               	goto	l3019
  1487  00148A  D010               	goto	l3117
  1488  00148C                     l3401:
  1489                           
  1490                           ; BSR set to: 0
  1491                           ; Switch size 1, requested type "simple"
  1492                           ; Number of cases is 5, Range of values is 64 to 92
  1493                           ; switch strategies available:
  1494                           ; Name         Instructions Cycles
  1495                           ; simple_byte           16     9 (average)
  1496                           ;	Chosen strategy is simple_byte
  1497  00148C  5192               	movf	??_gostergeGuncelle& (0+255),w,b
  1498  00148E  0A40               	xorlw	64	; case 64
  1499  001490  B4D8               	btfsc	status,2,c
  1500  001492  D73D               	goto	l3033
  1501  001494  0A07               	xorlw	7	; case 71
  1502  001496  B4D8               	btfsc	status,2,c
  1503  001498  D772               	goto	l3057
  1504  00149A  0A08               	xorlw	8	; case 79
  1505  00149C  B4D8               	btfsc	status,2,c
  1506  00149E  D7A2               	goto	l3079
  1507  0014A0  0A18               	xorlw	24	; case 87
  1508  0014A2  B4D8               	btfsc	status,2,c
  1509  0014A4  D7CF               	goto	l3099
  1510  0014A6  0A0B               	xorlw	11	; case 92
  1511  0014A8  B4D8               	btfsc	status,2,c
  1512  0014AA  D7D9               	goto	l3109
  1513  0014AC                     l3117:
  1514                           
  1515                           ; BSR set to: 0
  1516  0014AC  0E01               	movlw	1
  1517  0014AE  0012               	return		;funcret
  1518  0014B0                     __end_of_gostergeGuncelle:
  1519                           	callstack 0
  1520                           
  1521 ;; *************** function _gostergeDegeriGuncelle *****************
  1522 ;; Defined at:
  1523 ;;		line 240 in file "ornek3.c"
  1524 ;; Parameters:    Size  Location     Type
  1525 ;;  tutucu          2    0[BANK0 ] PTR void 
  1526 ;;		 -> gorevHeap(32), NULL(0), 
  1527 ;; Auto vars:     Size  Location     Type
  1528 ;;  olcekliDeger    2    5[BANK0 ] unsigned short 
  1529 ;;  VAZGECIS_BAY    1    0        unsigned char 
  1530 ;; Return value:  Size  Location     Type
  1531 ;;                  1    wreg      unsigned char 
  1532 ;; Registers used:
  1533 ;;		wreg, fsr2l, fsr2h, status,2, status,0, cstack
  1534 ;; Tracked objects:
  1535 ;;		On entry : 3F/0
  1536 ;;		On exit  : 3F/0
  1537 ;;		Unchanged: 0/0
  1538 ;; Data sizes:     COMRAM   BANK0   BANK1   BANK2   BANK3   BANK4   BANK5   BANK6   BANK7   BANK8   BANK9  BANK10  BANK1
      +1  BANK12  BANK13  BANK14  BANK15
  1539 ;;      Params:         0       2       0       0       0       0       0       0       0       0       0       0       
      +0       0       0       0       0
  1540 ;;      Locals:         0       3       0       0       0       0       0       0       0       0       0       0       
      +0       0       0       0       0
  1541 ;;      Temps:          0       2       0       0       0       0       0       0       0       0       0       0       
      +0       0       0       0       0
  1542 ;;      Totals:         0       7       0       0       0       0       0       0       0       0       0       0       
      +0       0       0       0       0
  1543 ;;Total ram usage:        7 bytes
  1544 ;; Hardware stack levels used:    1
  1545 ;; Hardware stack levels required when called:    4
  1546 ;; This function calls:
  1547 ;;		___lwdiv
  1548 ;; This function is called by:
  1549 ;;		_main
  1550 ;;		_gorevciyiBaslat
  1551 ;; This function uses a non-reentrant model
  1552 ;;
  1553                           
  1554                           	psect	text9
  1555  00171A                     __ptext9:
  1556                           	callstack 0
  1557  00171A                     _gostergeDegeriGuncelle:
  1558                           	callstack 24
  1559                           
  1560                           ; BSR set to: 0
  1561                           
  1562                           ;incstack = 0
  1563  00171A  D056               	goto	l2999
  1564  00171C                     l2951:
  1565                           
  1566                           ; BSR set to: 0
  1567                           ;ornek3.c: 254:         ( (gorev_t*) tutucu )->sn = 254; case 254:; if(!(karasimsekHiziO
      +                          kundu == 1)){ return 0; };
  1568  00171C  C090  FFD9         	movff	gostergeDegeriGuncelle@tutucu,fsr2l
  1569  001720  C091  FFDA         	movff	gostergeDegeriGuncelle@tutucu+1,fsr2h
  1570  001724  0EFE               	movlw	254
  1571  001726  6EDE               	movwf	postinc2,c
  1572  001728  0E00               	movlw	0
  1573  00172A  6EDD               	movwf	postdec2,c
  1574  00172C                     l2953:
  1575                           
  1576                           ; BSR set to: 0
  1577  00172C  042D               	decf	_karasimsekHiziOkundu^0,w,c
  1578  00172E  B4D8               	btfsc	status,2,c
  1579  001730  D002               	goto	l2959
  1580                           
  1581                           ; BSR set to: 0
  1582  001732  0E00               	movlw	0
  1583  001734  0012               	return	
  1584  001736                     l2959:
  1585                           
  1586                           ; BSR set to: 0
  1587                           ;ornek3.c: 255:         karasimsekHiziOkundu = 0;
  1588  001736  0E00               	movlw	0
  1589  001738  6E2D               	movwf	_karasimsekHiziOkundu^0,c
  1590                           
  1591                           ; BSR set to: 0
  1592                           ;ornek3.c: 257:         uint16_t olcekliDeger = (uint16_t) (gercekDeger / (uint8_t) ((10
      +                          24u - 0u) / (214u - 10u)));
  1593  00173A  C01D  F049         	movff	_gercekDeger,___lwdiv@dividend
  1594  00173E  C01E  F04A         	movff	_gercekDeger+1,___lwdiv@dividend+1
  1595  001742  0E00               	movlw	0
  1596  001744  6E4C               	movwf	(___lwdiv@divisor+1)^0,c
  1597  001746  0E05               	movlw	5
  1598  001748  6E4B               	movwf	___lwdiv@divisor^0,c
  1599  00174A  EC2F  F00D         	call	___lwdiv	;wreg free
  1600  00174E  C049  F095         	movff	?___lwdiv,gostergeDegeriGuncelle@olcekliDeger
  1601  001752  C04A  F096         	movff	?___lwdiv+1,gostergeDegeriGuncelle@olcekliDeger+1
  1602                           
  1603                           ; BSR set to: 0
  1604                           ;ornek3.c: 259:         if(olcekliDeger < 10u) {
  1605  001756  5196               	movf	(gostergeDegeriGuncelle@olcekliDeger+1)& (0+255),w,b
  1606  001758  E108               	bnz	l326
  1607  00175A  0E0A               	movlw	10
  1608  00175C  5D95               	subwf	gostergeDegeriGuncelle@olcekliDeger& (0+255),w,b
  1609  00175E  B0D8               	btfsc	status,0,c
  1610  001760  D004               	goto	l326
  1611                           
  1612                           ; BSR set to: 0
  1613                           ;ornek3.c: 260:             olcekliDeger = 10u;
  1614  001762  0E00               	movlw	0
  1615  001764  6F96               	movwf	(gostergeDegeriGuncelle@olcekliDeger+1)& (0+255),b
  1616  001766  0E0A               	movlw	10
  1617  001768  6F95               	movwf	gostergeDegeriGuncelle@olcekliDeger& (0+255),b
  1618  00176A                     l326:
  1619                           
  1620                           ; BSR set to: 0
  1621                           ;ornek3.c: 262:         gosterge[3] = 0;
  1622  00176A  0E00               	movlw	0
  1623  00176C  6E18               	movwf	(_gosterge+3)^0,c
  1624                           
  1625                           ;ornek3.c: 263:         while(olcekliDeger > 999){
  1626  00176E  D005               	goto	l2971
  1627  001770                     l2967:
  1628                           
  1629                           ; BSR set to: 0
  1630                           ;ornek3.c: 264:             olcekliDeger -= 1000;
  1631  001770  0EE8               	movlw	232
  1632  001772  5F95               	subwf	gostergeDegeriGuncelle@olcekliDeger& (0+255),f,b
  1633  001774  0E03               	movlw	3
  1634  001776  5B96               	subwfb	(gostergeDegeriGuncelle@olcekliDeger+1)& (0+255),f,b
  1635                           
  1636                           ; BSR set to: 0
  1637                           ;ornek3.c: 265:             gosterge[3]++;
  1638  001778  2A18               	incf	(_gosterge+3)^0,f,c
  1639  00177A                     l2971:
  1640                           
  1641                           ; BSR set to: 0
  1642                           ;ornek3.c: 263:         while(olcekliDeger > 999){
  1643  00177A  0EE8               	movlw	232
  1644  00177C  5D95               	subwf	gostergeDegeriGuncelle@olcekliDeger& (0+255),w,b
  1645  00177E  0E03               	movlw	3
  1646  001780  5996               	subwfb	(gostergeDegeriGuncelle@olcekliDeger+1)& (0+255),w,b
  1647  001782  B0D8               	btfsc	status,0,c
  1648  001784  D7F5               	goto	l2967
  1649                           
  1650                           ; BSR set to: 0
  1651                           ;ornek3.c: 267:         gosterge[2] = 0;
  1652  001786  0E00               	movlw	0
  1653  001788  6E17               	movwf	(_gosterge+2)^0,c
  1654                           
  1655                           ;ornek3.c: 268:         while(olcekliDeger > 99){
  1656  00178A  D005               	goto	l2979
  1657  00178C                     l2975:
  1658                           
  1659                           ; BSR set to: 0
  1660                           ;ornek3.c: 269:             olcekliDeger -= 100;
  1661  00178C  0E64               	movlw	100
  1662  00178E  5F95               	subwf	gostergeDegeriGuncelle@olcekliDeger& (0+255),f,b
  1663  001790  0E00               	movlw	0
  1664  001792  5B96               	subwfb	(gostergeDegeriGuncelle@olcekliDeger+1)& (0+255),f,b
  1665                           
  1666                           ; BSR set to: 0
  1667                           ;ornek3.c: 270:             gosterge[2]++;
  1668  001794  2A17               	incf	(_gosterge+2)^0,f,c
  1669  001796                     l2979:
  1670                           
  1671                           ; BSR set to: 0
  1672                           ;ornek3.c: 268:         while(olcekliDeger > 99){
  1673  001796  5196               	movf	(gostergeDegeriGuncelle@olcekliDeger+1)& (0+255),w,b
  1674  001798  E1F9               	bnz	l2975
  1675  00179A  0E64               	movlw	100
  1676  00179C  5D95               	subwf	gostergeDegeriGuncelle@olcekliDeger& (0+255),w,b
  1677  00179E  B0D8               	btfsc	status,0,c
  1678  0017A0  D7F5               	goto	l2975
  1679                           
  1680                           ; BSR set to: 0
  1681                           ;ornek3.c: 272:         gosterge[1] = 0;
  1682  0017A2  0E00               	movlw	0
  1683  0017A4  6E16               	movwf	(_gosterge+1)^0,c
  1684                           
  1685                           ;ornek3.c: 273:         while(olcekliDeger > 9){
  1686  0017A6  D005               	goto	l2987
  1687  0017A8                     l2983:
  1688                           
  1689                           ; BSR set to: 0
  1690                           ;ornek3.c: 274:             olcekliDeger -= 10;
  1691  0017A8  0E0A               	movlw	10
  1692  0017AA  5F95               	subwf	gostergeDegeriGuncelle@olcekliDeger& (0+255),f,b
  1693  0017AC  0E00               	movlw	0
  1694  0017AE  5B96               	subwfb	(gostergeDegeriGuncelle@olcekliDeger+1)& (0+255),f,b
  1695                           
  1696                           ; BSR set to: 0
  1697                           ;ornek3.c: 275:             gosterge[1]++;
  1698  0017B0  2A16               	incf	(_gosterge+1)^0,f,c
  1699  0017B2                     l2987:
  1700                           
  1701                           ; BSR set to: 0
  1702                           ;ornek3.c: 273:         while(olcekliDeger > 9){
  1703  0017B2  5196               	movf	(gostergeDegeriGuncelle@olcekliDeger+1)& (0+255),w,b
  1704  0017B4  E1F9               	bnz	l2983
  1705  0017B6  0E0A               	movlw	10
  1706  0017B8  5D95               	subwf	gostergeDegeriGuncelle@olcekliDeger& (0+255),w,b
  1707  0017BA  B0D8               	btfsc	status,0,c
  1708  0017BC  D7F5               	goto	l2983
  1709                           
  1710                           ; BSR set to: 0
  1711                           ;ornek3.c: 277:         gosterge[0] = (char)(olcekliDeger &0xFF);
  1712  0017BE  C095  F015         	movff	gostergeDegeriGuncelle@olcekliDeger,_gosterge
  1713  0017C2  D7AC               	goto	l2951
  1714  0017C4                     l2993:
  1715                           
  1716                           ; BSR set to: 0
  1717  0017C4  0E02               	movlw	2
  1718  0017C6  0012               	return	
  1719  0017C8                     l2999:
  1720                           
  1721                           ; BSR set to: 0
  1722  0017C8  C090  FFD9         	movff	gostergeDegeriGuncelle@tutucu,fsr2l
  1723  0017CC  C091  FFDA         	movff	gostergeDegeriGuncelle@tutucu+1,fsr2h
  1724  0017D0  CFDE F092          	movff	postinc2,??_gostergeDegeriGuncelle
  1725  0017D4  CFDD F093          	movff	postdec2,??_gostergeDegeriGuncelle+1
  1726                           
  1727                           ; Switch on 2 bytes has been partitioned into a top level switch of size 1, and 2 sub-sw
      +                          itches
  1728                           ; Switch size 1, requested type "simple"
  1729                           ; Number of cases is 2, Range of values is 0 to 1
  1730                           ; switch strategies available:
  1731                           ; Name         Instructions Cycles
  1732                           ; simple_byte            7     4 (average)
  1733                           ;	Chosen strategy is simple_byte
  1734  0017D8  5193               	movf	(??_gostergeDegeriGuncelle+1)& (0+255),w,b
  1735  0017DA  0A00               	xorlw	0	; case 0
  1736  0017DC  B4D8               	btfsc	status,2,c
  1737  0017DE  D004               	goto	l3403
  1738  0017E0  0A01               	xorlw	1	; case 1
  1739  0017E2  B4D8               	btfsc	status,2,c
  1740  0017E4  D009               	goto	l3405
  1741  0017E6  D00C               	goto	l3001
  1742  0017E8                     l3403:
  1743                           
  1744                           ; BSR set to: 0
  1745                           ; Switch size 1, requested type "simple"
  1746                           ; Number of cases is 2, Range of values is 0 to 254
  1747                           ; switch strategies available:
  1748                           ; Name         Instructions Cycles
  1749                           ; simple_byte            7     4 (average)
  1750                           ;	Chosen strategy is simple_byte
  1751  0017E8  5192               	movf	??_gostergeDegeriGuncelle& (0+255),w,b
  1752  0017EA  0A00               	xorlw	0	; case 0
  1753  0017EC  B4D8               	btfsc	status,2,c
  1754  0017EE  D796               	goto	l2951
  1755  0017F0  0AFE               	xorlw	254	; case 254
  1756  0017F2  B4D8               	btfsc	status,2,c
  1757  0017F4  D79B               	goto	l2953
  1758  0017F6  D004               	goto	l3001
  1759  0017F8                     l3405:
  1760                           
  1761                           ; BSR set to: 0
  1762                           ; Switch size 1, requested type "simple"
  1763                           ; Number of cases is 1, Range of values is 23 to 23
  1764                           ; switch strategies available:
  1765                           ; Name         Instructions Cycles
  1766                           ; simple_byte            4     3 (average)
  1767                           ;	Chosen strategy is simple_byte
  1768  0017F8  5192               	movf	??_gostergeDegeriGuncelle& (0+255),w,b
  1769  0017FA  0A17               	xorlw	23	; case 23
  1770  0017FC  B4D8               	btfsc	status,2,c
  1771  0017FE  D7E2               	goto	l2993
  1772  001800                     l3001:
  1773                           
  1774                           ; BSR set to: 0
  1775  001800  0E01               	movlw	1
  1776                           
  1777                           ; BSR set to: 0
  1778  001802  0012               	return		;funcret
  1779  001804                     __end_of_gostergeDegeriGuncelle:
  1780                           	callstack 0
  1781                           
  1782 ;; *************** function _karaSimsekHiziOkuma *****************
  1783 ;; Defined at:
  1784 ;;		line 190 in file "ornek3.c"
  1785 ;; Parameters:    Size  Location     Type
  1786 ;;  tutucu          2    0[BANK0 ] PTR void 
  1787 ;;		 -> gorevHeap(32), NULL(0), 
  1788 ;; Auto vars:     Size  Location     Type
  1789 ;;  sonuc           2    5[BANK0 ] unsigned short 
  1790 ;;  VAZGECIS_BAY    1    0        unsigned char 
  1791 ;; Return value:  Size  Location     Type
  1792 ;;                  1    wreg      unsigned char 
  1793 ;; Registers used:
  1794 ;;		wreg, fsr2l, fsr2h, status,2, status,0, cstack
  1795 ;; Tracked objects:
  1796 ;;		On entry : 3F/0
  1797 ;;		On exit  : 0/0
  1798 ;;		Unchanged: 0/0
  1799 ;; Data sizes:     COMRAM   BANK0   BANK1   BANK2   BANK3   BANK4   BANK5   BANK6   BANK7   BANK8   BANK9  BANK10  BANK1
      +1  BANK12  BANK13  BANK14  BANK15
  1800 ;;      Params:         0       2       0       0       0       0       0       0       0       0       0       0       
      +0       0       0       0       0
  1801 ;;      Locals:         0       3       0       0       0       0       0       0       0       0       0       0       
      +0       0       0       0       0
  1802 ;;      Temps:          0       2       0       0       0       0       0       0       0       0       0       0       
      +0       0       0       0       0
  1803 ;;      Totals:         0       7       0       0       0       0       0       0       0       0       0       0       
      +0       0       0       0       0
  1804 ;;Total ram usage:        7 bytes
  1805 ;; Hardware stack levels used:    1
  1806 ;; Hardware stack levels required when called:    4
  1807 ;; This function calls:
  1808 ;;		___lwdiv
  1809 ;;		_tikSayiminiAl
  1810 ;; This function is called by:
  1811 ;;		_main
  1812 ;;		_gorevciyiBaslat
  1813 ;; This function uses a non-reentrant model
  1814 ;;
  1815                           
  1816                           	psect	text10
  1817  001606                     __ptext10:
  1818                           	callstack 0
  1819  001606                     _karaSimsekHiziOkuma:
  1820                           	callstack 24
  1821                           
  1822                           ; BSR set to: 0
  1823                           
  1824                           ; BSR set to: 0
  1825                           ;incstack = 0
  1826  001606  D06E               	goto	l2937
  1827  001608                     l301:
  1828                           
  1829                           ; BSR set to: 0
  1830                           ;ornek3.c: 194:     static sure_t s4;;ornek3.c: 195:     static uint16_t oncekiSonuc = 0
      +                          ;;ornek3.c: 198:     PIE1bits.ADIE = 0;
  1831  001608  9C9D               	bcf	157,6,c	;volatile
  1832                           
  1833                           ;ornek3.c: 199:     PIR1bits.ADIF = 0;
  1834  00160A  9C9E               	bcf	158,6,c	;volatile
  1835                           
  1836                           ; BSR set to: 0
  1837                           ;ornek3.c: 200:     ADCON2 = 0xAF;
  1838  00160C  0EAF               	movlw	175
  1839  00160E  6EC0               	movwf	192,c	;volatile
  1840                           
  1841                           ;ornek3.c: 201:     ADCON1 = 0;
  1842  001610  0E00               	movlw	0
  1843  001612  6EC1               	movwf	193,c	;volatile
  1844                           
  1845                           ; BSR set to: 0
  1846                           ;ornek3.c: 202:     TRISAbits.TRISA0 = 1;
  1847  001614  8092               	bsf	146,0,c	;volatile
  1848                           
  1849                           ; BSR set to: 0
  1850                           ;ornek3.c: 203:     ADCON0bits.ADON = 1;
  1851  001616  80C2               	bsf	194,0,c	;volatile
  1852  001618                     l2885:
  1853                           
  1854                           ;ornek3.c: 207:         ADCON0bits.GO = 1;
  1855  001618  82C2               	bsf	194,1,c	;volatile
  1856                           
  1857                           ;ornek3.c: 209:         ( (gorev_t*) (tutucu) )->sn = 209; case 209:; if(!(!((ADCON0bits
      +                          .GO)))){ return 0; };
  1858  00161A  C090  FFD9         	movff	karaSimsekHiziOkuma@tutucu,fsr2l
  1859  00161E  C091  FFDA         	movff	karaSimsekHiziOkuma@tutucu+1,fsr2h
  1860  001622  0ED1               	movlw	209
  1861  001624  6EDE               	movwf	postinc2,c
  1862  001626  0E00               	movlw	0
  1863  001628  6EDD               	movwf	postdec2,c
  1864  00162A                     l2889:
  1865  00162A  A2C2               	btfss	194,1,c	;volatile
  1866  00162C  D002               	goto	l2895
  1867  00162E                     u1780:
  1868  00162E  0E00               	movlw	0
  1869  001630  0012               	return	
  1870  001632                     l2895:
  1871                           
  1872                           ;ornek3.c: 211:         uint16_t sonuc;;ornek3.c: 212:         sonuc = 0;
  1873  001632  0E00               	movlw	0
  1874  001634  0100               	movlb	0	; () banked
  1875  001636  6F96               	movwf	(karaSimsekHiziOkuma@sonuc+1)& (0+255),b
  1876  001638  0E00               	movlw	0
  1877  00163A  6F95               	movwf	karaSimsekHiziOkuma@sonuc& (0+255),b
  1878                           
  1879                           ; BSR set to: 0
  1880                           ;ornek3.c: 213:         sonuc |= (uint16_t)ADRESH << 8;
  1881  00163C  50C4               	movf	196,w,c	;volatile
  1882  00163E  6F93               	movwf	(??_karaSimsekHiziOkuma+1)& (0+255),b
  1883  001640  6B92               	clrf	??_karaSimsekHiziOkuma& (0+255),b
  1884  001642  5192               	movf	??_karaSimsekHiziOkuma& (0+255),w,b
  1885  001644  1395               	iorwf	karaSimsekHiziOkuma@sonuc& (0+255),f,b
  1886  001646  5193               	movf	(??_karaSimsekHiziOkuma+1)& (0+255),w,b
  1887  001648  1396               	iorwf	(karaSimsekHiziOkuma@sonuc+1)& (0+255),f,b
  1888                           
  1889                           ; BSR set to: 0
  1890                           ;ornek3.c: 214:         sonuc |= (uint16_t)ADRESL;
  1891  00164A  50C3               	movf	195,w,c	;volatile
  1892  00164C  1395               	iorwf	karaSimsekHiziOkuma@sonuc& (0+255),f,b
  1893                           
  1894                           ; BSR set to: 0
  1895                           ;ornek3.c: 215:         if(sonuc != oncekiSonuc){
  1896  00164E  5019               	movf	karaSimsekHiziOkuma@oncekiSonuc^0,w,c
  1897  001650  1995               	xorwf	karaSimsekHiziOkuma@sonuc& (0+255),w,b
  1898  001652  E104               	bnz	u1790
  1899  001654  501A               	movf	(karaSimsekHiziOkuma@oncekiSonuc+1)^0,w,c
  1900  001656  1996               	xorwf	(karaSimsekHiziOkuma@sonuc+1)& (0+255),w,b
  1901  001658  B4D8               	btfsc	status,2,c
  1902  00165A  D023               	goto	l2915
  1903  00165C                     u1790:
  1904                           
  1905                           ; BSR set to: 0
  1906                           ;ornek3.c: 216:             gercekDeger = sonuc;
  1907  00165C  C095  F01D         	movff	karaSimsekHiziOkuma@sonuc,_gercekDeger
  1908  001660  C096  F01E         	movff	karaSimsekHiziOkuma@sonuc+1,_gercekDeger+1
  1909                           
  1910                           ; BSR set to: 0
  1911                           ;ornek3.c: 219:             if(sonuc <= 50){
  1912  001664  5196               	movf	(karaSimsekHiziOkuma@sonuc+1)& (0+255),w,b
  1913  001666  E109               	bnz	l2909
  1914  001668  0E33               	movlw	51
  1915  00166A  5D95               	subwf	karaSimsekHiziOkuma@sonuc& (0+255),w,b
  1916  00166C  B0D8               	btfsc	status,0,c
  1917  00166E  D005               	goto	l2909
  1918                           
  1919                           ; BSR set to: 0
  1920                           ;ornek3.c: 221:                 karaSimsekHizi = 10;
  1921  001670  0E00               	movlw	0
  1922  001672  6E1C               	movwf	(_karaSimsekHizi+1)^0,c
  1923  001674  0E0A               	movlw	10
  1924  001676  6E1B               	movwf	_karaSimsekHizi^0,c
  1925                           
  1926                           ;ornek3.c: 222:             } else{
  1927  001678  D00E               	goto	l2911
  1928  00167A                     l2909:
  1929                           
  1930                           ; BSR set to: 0
  1931                           ;ornek3.c: 223:                 karaSimsekHizi = sonuc / 5;
  1932  00167A  C095  F049         	movff	karaSimsekHiziOkuma@sonuc,___lwdiv@dividend
  1933  00167E  C096  F04A         	movff	karaSimsekHiziOkuma@sonuc+1,___lwdiv@dividend+1
  1934  001682  0E00               	movlw	0
  1935  001684  6E4C               	movwf	(___lwdiv@divisor+1)^0,c
  1936  001686  0E05               	movlw	5
  1937  001688  6E4B               	movwf	___lwdiv@divisor^0,c
  1938  00168A  EC2F  F00D         	call	___lwdiv	;wreg free
  1939  00168E  C049  F01B         	movff	?___lwdiv,_karaSimsekHizi
  1940  001692  C04A  F01C         	movff	?___lwdiv+1,_karaSimsekHizi+1
  1941  001696                     l2911:
  1942                           
  1943                           ; BSR set to: 0
  1944                           ;ornek3.c: 225:             karasimsekHiziOkundu = 1;
  1945  001696  0E01               	movlw	1
  1946  001698  6E2D               	movwf	_karasimsekHiziOkundu^0,c
  1947                           
  1948                           ; BSR set to: 0
  1949                           ;ornek3.c: 226:             oncekiSonuc = sonuc;
  1950  00169A  C095  F019         	movff	karaSimsekHiziOkuma@sonuc,karaSimsekHiziOkuma@oncekiSonuc
  1951  00169E  C096  F01A         	movff	karaSimsekHiziOkuma@sonuc+1,karaSimsekHiziOkuma@oncekiSonuc+1
  1952  0016A2                     l2915:
  1953                           
  1954                           ; BSR set to: 0
  1955                           ;ornek3.c: 228:         ( (sure_t*) &s4 )->kacTik = (300u / (1000u / 1000u)); ( (sure_t*
      +                          ) &s4 )->baslangic = tikSayiminiAl(); ( (gorev_t*) tutucu )->sn = 228; case 228:; if(!((
      +                           (tikSayiminiAl() - ( (sure_t*) &s4 )->baslangic) >= ( (sure_t*) &s4 )->kacTik ))){ retu
      +                          rn 0; };
  1956  0016A2  0E01               	movlw	1
  1957  0016A4  6E08               	movwf	(karaSimsekHiziOkuma@s4+3)^0,c
  1958  0016A6  0E2C               	movlw	44
  1959  0016A8  6E07               	movwf	(karaSimsekHiziOkuma@s4+2)^0,c
  1960                           
  1961                           ; BSR set to: 0
  1962  0016AA  ECD7  F00D         	call	_tikSayiminiAl	;wreg free
  1963  0016AE  C049  F005         	movff	?_tikSayiminiAl,karaSimsekHiziOkuma@s4
  1964  0016B2  C04A  F006         	movff	?_tikSayiminiAl+1,karaSimsekHiziOkuma@s4+1
  1965  0016B6  C090  FFD9         	movff	karaSimsekHiziOkuma@tutucu,fsr2l
  1966  0016BA  C091  FFDA         	movff	karaSimsekHiziOkuma@tutucu+1,fsr2h
  1967  0016BE  0EE4               	movlw	228
  1968  0016C0  6EDE               	movwf	postinc2,c
  1969  0016C2  0E00               	movlw	0
  1970  0016C4  6EDD               	movwf	postdec2,c
  1971  0016C6                     l2921:
  1972  0016C6  ECD7  F00D         	call	_tikSayiminiAl	;wreg free
  1973  0016CA  5005               	movf	karaSimsekHiziOkuma@s4^0,w,c
  1974  0016CC  5E49               	subwf	?_tikSayiminiAl^0,f,c
  1975  0016CE  5006               	movf	(karaSimsekHiziOkuma@s4+1)^0,w,c
  1976  0016D0  5A4A               	subwfb	(?_tikSayiminiAl+1)^0,f,c
  1977  0016D2  5007               	movf	(karaSimsekHiziOkuma@s4+2)^0,w,c
  1978  0016D4  5C49               	subwf	?_tikSayiminiAl^0,w,c
  1979  0016D6  5008               	movf	(karaSimsekHiziOkuma@s4+3)^0,w,c
  1980  0016D8  584A               	subwfb	(?_tikSayiminiAl+1)^0,w,c
  1981  0016DA  A0D8               	btfss	status,0,c
  1982  0016DC  D7A8               	goto	u1780
  1983  0016DE  D79C               	goto	l2885
  1984  0016E0                     l2931:
  1985                           
  1986                           ; BSR set to: 0
  1987  0016E0  0E02               	movlw	2
  1988  0016E2  0012               	return	
  1989  0016E4                     l2937:
  1990                           
  1991                           ; BSR set to: 0
  1992  0016E4  C090  FFD9         	movff	karaSimsekHiziOkuma@tutucu,fsr2l
  1993  0016E8  C091  FFDA         	movff	karaSimsekHiziOkuma@tutucu+1,fsr2h
  1994  0016EC  CFDE F092          	movff	postinc2,??_karaSimsekHiziOkuma
  1995  0016F0  CFDD F093          	movff	postdec2,??_karaSimsekHiziOkuma+1
  1996                           
  1997                           ; Switch on 2 bytes has been partitioned into a top level switch of size 1, and 1 sub-sw
      +                          itches
  1998                           ; Switch size 1, requested type "simple"
  1999                           ; Number of cases is 1, Range of values is 0 to 0
  2000                           ; switch strategies available:
  2001                           ; Name         Instructions Cycles
  2002                           ; simple_byte            4     3 (average)
  2003                           ;	Chosen strategy is simple_byte
  2004  0016F4  5193               	movf	(??_karaSimsekHiziOkuma+1)& (0+255),w,b
  2005  0016F6  0A00               	xorlw	0	; case 0
  2006  0016F8  A4D8               	btfss	status,2,c
  2007  0016FA  D00D               	goto	l2939
  2008                           
  2009                           ; BSR set to: 0
  2010                           ; Switch size 1, requested type "simple"
  2011                           ; Number of cases is 4, Range of values is 0 to 231
  2012                           ; switch strategies available:
  2013                           ; Name         Instructions Cycles
  2014                           ; simple_byte           13     7 (average)
  2015                           ;	Chosen strategy is simple_byte
  2016  0016FC  5192               	movf	??_karaSimsekHiziOkuma& (0+255),w,b
  2017  0016FE  0A00               	xorlw	0	; case 0
  2018  001700  B4D8               	btfsc	status,2,c
  2019  001702  D782               	goto	l301
  2020  001704  0AD1               	xorlw	209	; case 209
  2021  001706  B4D8               	btfsc	status,2,c
  2022  001708  D790               	goto	l2889
  2023  00170A  0A35               	xorlw	53	; case 228
  2024  00170C  B4D8               	btfsc	status,2,c
  2025  00170E  D7DB               	goto	l2921
  2026  001710  0A03               	xorlw	3	; case 231
  2027  001712  B4D8               	btfsc	status,2,c
  2028  001714  D7E5               	goto	l2931
  2029  001716                     l2939:
  2030                           
  2031                           ; BSR set to: 0
  2032  001716  0E01               	movlw	1
  2033  001718  0012               	return		;funcret
  2034  00171A                     __end_of_karaSimsekHiziOkuma:
  2035                           	callstack 0
  2036                           
  2037 ;; *************** function _karaSimsek *****************
  2038 ;; Defined at:
  2039 ;;		line 151 in file "ornek3.c"
  2040 ;; Parameters:    Size  Location     Type
  2041 ;;  tutucu          2    0[BANK0 ] PTR void 
  2042 ;;		 -> gorevHeap(32), NULL(0), 
  2043 ;; Auto vars:     Size  Location     Type
  2044 ;;  VAZGECIS_BAY    1    0        unsigned char 
  2045 ;; Return value:  Size  Location     Type
  2046 ;;                  1    wreg      unsigned char 
  2047 ;; Registers used:
  2048 ;;		wreg, fsr2l, fsr2h, status,2, status,0, cstack
  2049 ;; Tracked objects:
  2050 ;;		On entry : 3F/0
  2051 ;;		On exit  : 0/0
  2052 ;;		Unchanged: 0/0
  2053 ;; Data sizes:     COMRAM   BANK0   BANK1   BANK2   BANK3   BANK4   BANK5   BANK6   BANK7   BANK8   BANK9  BANK10  BANK1
      +1  BANK12  BANK13  BANK14  BANK15
  2054 ;;      Params:         0       2       0       0       0       0       0       0       0       0       0       0       
      +0       0       0       0       0
  2055 ;;      Locals:         1       0       0       0       0       0       0       0       0       0       0       0       
      +0       0       0       0       0
  2056 ;;      Temps:          0       2       0       0       0       0       0       0       0       0       0       0       
      +0       0       0       0       0
  2057 ;;      Totals:         1       4       0       0       0       0       0       0       0       0       0       0       
      +0       0       0       0       0
  2058 ;;Total ram usage:        5 bytes
  2059 ;; Hardware stack levels used:    1
  2060 ;; Hardware stack levels required when called:    4
  2061 ;; This function calls:
  2062 ;;		_tikSayiminiAl
  2063 ;; This function is called by:
  2064 ;;		_main
  2065 ;;		_gorevciyiBaslat
  2066 ;; This function uses a non-reentrant model
  2067 ;;
  2068                           
  2069                           	psect	text11
  2070  001804                     __ptext11:
  2071                           	callstack 0
  2072  001804                     _karaSimsek:
  2073                           	callstack 24
  2074                           
  2075                           ; BSR set to: 0
  2076                           
  2077                           ;incstack = 0
  2078  001804  D043               	goto	l2865
  2079  001806                     l2833:
  2080                           
  2081                           ; BSR set to: 0
  2082                           ;ornek3.c: 155:     static sure_t s3;;ornek3.c: 156:     static _Bool sola;;ornek3.c: 15
      +                          9:     LATD = 0;
  2083  001806  0E00               	movlw	0
  2084  001808  6E8C               	movwf	140,c	;volatile
  2085                           
  2086                           ;ornek3.c: 160:     ANSELD = 0;
  2087  00180A  0E00               	movlw	0
  2088  00180C  010F               	movlb	15	; () banked
  2089  00180E  6F3B               	movwf	59,b	;volatile
  2090                           
  2091                           ;ornek3.c: 161:     TRISD = 0;
  2092  001810  0E00               	movlw	0
  2093  001812  6E95               	movwf	149,c	;volatile
  2094                           
  2095                           ;ornek3.c: 162:     LATD = 0x1;
  2096  001814  0E01               	movlw	1
  2097  001816  6E8C               	movwf	140,c	;volatile
  2098                           
  2099                           ;ornek3.c: 163:     sola = 1;
  2100  001818  0E01               	movlw	1
  2101  00181A  6E29               	movwf	karaSimsek@sola^0,c
  2102                           
  2103                           ;ornek3.c: 164:     karaSimsekHizi = 50;
  2104  00181C  0E00               	movlw	0
  2105  00181E  6E1C               	movwf	(_karaSimsekHizi+1)^0,c
  2106  001820  0E32               	movlw	50
  2107  001822  6E1B               	movwf	_karaSimsekHizi^0,c
  2108  001824                     l287:
  2109                           
  2110                           ;ornek3.c: 168:         if(sola){
  2111  001824  5029               	movf	karaSimsek@sola^0,w,c
  2112  001826  B4D8               	btfsc	status,2,c
  2113  001828  D008               	goto	l2839
  2114                           
  2115                           ;ornek3.c: 169:             PORTD <<= 1;
  2116  00182A  90D8               	bcf	status,0,c
  2117  00182C  3683               	rlcf	131,f,c
  2118                           
  2119                           ;volatile
  2120                           ;ornek3.c: 171:             if(PORTD == 0x80)
  2121  00182E  0E80               	movlw	128
  2122  001830  1883               	xorwf	131,w,c	;volatile
  2123  001832  A4D8               	btfss	status,2,c
  2124  001834  D009               	goto	l2843
  2125                           
  2126                           ;ornek3.c: 172:                 sola = 0;
  2127  001836  0E00               	movlw	0
  2128  001838  D006               	goto	L1
  2129  00183A                     l2839:
  2130                           
  2131                           ;ornek3.c: 175:             PORTD >>= 1;
  2132  00183A  90D8               	bcf	status,0,c
  2133  00183C  3283               	rrcf	131,f,c
  2134                           
  2135                           ;volatile
  2136                           ;ornek3.c: 177:             if(PORTD == 1)
  2137  00183E  0483               	decf	131,w,c	;volatile
  2138  001840  A4D8               	btfss	status,2,c
  2139  001842  D002               	goto	l2843
  2140                           
  2141                           ;ornek3.c: 178:                 sola = 1;
  2142  001844  0E01               	movlw	1
  2143  001846                     L1:
  2144  001846  6E29               	movwf	karaSimsek@sola^0,c
  2145  001848                     l2843:
  2146                           
  2147                           ;ornek3.c: 181:   ( (sure_t*) &s3 )->kacTik = (karaSimsekHizi / (1000u / 1000u)); ( (sur
      +                          e_t*) &s3 )->baslangic = tikSayiminiAl(); ( (gorev_t*) tutucu )->sn = 181; case 181:; if
      +                          (!(( (tikSayiminiAl() - ( (sure_t*) &s3 )->baslangic) >= ( (sure_t*) &s3 )->kacTik ))){ 
      +                          return 0; };
  2148  001848  C01B  F00B         	movff	_karaSimsekHizi,karaSimsek@s3+2
  2149  00184C  C01C  F00C         	movff	_karaSimsekHizi+1,karaSimsek@s3+3
  2150  001850  ECD7  F00D         	call	_tikSayiminiAl	;wreg free
  2151  001854  C049  F009         	movff	?_tikSayiminiAl,karaSimsek@s3
  2152  001858  C04A  F00A         	movff	?_tikSayiminiAl+1,karaSimsek@s3+1
  2153  00185C  C090  FFD9         	movff	karaSimsek@tutucu,fsr2l
  2154  001860  C091  FFDA         	movff	karaSimsek@tutucu+1,fsr2h
  2155  001864  0EB5               	movlw	181
  2156  001866  6EDE               	movwf	postinc2,c
  2157  001868  0E00               	movlw	0
  2158  00186A  6EDD               	movwf	postdec2,c
  2159  00186C                     l2849:
  2160  00186C  ECD7  F00D         	call	_tikSayiminiAl	;wreg free
  2161  001870  5009               	movf	karaSimsek@s3^0,w,c
  2162  001872  5E49               	subwf	?_tikSayiminiAl^0,f,c
  2163  001874  500A               	movf	(karaSimsek@s3+1)^0,w,c
  2164  001876  5A4A               	subwfb	(?_tikSayiminiAl+1)^0,f,c
  2165  001878  500B               	movf	(karaSimsek@s3+2)^0,w,c
  2166  00187A  5C49               	subwf	?_tikSayiminiAl^0,w,c
  2167  00187C  500C               	movf	(karaSimsek@s3+3)^0,w,c
  2168  00187E  584A               	subwfb	(?_tikSayiminiAl+1)^0,w,c
  2169  001880  B0D8               	btfsc	status,0,c
  2170  001882  D7D0               	goto	l287
  2171  001884  0E00               	movlw	0
  2172  001886  0012               	return	
  2173  001888                     l2859:
  2174                           
  2175                           ; BSR set to: 0
  2176  001888  0E02               	movlw	2
  2177  00188A  0012               	return	
  2178  00188C                     l2865:
  2179                           
  2180                           ; BSR set to: 0
  2181  00188C  C090  FFD9         	movff	karaSimsek@tutucu,fsr2l
  2182  001890  C091  FFDA         	movff	karaSimsek@tutucu+1,fsr2h
  2183  001894  CFDE F092          	movff	postinc2,??_karaSimsek
  2184  001898  CFDD F093          	movff	postdec2,??_karaSimsek+1
  2185                           
  2186                           ; Switch on 2 bytes has been partitioned into a top level switch of size 1, and 1 sub-sw
      +                          itches
  2187                           ; Switch size 1, requested type "simple"
  2188                           ; Number of cases is 1, Range of values is 0 to 0
  2189                           ; switch strategies available:
  2190                           ; Name         Instructions Cycles
  2191                           ; simple_byte            4     3 (average)
  2192                           ;	Chosen strategy is simple_byte
  2193  00189C  5193               	movf	(??_karaSimsek+1)& (0+255),w,b
  2194  00189E  0A00               	xorlw	0	; case 0
  2195  0018A0  A4D8               	btfss	status,2,c
  2196  0018A2  D00A               	goto	l2867
  2197                           
  2198                           ; BSR set to: 0
  2199                           ; Switch size 1, requested type "simple"
  2200                           ; Number of cases is 3, Range of values is 0 to 184
  2201                           ; switch strategies available:
  2202                           ; Name         Instructions Cycles
  2203                           ; simple_byte           10     6 (average)
  2204                           ;	Chosen strategy is simple_byte
  2205  0018A4  5192               	movf	??_karaSimsek& (0+255),w,b
  2206  0018A6  0A00               	xorlw	0	; case 0
  2207  0018A8  B4D8               	btfsc	status,2,c
  2208  0018AA  D7AD               	goto	l2833
  2209  0018AC  0AB5               	xorlw	181	; case 181
  2210  0018AE  B4D8               	btfsc	status,2,c
  2211  0018B0  D7DD               	goto	l2849
  2212  0018B2  0A0D               	xorlw	13	; case 184
  2213  0018B4  B4D8               	btfsc	status,2,c
  2214  0018B6  D7E8               	goto	l2859
  2215  0018B8                     l2867:
  2216                           
  2217                           ; BSR set to: 0
  2218  0018B8  0E01               	movlw	1
  2219  0018BA  0012               	return		;funcret
  2220  0018BC                     __end_of_karaSimsek:
  2221                           	callstack 0
  2222                           
  2223 ;; *************** function _ledCakarlama1 *****************
  2224 ;; Defined at:
  2225 ;;		line 45 in file "ornek3.c"
  2226 ;; Parameters:    Size  Location     Type
  2227 ;;  tutucu          2    0[BANK0 ] PTR void 
  2228 ;;		 -> gorevHeap(32), NULL(0), 
  2229 ;; Auto vars:     Size  Location     Type
  2230 ;;  VAZGECIS_BAY    1    0        unsigned char 
  2231 ;; Return value:  Size  Location     Type
  2232 ;;                  1    wreg      unsigned char 
  2233 ;; Registers used:
  2234 ;;		wreg, fsr2l, fsr2h, status,2, status,0, tblptrl, tblptrh, tblptru, prodl, prodh, cstack
  2235 ;; Tracked objects:
  2236 ;;		On entry : 3F/0
  2237 ;;		On exit  : 0/0
  2238 ;;		Unchanged: 0/0
  2239 ;; Data sizes:     COMRAM   BANK0   BANK1   BANK2   BANK3   BANK4   BANK5   BANK6   BANK7   BANK8   BANK9  BANK10  BANK1
      +1  BANK12  BANK13  BANK14  BANK15
  2240 ;;      Params:         0       2       0       0       0       0       0       0       0       0       0       0       
      +0       0       0       0       0
  2241 ;;      Locals:         1       0       0       0       0       0       0       0       0       0       0       0       
      +0       0       0       0       0
  2242 ;;      Temps:          0       2       0       0       0       0       0       0       0       0       0       0       
      +0       0       0       0       0
  2243 ;;      Totals:         1       4       0       0       0       0       0       0       0       0       0       0       
      +0       0       0       0       0
  2244 ;;Total ram usage:        5 bytes
  2245 ;; Hardware stack levels used:    1
  2246 ;; Hardware stack levels required when called:    4
  2247 ;; This function calls:
  2248 ;;		_tikSayiminiAl
  2249 ;; This function is called by:
  2250 ;;		_main
  2251 ;;		_gorevciyiBaslat
  2252 ;; This function uses a non-reentrant model
  2253 ;;
  2254                           
  2255                           	psect	text12
  2256  0014B0                     __ptext12:
  2257                           	callstack 0
  2258  0014B0                     _ledCakarlama1:
  2259                           	callstack 24
  2260                           
  2261                           ; BSR set to: 0
  2262                           
  2263                           ;incstack = 0
  2264  0014B0  D08F               	goto	l2711
  2265  0014B2                     l230:
  2266                           
  2267                           ; BSR set to: 0
  2268                           ;ornek3.c: 53:     static sure_t s1;;ornek3.c: 54:     static char secici;;ornek3.c: 55:
      +                               static _Bool artir;;ornek3.c: 58:     static const unsigned int sureler[] = {;ornek
      +                          3.c: 63:     static const char sonSira = sizeof(sureler) / sizeof(unsigned int) - 1;;orn
      +                          ek3.c: 66:     LATEbits.LATE1 = 0;
  2269  0014B2  928D               	bcf	141,1,c	;volatile
  2270                           
  2271                           ;ornek3.c: 67:     ANSELEbits.ANSE1 = 0;
  2272  0014B4  010F               	movlb	15	; () banked
  2273  0014B6  933C               	bcf	60,1,b	;volatile
  2274                           
  2275                           ;ornek3.c: 68:     TRISEbits.TRISE1 = 0;
  2276  0014B8  9296               	bcf	150,1,c	;volatile
  2277                           
  2278                           ; BSR set to: 15
  2279                           ;ornek3.c: 69:     secici = 0;
  2280  0014BA  0E00               	movlw	0
  2281  0014BC  6E2B               	movwf	ledCakarlama1@secici^0,c
  2282                           
  2283                           ;ornek3.c: 70:     artir = 1;
  2284  0014BE  0E01               	movlw	1
  2285  0014C0  6E2A               	movwf	ledCakarlama1@artir^0,c
  2286  0014C2                     l241:
  2287                           
  2288                           ;ornek3.c: 74:         if(artir){
  2289  0014C2  502A               	movf	ledCakarlama1@artir^0,w,c
  2290  0014C4  B4D8               	btfsc	status,2,c
  2291  0014C6  D008               	goto	l2667
  2292                           
  2293                           ;ornek3.c: 75:             if(secici == sonSira){
  2294  0014C8  0E0E               	movlw	14
  2295  0014CA  182B               	xorwf	ledCakarlama1@secici^0,w,c
  2296  0014CC  A4D8               	btfss	status,2,c
  2297  0014CE  D002               	goto	l2665
  2298                           
  2299                           ;ornek3.c: 76:                 artir = 0;
  2300  0014D0  0E00               	movlw	0
  2301  0014D2  D006               	goto	L2
  2302  0014D4                     l2665:
  2303                           
  2304                           ;ornek3.c: 78:                 secici++;
  2305  0014D4  2A2B               	incf	ledCakarlama1@secici^0,f,c
  2306  0014D6  D007               	goto	l2673
  2307  0014D8                     l2667:
  2308                           
  2309                           ;ornek3.c: 81:             if(secici == 0){
  2310  0014D8  502B               	movf	ledCakarlama1@secici^0,w,c
  2311  0014DA  A4D8               	btfss	status,2,c
  2312  0014DC  D003               	goto	l2671
  2313                           
  2314                           ;ornek3.c: 82:                 artir = 1;
  2315  0014DE  0E01               	movlw	1
  2316  0014E0                     L2:
  2317  0014E0  6E2A               	movwf	ledCakarlama1@artir^0,c
  2318                           
  2319                           ;ornek3.c: 83:             } else{
  2320  0014E2  D001               	goto	l2673
  2321  0014E4                     l2671:
  2322                           
  2323                           ;ornek3.c: 84:                 secici--;
  2324  0014E4  062B               	decf	ledCakarlama1@secici^0,f,c
  2325  0014E6                     l2673:
  2326                           
  2327                           ;ornek3.c: 88:         PORTEbits.RE1 = !PORTEbits.RE1;
  2328  0014E6  B284               	btfsc	132,1,c	;volatile
  2329  0014E8  D004               	goto	u1500
  2330  0014EA  0100               	movlb	0	; () banked
  2331  0014EC  6B92               	clrf	??_ledCakarlama1& (0+255),b
  2332  0014EE  2B92               	incf	??_ledCakarlama1& (0+255),f,b
  2333  0014F0  D002               	goto	u1518
  2334  0014F2                     u1500:
  2335  0014F2  0100               	movlb	0	; () banked
  2336  0014F4  6B92               	clrf	??_ledCakarlama1& (0+255),b
  2337  0014F6                     u1518:
  2338  0014F6  4792               	rlncf	??_ledCakarlama1& (0+255),f,b
  2339  0014F8  5084               	movf	132,w,c	;volatile
  2340  0014FA  1992               	xorwf	??_ledCakarlama1& (0+255),w,b
  2341  0014FC  0BFD               	andlw	-3
  2342  0014FE  1992               	xorwf	??_ledCakarlama1& (0+255),w,b
  2343  001500  6E84               	movwf	132,c	;volatile
  2344                           
  2345                           ; BSR set to: 0
  2346                           ;ornek3.c: 90:         ( (sure_t*) &s1 )->kacTik = (sureler[secici] / (1000u / 1000u)); 
      +                          ( (sure_t*) &s1 )->baslangic = tikSayiminiAl(); ( (gorev_t*) tutucu )->sn = 90; case 90:
      +                          ; if(!(( (tikSayiminiAl() - ( (sure_t*) &s1 )->baslangic) >= ( (sure_t*) &s1 )->kacTik )
      +                          )){ return 0; };
  2347  001502  502B               	movf	ledCakarlama1@secici^0,w,c
  2348  001504  0D02               	mullw	2
  2349  001506  50F3               	movf	243,w,c
  2350  001508  0F13               	addlw	low ledCakarlama1@sureler
  2351  00150A  6F92               	movwf	??_ledCakarlama1& (0+255),b
  2352  00150C  C092  FFF6         	movff	??_ledCakarlama1,tblptrl
  2353  001510                     	if	1	;There is more than 1 active tblptr byte
  2354  001510  0E10               	movlw	high __smallconst
  2355  001512  6EF7               	movwf	tblptrh,c
  2356  001514                     	endif
  2357  001514                     	if	1	;Program memory is < 0x10000, tblptru is always zero
  2358  001514  6AF8               	clrf	tblptru,c
  2359  001516                     	endif
  2360  001516                     	if	0	;tblptru may be non-zero
  2361  001516                     	endif
  2362  001516  0009               	tblrd		*+
  2363  001518  CFF5 F013          	movff	tablat,ledCakarlama1@s1+2
  2364  00151C  000A               	tblrd		*-
  2365  00151E  CFF5 F014          	movff	tablat,ledCakarlama1@s1+3
  2366                           
  2367                           ; BSR set to: 0
  2368  001522  ECD7  F00D         	call	_tikSayiminiAl	;wreg free
  2369  001526  C049  F011         	movff	?_tikSayiminiAl,ledCakarlama1@s1
  2370  00152A  C04A  F012         	movff	?_tikSayiminiAl+1,ledCakarlama1@s1+1
  2371  00152E  C090  FFD9         	movff	ledCakarlama1@tutucu,fsr2l
  2372  001532  C091  FFDA         	movff	ledCakarlama1@tutucu+1,fsr2h
  2373  001536  0E5A               	movlw	90
  2374  001538  6EDE               	movwf	postinc2,c
  2375  00153A  0E00               	movlw	0
  2376  00153C  6EDD               	movwf	postdec2,c
  2377  00153E                     l2681:
  2378  00153E  ECD7  F00D         	call	_tikSayiminiAl	;wreg free
  2379  001542  5011               	movf	ledCakarlama1@s1^0,w,c
  2380  001544  5E49               	subwf	?_tikSayiminiAl^0,f,c
  2381  001546  5012               	movf	(ledCakarlama1@s1+1)^0,w,c
  2382  001548  5A4A               	subwfb	(?_tikSayiminiAl+1)^0,f,c
  2383  00154A  5013               	movf	(ledCakarlama1@s1+2)^0,w,c
  2384  00154C  5C49               	subwf	?_tikSayiminiAl^0,w,c
  2385  00154E  5014               	movf	(ledCakarlama1@s1+3)^0,w,c
  2386  001550  584A               	subwfb	(?_tikSayiminiAl+1)^0,w,c
  2387  001552  B0D8               	btfsc	status,0,c
  2388  001554  D002               	goto	l2687
  2389  001556                     u1520:
  2390  001556  0E00               	movlw	0
  2391  001558  0012               	return	
  2392  00155A                     l2687:
  2393                           
  2394                           ;ornek3.c: 92:         PORTEbits.RE1 = !PORTEbits.RE1;
  2395  00155A  B284               	btfsc	132,1,c	;volatile
  2396  00155C  D004               	goto	u1530
  2397  00155E  0100               	movlb	0	; () banked
  2398  001560  6B92               	clrf	??_ledCakarlama1& (0+255),b
  2399  001562  2B92               	incf	??_ledCakarlama1& (0+255),f,b
  2400  001564  D002               	goto	u1548
  2401  001566                     u1530:
  2402  001566  0100               	movlb	0	; () banked
  2403  001568  6B92               	clrf	??_ledCakarlama1& (0+255),b
  2404  00156A                     u1548:
  2405  00156A  4792               	rlncf	??_ledCakarlama1& (0+255),f,b
  2406  00156C  5084               	movf	132,w,c	;volatile
  2407  00156E  1992               	xorwf	??_ledCakarlama1& (0+255),w,b
  2408  001570  0BFD               	andlw	-3
  2409  001572  1992               	xorwf	??_ledCakarlama1& (0+255),w,b
  2410  001574  6E84               	movwf	132,c	;volatile
  2411                           
  2412                           ; BSR set to: 0
  2413                           ;ornek3.c: 94:         ( (sure_t*) &s1 )->kacTik = (sureler[secici] / (1000u / 1000u)); 
      +                          ( (sure_t*) &s1 )->baslangic = tikSayiminiAl(); ( (gorev_t*) tutucu )->sn = 94; case 94:
      +                          ; if(!(( (tikSayiminiAl() - ( (sure_t*) &s1 )->baslangic) >= ( (sure_t*) &s1 )->kacTik )
      +                          )){ return 0; };
  2414  001576  502B               	movf	ledCakarlama1@secici^0,w,c
  2415  001578  0D02               	mullw	2
  2416  00157A  50F3               	movf	243,w,c
  2417  00157C  0F13               	addlw	low ledCakarlama1@sureler
  2418  00157E  6F92               	movwf	??_ledCakarlama1& (0+255),b
  2419  001580  C092  FFF6         	movff	??_ledCakarlama1,tblptrl
  2420  001584                     	if	1	;There is more than 1 active tblptr byte
  2421  001584  0E10               	movlw	high __smallconst
  2422  001586  6EF7               	movwf	tblptrh,c
  2423  001588                     	endif
  2424  001588                     	if	1	;Program memory is < 0x10000, tblptru is always zero
  2425  001588  6AF8               	clrf	tblptru,c
  2426  00158A                     	endif
  2427  00158A                     	if	0	;tblptru may be non-zero
  2428  00158A                     	endif
  2429  00158A  0009               	tblrd		*+
  2430  00158C  CFF5 F013          	movff	tablat,ledCakarlama1@s1+2
  2431  001590  000A               	tblrd		*-
  2432  001592  CFF5 F014          	movff	tablat,ledCakarlama1@s1+3
  2433                           
  2434                           ; BSR set to: 0
  2435  001596  ECD7  F00D         	call	_tikSayiminiAl	;wreg free
  2436  00159A  C049  F011         	movff	?_tikSayiminiAl,ledCakarlama1@s1
  2437  00159E  C04A  F012         	movff	?_tikSayiminiAl+1,ledCakarlama1@s1+1
  2438  0015A2  C090  FFD9         	movff	ledCakarlama1@tutucu,fsr2l
  2439  0015A6  C091  FFDA         	movff	ledCakarlama1@tutucu+1,fsr2h
  2440  0015AA  0E5E               	movlw	94
  2441  0015AC  6EDE               	movwf	postinc2,c
  2442  0015AE  0E00               	movlw	0
  2443  0015B0  6EDD               	movwf	postdec2,c
  2444  0015B2                     l2695:
  2445  0015B2  ECD7  F00D         	call	_tikSayiminiAl	;wreg free
  2446  0015B6  5011               	movf	ledCakarlama1@s1^0,w,c
  2447  0015B8  5E49               	subwf	?_tikSayiminiAl^0,f,c
  2448  0015BA  5012               	movf	(ledCakarlama1@s1+1)^0,w,c
  2449  0015BC  5A4A               	subwfb	(?_tikSayiminiAl+1)^0,f,c
  2450  0015BE  5013               	movf	(ledCakarlama1@s1+2)^0,w,c
  2451  0015C0  5C49               	subwf	?_tikSayiminiAl^0,w,c
  2452  0015C2  5014               	movf	(ledCakarlama1@s1+3)^0,w,c
  2453  0015C4  584A               	subwfb	(?_tikSayiminiAl+1)^0,w,c
  2454  0015C6  A0D8               	btfss	status,0,c
  2455  0015C8  D7C6               	goto	u1520
  2456  0015CA  D77B               	goto	l241
  2457  0015CC                     l2705:
  2458                           
  2459                           ; BSR set to: 0
  2460  0015CC  0E02               	movlw	2
  2461  0015CE  0012               	return	
  2462  0015D0                     l2711:
  2463                           
  2464                           ; BSR set to: 0
  2465  0015D0  C090  FFD9         	movff	ledCakarlama1@tutucu,fsr2l
  2466  0015D4  C091  FFDA         	movff	ledCakarlama1@tutucu+1,fsr2h
  2467  0015D8  CFDE F092          	movff	postinc2,??_ledCakarlama1
  2468  0015DC  CFDD F093          	movff	postdec2,??_ledCakarlama1+1
  2469                           
  2470                           ; Switch on 2 bytes has been partitioned into a top level switch of size 1, and 1 sub-sw
      +                          itches
  2471                           ; Switch size 1, requested type "simple"
  2472                           ; Number of cases is 1, Range of values is 0 to 0
  2473                           ; switch strategies available:
  2474                           ; Name         Instructions Cycles
  2475                           ; simple_byte            4     3 (average)
  2476                           ;	Chosen strategy is simple_byte
  2477  0015E0  5193               	movf	(??_ledCakarlama1+1)& (0+255),w,b
  2478  0015E2  0A00               	xorlw	0	; case 0
  2479  0015E4  A4D8               	btfss	status,2,c
  2480  0015E6  D00D               	goto	l2713
  2481                           
  2482                           ; BSR set to: 0
  2483                           ; Switch size 1, requested type "simple"
  2484                           ; Number of cases is 4, Range of values is 0 to 98
  2485                           ; switch strategies available:
  2486                           ; Name         Instructions Cycles
  2487                           ; simple_byte           13     7 (average)
  2488                           ;	Chosen strategy is simple_byte
  2489  0015E8  5192               	movf	??_ledCakarlama1& (0+255),w,b
  2490  0015EA  0A00               	xorlw	0	; case 0
  2491  0015EC  B4D8               	btfsc	status,2,c
  2492  0015EE  D761               	goto	l230
  2493  0015F0  0A5A               	xorlw	90	; case 90
  2494  0015F2  B4D8               	btfsc	status,2,c
  2495  0015F4  D7A4               	goto	l2681
  2496  0015F6  0A04               	xorlw	4	; case 94
  2497  0015F8  B4D8               	btfsc	status,2,c
  2498  0015FA  D7DB               	goto	l2695
  2499  0015FC  0A3C               	xorlw	60	; case 98
  2500  0015FE  B4D8               	btfsc	status,2,c
  2501  001600  D7E5               	goto	l2705
  2502  001602                     l2713:
  2503                           
  2504                           ; BSR set to: 0
  2505  001602  0E01               	movlw	1
  2506  001604  0012               	return		;funcret
  2507  001606                     __end_of_ledCakarlama1:
  2508                           	callstack 0
  2509                           
  2510 ;; *************** function _ledCakarlama2 *****************
  2511 ;; Defined at:
  2512 ;;		line 106 in file "ornek3.c"
  2513 ;; Parameters:    Size  Location     Type
  2514 ;;  tutucu          2    0[BANK0 ] PTR void 
  2515 ;;		 -> gorevHeap(32), NULL(0), 
  2516 ;; Auto vars:     Size  Location     Type
  2517 ;;  VAZGECIS_BAY    1    0        unsigned char 
  2518 ;; Return value:  Size  Location     Type
  2519 ;;                  1    wreg      unsigned char 
  2520 ;; Registers used:
  2521 ;;		wreg, fsr2l, fsr2h, status,2, status,0, cstack
  2522 ;; Tracked objects:
  2523 ;;		On entry : 3F/0
  2524 ;;		On exit  : 0/0
  2525 ;;		Unchanged: 0/0
  2526 ;; Data sizes:     COMRAM   BANK0   BANK1   BANK2   BANK3   BANK4   BANK5   BANK6   BANK7   BANK8   BANK9  BANK10  BANK1
      +1  BANK12  BANK13  BANK14  BANK15
  2527 ;;      Params:         0       2       0       0       0       0       0       0       0       0       0       0       
      +0       0       0       0       0
  2528 ;;      Locals:         1       0       0       0       0       0       0       0       0       0       0       0       
      +0       0       0       0       0
  2529 ;;      Temps:          0       2       0       0       0       0       0       0       0       0       0       0       
      +0       0       0       0       0
  2530 ;;      Totals:         1       4       0       0       0       0       0       0       0       0       0       0       
      +0       0       0       0       0
  2531 ;;Total ram usage:        5 bytes
  2532 ;; Hardware stack levels used:    1
  2533 ;; Hardware stack levels required when called:    4
  2534 ;; This function calls:
  2535 ;;		_tikSayiminiAl
  2536 ;; This function is called by:
  2537 ;;		_main
  2538 ;;		_gorevciyiBaslat
  2539 ;; This function uses a non-reentrant model
  2540 ;;
  2541                           
  2542                           	psect	text13
  2543  001032                     __ptext13:
  2544                           	callstack 0
  2545  001032                     _ledCakarlama2:
  2546                           	callstack 24
  2547                           
  2548                           ; BSR set to: 0
  2549                           
  2550                           ;incstack = 0
  2551  001032  D117               	goto	l2819
  2552  001034                     l259:
  2553                           
  2554                           ; BSR set to: 0
  2555                           ;ornek3.c: 109:     static sure_t s2;;ornek3.c: 112:     LATEbits.LATE2 = 0;
  2556  001034  948D               	bcf	141,2,c	;volatile
  2557                           
  2558                           ;ornek3.c: 113:     ANSELEbits.ANSE2 = 0;
  2559  001036  010F               	movlb	15	; () banked
  2560  001038  953C               	bcf	60,2,b	;volatile
  2561                           
  2562                           ;ornek3.c: 114:     TRISEbits.TRISE2 = 0;
  2563  00103A  9496               	bcf	150,2,c	;volatile
  2564  00103C                     l2725:
  2565                           
  2566                           ;ornek3.c: 118:         PORTEbits.RE2 = !PORTEbits.RE2;
  2567  00103C  B484               	btfsc	132,2,c	;volatile
  2568  00103E  D004               	goto	u1560
  2569  001040  0100               	movlb	0	; () banked
  2570  001042  6B92               	clrf	??_ledCakarlama2& (0+255),b
  2571  001044  2B92               	incf	??_ledCakarlama2& (0+255),f,b
  2572  001046  D002               	goto	u1578
  2573  001048                     u1560:
  2574  001048  0100               	movlb	0	; () banked
  2575  00104A  6B92               	clrf	??_ledCakarlama2& (0+255),b
  2576  00104C                     u1578:
  2577  00104C  4792               	rlncf	??_ledCakarlama2& (0+255),f,b
  2578  00104E  4792               	rlncf	??_ledCakarlama2& (0+255),f,b
  2579  001050  5084               	movf	132,w,c	;volatile
  2580  001052  1992               	xorwf	??_ledCakarlama2& (0+255),w,b
  2581  001054  0BFB               	andlw	-5
  2582  001056  1992               	xorwf	??_ledCakarlama2& (0+255),w,b
  2583  001058  6E84               	movwf	132,c	;volatile
  2584                           
  2585                           ; BSR set to: 0
  2586                           ;ornek3.c: 120:   ( (sure_t*) &s2 )->kacTik = (50u / (1000u / 1000u)); ( (sure_t*) &s2 )
      +                          ->baslangic = tikSayiminiAl(); ( (gorev_t*) tutucu )->sn = 120; case 120:; if(!(( (tikSa
      +                          yiminiAl() - ( (sure_t*) &s2 )->baslangic) >= ( (sure_t*) &s2 )->kacTik ))){ return 0; }
      +                          ;
  2587  00105A  0E00               	movlw	0
  2588  00105C  6E10               	movwf	(ledCakarlama2@s2+3)^0,c
  2589  00105E  0E32               	movlw	50
  2590  001060  6E0F               	movwf	(ledCakarlama2@s2+2)^0,c
  2591                           
  2592                           ; BSR set to: 0
  2593  001062  ECD7  F00D         	call	_tikSayiminiAl	;wreg free
  2594  001066  C049  F00D         	movff	?_tikSayiminiAl,ledCakarlama2@s2
  2595  00106A  C04A  F00E         	movff	?_tikSayiminiAl+1,ledCakarlama2@s2+1
  2596  00106E  C090  FFD9         	movff	ledCakarlama2@tutucu,fsr2l
  2597  001072  C091  FFDA         	movff	ledCakarlama2@tutucu+1,fsr2h
  2598  001076  0E78               	movlw	120
  2599  001078  6EDE               	movwf	postinc2,c
  2600  00107A  0E00               	movlw	0
  2601  00107C  6EDD               	movwf	postdec2,c
  2602  00107E                     l2733:
  2603  00107E  ECD7  F00D         	call	_tikSayiminiAl	;wreg free
  2604  001082  500D               	movf	ledCakarlama2@s2^0,w,c
  2605  001084  5E49               	subwf	?_tikSayiminiAl^0,f,c
  2606  001086  500E               	movf	(ledCakarlama2@s2+1)^0,w,c
  2607  001088  5A4A               	subwfb	(?_tikSayiminiAl+1)^0,f,c
  2608  00108A  500F               	movf	(ledCakarlama2@s2+2)^0,w,c
  2609  00108C  5C49               	subwf	?_tikSayiminiAl^0,w,c
  2610  00108E  5010               	movf	(ledCakarlama2@s2+3)^0,w,c
  2611  001090  584A               	subwfb	(?_tikSayiminiAl+1)^0,w,c
  2612  001092  B0D8               	btfsc	status,0,c
  2613  001094  D002               	goto	l2739
  2614  001096                     u1580:
  2615  001096  0E00               	movlw	0
  2616  001098  0012               	return	
  2617  00109A                     l2739:
  2618                           
  2619                           ;ornek3.c: 122:         PORTEbits.RE2 = !PORTEbits.RE2;
  2620  00109A  B484               	btfsc	132,2,c	;volatile
  2621  00109C  D004               	goto	u1590
  2622  00109E  0100               	movlb	0	; () banked
  2623  0010A0  6B92               	clrf	??_ledCakarlama2& (0+255),b
  2624  0010A2  2B92               	incf	??_ledCakarlama2& (0+255),f,b
  2625  0010A4  D002               	goto	u1608
  2626  0010A6                     u1590:
  2627  0010A6  0100               	movlb	0	; () banked
  2628  0010A8  6B92               	clrf	??_ledCakarlama2& (0+255),b
  2629  0010AA                     u1608:
  2630  0010AA  4792               	rlncf	??_ledCakarlama2& (0+255),f,b
  2631  0010AC  4792               	rlncf	??_ledCakarlama2& (0+255),f,b
  2632  0010AE  5084               	movf	132,w,c	;volatile
  2633  0010B0  1992               	xorwf	??_ledCakarlama2& (0+255),w,b
  2634  0010B2  0BFB               	andlw	-5
  2635  0010B4  1992               	xorwf	??_ledCakarlama2& (0+255),w,b
  2636  0010B6  6E84               	movwf	132,c	;volatile
  2637                           
  2638                           ; BSR set to: 0
  2639                           ;ornek3.c: 124:   ( (sure_t*) &s2 )->kacTik = (50u / (1000u / 1000u)); ( (sure_t*) &s2 )
      +                          ->baslangic = tikSayiminiAl(); ( (gorev_t*) tutucu )->sn = 124; case 124:; if(!(( (tikSa
      +                          yiminiAl() - ( (sure_t*) &s2 )->baslangic) >= ( (sure_t*) &s2 )->kacTik ))){ return 0; }
      +                          ;
  2640  0010B8  0E00               	movlw	0
  2641  0010BA  6E10               	movwf	(ledCakarlama2@s2+3)^0,c
  2642  0010BC  0E32               	movlw	50
  2643  0010BE  6E0F               	movwf	(ledCakarlama2@s2+2)^0,c
  2644                           
  2645                           ; BSR set to: 0
  2646  0010C0  ECD7  F00D         	call	_tikSayiminiAl	;wreg free
  2647  0010C4  C049  F00D         	movff	?_tikSayiminiAl,ledCakarlama2@s2
  2648  0010C8  C04A  F00E         	movff	?_tikSayiminiAl+1,ledCakarlama2@s2+1
  2649  0010CC  C090  FFD9         	movff	ledCakarlama2@tutucu,fsr2l
  2650  0010D0  C091  FFDA         	movff	ledCakarlama2@tutucu+1,fsr2h
  2651  0010D4  0E7C               	movlw	124
  2652  0010D6  6EDE               	movwf	postinc2,c
  2653  0010D8  0E00               	movlw	0
  2654  0010DA  6EDD               	movwf	postdec2,c
  2655  0010DC                     l2747:
  2656  0010DC  ECD7  F00D         	call	_tikSayiminiAl	;wreg free
  2657  0010E0  500D               	movf	ledCakarlama2@s2^0,w,c
  2658  0010E2  5E49               	subwf	?_tikSayiminiAl^0,f,c
  2659  0010E4  500E               	movf	(ledCakarlama2@s2+1)^0,w,c
  2660  0010E6  5A4A               	subwfb	(?_tikSayiminiAl+1)^0,f,c
  2661  0010E8  500F               	movf	(ledCakarlama2@s2+2)^0,w,c
  2662  0010EA  5C49               	subwf	?_tikSayiminiAl^0,w,c
  2663  0010EC  5010               	movf	(ledCakarlama2@s2+3)^0,w,c
  2664  0010EE  584A               	subwfb	(?_tikSayiminiAl+1)^0,w,c
  2665  0010F0  A0D8               	btfss	status,0,c
  2666  0010F2  D7D1               	goto	u1580
  2667                           
  2668                           ;ornek3.c: 126:         PORTEbits.RE2 = !PORTEbits.RE2;
  2669  0010F4  B484               	btfsc	132,2,c	;volatile
  2670  0010F6  D004               	goto	u1620
  2671  0010F8  0100               	movlb	0	; () banked
  2672  0010FA  6B92               	clrf	??_ledCakarlama2& (0+255),b
  2673  0010FC  2B92               	incf	??_ledCakarlama2& (0+255),f,b
  2674  0010FE  D002               	goto	u1638
  2675  001100                     u1620:
  2676  001100  0100               	movlb	0	; () banked
  2677  001102  6B92               	clrf	??_ledCakarlama2& (0+255),b
  2678  001104                     u1638:
  2679  001104  4792               	rlncf	??_ledCakarlama2& (0+255),f,b
  2680  001106  4792               	rlncf	??_ledCakarlama2& (0+255),f,b
  2681  001108  5084               	movf	132,w,c	;volatile
  2682  00110A  1992               	xorwf	??_ledCakarlama2& (0+255),w,b
  2683  00110C  0BFB               	andlw	-5
  2684  00110E  1992               	xorwf	??_ledCakarlama2& (0+255),w,b
  2685  001110  6E84               	movwf	132,c	;volatile
  2686                           
  2687                           ; BSR set to: 0
  2688                           ;ornek3.c: 128:   ( (sure_t*) &s2 )->kacTik = (50u / (1000u / 1000u)); ( (sure_t*) &s2 )
      +                          ->baslangic = tikSayiminiAl(); ( (gorev_t*) tutucu )->sn = 128; case 128:; if(!(( (tikSa
      +                          yiminiAl() - ( (sure_t*) &s2 )->baslangic) >= ( (sure_t*) &s2 )->kacTik ))){ return 0; }
      +                          ;
  2689  001112  0E00               	movlw	0
  2690  001114  6E10               	movwf	(ledCakarlama2@s2+3)^0,c
  2691  001116  0E32               	movlw	50
  2692  001118  6E0F               	movwf	(ledCakarlama2@s2+2)^0,c
  2693                           
  2694                           ; BSR set to: 0
  2695  00111A  ECD7  F00D         	call	_tikSayiminiAl	;wreg free
  2696  00111E  C049  F00D         	movff	?_tikSayiminiAl,ledCakarlama2@s2
  2697  001122  C04A  F00E         	movff	?_tikSayiminiAl+1,ledCakarlama2@s2+1
  2698  001126  C090  FFD9         	movff	ledCakarlama2@tutucu,fsr2l
  2699  00112A  C091  FFDA         	movff	ledCakarlama2@tutucu+1,fsr2h
  2700  00112E  0E80               	movlw	128
  2701  001130  6EDE               	movwf	postinc2,c
  2702  001132  0E00               	movlw	0
  2703  001134  6EDD               	movwf	postdec2,c
  2704  001136                     l2761:
  2705  001136  ECD7  F00D         	call	_tikSayiminiAl	;wreg free
  2706  00113A  500D               	movf	ledCakarlama2@s2^0,w,c
  2707  00113C  5E49               	subwf	?_tikSayiminiAl^0,f,c
  2708  00113E  500E               	movf	(ledCakarlama2@s2+1)^0,w,c
  2709  001140  5A4A               	subwfb	(?_tikSayiminiAl+1)^0,f,c
  2710  001142  500F               	movf	(ledCakarlama2@s2+2)^0,w,c
  2711  001144  5C49               	subwf	?_tikSayiminiAl^0,w,c
  2712  001146  5010               	movf	(ledCakarlama2@s2+3)^0,w,c
  2713  001148  584A               	subwfb	(?_tikSayiminiAl+1)^0,w,c
  2714  00114A  A0D8               	btfss	status,0,c
  2715  00114C  D7A4               	goto	u1580
  2716                           
  2717                           ;ornek3.c: 130:         PORTEbits.RE2 = !PORTEbits.RE2;
  2718  00114E  B484               	btfsc	132,2,c	;volatile
  2719  001150  D004               	goto	u1650
  2720  001152  0100               	movlb	0	; () banked
  2721  001154  6B92               	clrf	??_ledCakarlama2& (0+255),b
  2722  001156  2B92               	incf	??_ledCakarlama2& (0+255),f,b
  2723  001158  D002               	goto	u1668
  2724  00115A                     u1650:
  2725  00115A  0100               	movlb	0	; () banked
  2726  00115C  6B92               	clrf	??_ledCakarlama2& (0+255),b
  2727  00115E                     u1668:
  2728  00115E  4792               	rlncf	??_ledCakarlama2& (0+255),f,b
  2729  001160  4792               	rlncf	??_ledCakarlama2& (0+255),f,b
  2730  001162  5084               	movf	132,w,c	;volatile
  2731  001164  1992               	xorwf	??_ledCakarlama2& (0+255),w,b
  2732  001166  0BFB               	andlw	-5
  2733  001168  1992               	xorwf	??_ledCakarlama2& (0+255),w,b
  2734  00116A  6E84               	movwf	132,c	;volatile
  2735                           
  2736                           ; BSR set to: 0
  2737                           ;ornek3.c: 132:   ( (sure_t*) &s2 )->kacTik = (50u / (1000u / 1000u)); ( (sure_t*) &s2 )
      +                          ->baslangic = tikSayiminiAl(); ( (gorev_t*) tutucu )->sn = 132; case 132:; if(!(( (tikSa
      +                          yiminiAl() - ( (sure_t*) &s2 )->baslangic) >= ( (sure_t*) &s2 )->kacTik ))){ return 0; }
      +                          ;
  2738  00116C  0E00               	movlw	0
  2739  00116E  6E10               	movwf	(ledCakarlama2@s2+3)^0,c
  2740  001170  0E32               	movlw	50
  2741  001172  6E0F               	movwf	(ledCakarlama2@s2+2)^0,c
  2742                           
  2743                           ; BSR set to: 0
  2744  001174  ECD7  F00D         	call	_tikSayiminiAl	;wreg free
  2745  001178  C049  F00D         	movff	?_tikSayiminiAl,ledCakarlama2@s2
  2746  00117C  C04A  F00E         	movff	?_tikSayiminiAl+1,ledCakarlama2@s2+1
  2747  001180  C090  FFD9         	movff	ledCakarlama2@tutucu,fsr2l
  2748  001184  C091  FFDA         	movff	ledCakarlama2@tutucu+1,fsr2h
  2749  001188  0E84               	movlw	132
  2750  00118A  6EDE               	movwf	postinc2,c
  2751  00118C  0E00               	movlw	0
  2752  00118E  6EDD               	movwf	postdec2,c
  2753  001190                     l2775:
  2754  001190  ECD7  F00D         	call	_tikSayiminiAl	;wreg free
  2755  001194  500D               	movf	ledCakarlama2@s2^0,w,c
  2756  001196  5E49               	subwf	?_tikSayiminiAl^0,f,c
  2757  001198  500E               	movf	(ledCakarlama2@s2+1)^0,w,c
  2758  00119A  5A4A               	subwfb	(?_tikSayiminiAl+1)^0,f,c
  2759  00119C  500F               	movf	(ledCakarlama2@s2+2)^0,w,c
  2760  00119E  5C49               	subwf	?_tikSayiminiAl^0,w,c
  2761  0011A0  5010               	movf	(ledCakarlama2@s2+3)^0,w,c
  2762  0011A2  584A               	subwfb	(?_tikSayiminiAl+1)^0,w,c
  2763  0011A4  A0D8               	btfss	status,0,c
  2764  0011A6  D777               	goto	u1580
  2765                           
  2766                           ;ornek3.c: 134:         PORTEbits.RE2 = !PORTEbits.RE2;
  2767  0011A8  B484               	btfsc	132,2,c	;volatile
  2768  0011AA  D004               	goto	u1680
  2769  0011AC  0100               	movlb	0	; () banked
  2770  0011AE  6B92               	clrf	??_ledCakarlama2& (0+255),b
  2771  0011B0  2B92               	incf	??_ledCakarlama2& (0+255),f,b
  2772  0011B2  D002               	goto	u1698
  2773  0011B4                     u1680:
  2774  0011B4  0100               	movlb	0	; () banked
  2775  0011B6  6B92               	clrf	??_ledCakarlama2& (0+255),b
  2776  0011B8                     u1698:
  2777  0011B8  4792               	rlncf	??_ledCakarlama2& (0+255),f,b
  2778  0011BA  4792               	rlncf	??_ledCakarlama2& (0+255),f,b
  2779  0011BC  5084               	movf	132,w,c	;volatile
  2780  0011BE  1992               	xorwf	??_ledCakarlama2& (0+255),w,b
  2781  0011C0  0BFB               	andlw	-5
  2782  0011C2  1992               	xorwf	??_ledCakarlama2& (0+255),w,b
  2783  0011C4  6E84               	movwf	132,c	;volatile
  2784                           
  2785                           ; BSR set to: 0
  2786                           ;ornek3.c: 136:   ( (sure_t*) &s2 )->kacTik = (50u / (1000u / 1000u)); ( (sure_t*) &s2 )
      +                          ->baslangic = tikSayiminiAl(); ( (gorev_t*) tutucu )->sn = 136; case 136:; if(!(( (tikSa
      +                          yiminiAl() - ( (sure_t*) &s2 )->baslangic) >= ( (sure_t*) &s2 )->kacTik ))){ return 0; }
      +                          ;
  2787  0011C6  0E00               	movlw	0
  2788  0011C8  6E10               	movwf	(ledCakarlama2@s2+3)^0,c
  2789  0011CA  0E32               	movlw	50
  2790  0011CC  6E0F               	movwf	(ledCakarlama2@s2+2)^0,c
  2791                           
  2792                           ; BSR set to: 0
  2793  0011CE  ECD7  F00D         	call	_tikSayiminiAl	;wreg free
  2794  0011D2  C049  F00D         	movff	?_tikSayiminiAl,ledCakarlama2@s2
  2795  0011D6  C04A  F00E         	movff	?_tikSayiminiAl+1,ledCakarlama2@s2+1
  2796  0011DA  C090  FFD9         	movff	ledCakarlama2@tutucu,fsr2l
  2797  0011DE  C091  FFDA         	movff	ledCakarlama2@tutucu+1,fsr2h
  2798  0011E2  0E88               	movlw	136
  2799  0011E4  6EDE               	movwf	postinc2,c
  2800  0011E6  0E00               	movlw	0
  2801  0011E8  6EDD               	movwf	postdec2,c
  2802  0011EA                     l2789:
  2803  0011EA  ECD7  F00D         	call	_tikSayiminiAl	;wreg free
  2804  0011EE  500D               	movf	ledCakarlama2@s2^0,w,c
  2805  0011F0  5E49               	subwf	?_tikSayiminiAl^0,f,c
  2806  0011F2  500E               	movf	(ledCakarlama2@s2+1)^0,w,c
  2807  0011F4  5A4A               	subwfb	(?_tikSayiminiAl+1)^0,f,c
  2808  0011F6  500F               	movf	(ledCakarlama2@s2+2)^0,w,c
  2809  0011F8  5C49               	subwf	?_tikSayiminiAl^0,w,c
  2810  0011FA  5010               	movf	(ledCakarlama2@s2+3)^0,w,c
  2811  0011FC  584A               	subwfb	(?_tikSayiminiAl+1)^0,w,c
  2812  0011FE  A0D8               	btfss	status,0,c
  2813  001200  D74A               	goto	u1580
  2814                           
  2815                           ;ornek3.c: 138:         PORTEbits.RE2 = !PORTEbits.RE2;
  2816  001202  B484               	btfsc	132,2,c	;volatile
  2817  001204  D004               	goto	u1710
  2818  001206  0100               	movlb	0	; () banked
  2819  001208  6B92               	clrf	??_ledCakarlama2& (0+255),b
  2820  00120A  2B92               	incf	??_ledCakarlama2& (0+255),f,b
  2821  00120C  D002               	goto	u1728
  2822  00120E                     u1710:
  2823  00120E  0100               	movlb	0	; () banked
  2824  001210  6B92               	clrf	??_ledCakarlama2& (0+255),b
  2825  001212                     u1728:
  2826  001212  4792               	rlncf	??_ledCakarlama2& (0+255),f,b
  2827  001214  4792               	rlncf	??_ledCakarlama2& (0+255),f,b
  2828  001216  5084               	movf	132,w,c	;volatile
  2829  001218  1992               	xorwf	??_ledCakarlama2& (0+255),w,b
  2830  00121A  0BFB               	andlw	-5
  2831  00121C  1992               	xorwf	??_ledCakarlama2& (0+255),w,b
  2832  00121E  6E84               	movwf	132,c	;volatile
  2833                           
  2834                           ; BSR set to: 0
  2835                           ;ornek3.c: 140:   ( (sure_t*) &s2 )->kacTik = (1000u / (1000u / 1000u)); ( (sure_t*) &s2
      +                           )->baslangic = tikSayiminiAl(); ( (gorev_t*) tutucu )->sn = 140; case 140:; if(!(( (tik
      +                          SayiminiAl() - ( (sure_t*) &s2 )->baslangic) >= ( (sure_t*) &s2 )->kacTik ))){ return 0;
      +                           };
  2836  001220  0E03               	movlw	3
  2837  001222  6E10               	movwf	(ledCakarlama2@s2+3)^0,c
  2838  001224  0EE8               	movlw	232
  2839  001226  6E0F               	movwf	(ledCakarlama2@s2+2)^0,c
  2840                           
  2841                           ; BSR set to: 0
  2842  001228  ECD7  F00D         	call	_tikSayiminiAl	;wreg free
  2843  00122C  C049  F00D         	movff	?_tikSayiminiAl,ledCakarlama2@s2
  2844  001230  C04A  F00E         	movff	?_tikSayiminiAl+1,ledCakarlama2@s2+1
  2845  001234  C090  FFD9         	movff	ledCakarlama2@tutucu,fsr2l
  2846  001238  C091  FFDA         	movff	ledCakarlama2@tutucu+1,fsr2h
  2847  00123C  0E8C               	movlw	140
  2848  00123E  6EDE               	movwf	postinc2,c
  2849  001240  0E00               	movlw	0
  2850  001242  6EDD               	movwf	postdec2,c
  2851  001244                     l2803:
  2852  001244  ECD7  F00D         	call	_tikSayiminiAl	;wreg free
  2853  001248  500D               	movf	ledCakarlama2@s2^0,w,c
  2854  00124A  5E49               	subwf	?_tikSayiminiAl^0,f,c
  2855  00124C  500E               	movf	(ledCakarlama2@s2+1)^0,w,c
  2856  00124E  5A4A               	subwfb	(?_tikSayiminiAl+1)^0,f,c
  2857  001250  500F               	movf	(ledCakarlama2@s2+2)^0,w,c
  2858  001252  5C49               	subwf	?_tikSayiminiAl^0,w,c
  2859  001254  5010               	movf	(ledCakarlama2@s2+3)^0,w,c
  2860  001256  584A               	subwfb	(?_tikSayiminiAl+1)^0,w,c
  2861  001258  A0D8               	btfss	status,0,c
  2862  00125A  D71D               	goto	u1580
  2863  00125C  D6EF               	goto	l2725
  2864  00125E                     l2813:
  2865                           
  2866                           ; BSR set to: 0
  2867  00125E  0E02               	movlw	2
  2868  001260  0012               	return	
  2869  001262                     l2819:
  2870                           
  2871                           ; BSR set to: 0
  2872  001262  C090  FFD9         	movff	ledCakarlama2@tutucu,fsr2l
  2873  001266  C091  FFDA         	movff	ledCakarlama2@tutucu+1,fsr2h
  2874  00126A  CFDE F092          	movff	postinc2,??_ledCakarlama2
  2875  00126E  CFDD F093          	movff	postdec2,??_ledCakarlama2+1
  2876                           
  2877                           ; Switch on 2 bytes has been partitioned into a top level switch of size 1, and 1 sub-sw
      +                          itches
  2878                           ; Switch size 1, requested type "simple"
  2879                           ; Number of cases is 1, Range of values is 0 to 0
  2880                           ; switch strategies available:
  2881                           ; Name         Instructions Cycles
  2882                           ; simple_byte            4     3 (average)
  2883                           ;	Chosen strategy is simple_byte
  2884  001272  5193               	movf	(??_ledCakarlama2+1)& (0+255),w,b
  2885  001274  0A00               	xorlw	0	; case 0
  2886  001276  A4D8               	btfss	status,2,c
  2887  001278  D019               	goto	l2821
  2888                           
  2889                           ; BSR set to: 0
  2890                           ; Switch size 1, requested type "simple"
  2891                           ; Number of cases is 8, Range of values is 0 to 143
  2892                           ; switch strategies available:
  2893                           ; Name         Instructions Cycles
  2894                           ; simple_byte           25    13 (average)
  2895                           ;	Chosen strategy is simple_byte
  2896  00127A  5192               	movf	??_ledCakarlama2& (0+255),w,b
  2897  00127C  0A00               	xorlw	0	; case 0
  2898  00127E  B4D8               	btfsc	status,2,c
  2899  001280  D6D9               	goto	l259
  2900  001282  0A78               	xorlw	120	; case 120
  2901  001284  B4D8               	btfsc	status,2,c
  2902  001286  D6FB               	goto	l2733
  2903  001288  0A04               	xorlw	4	; case 124
  2904  00128A  B4D8               	btfsc	status,2,c
  2905  00128C  D727               	goto	l2747
  2906  00128E  0AFC               	xorlw	252	; case 128
  2907  001290  B4D8               	btfsc	status,2,c
  2908  001292  D751               	goto	l2761
  2909  001294  0A04               	xorlw	4	; case 132
  2910  001296  B4D8               	btfsc	status,2,c
  2911  001298  D77B               	goto	l2775
  2912  00129A  0A0C               	xorlw	12	; case 136
  2913  00129C  B4D8               	btfsc	status,2,c
  2914  00129E  D7A5               	goto	l2789
  2915  0012A0  0A04               	xorlw	4	; case 140
  2916  0012A2  B4D8               	btfsc	status,2,c
  2917  0012A4  D7CF               	goto	l2803
  2918  0012A6  0A03               	xorlw	3	; case 143
  2919  0012A8  B4D8               	btfsc	status,2,c
  2920  0012AA  D7D9               	goto	l2813
  2921  0012AC                     l2821:
  2922                           
  2923                           ; BSR set to: 0
  2924  0012AC  0E01               	movlw	1
  2925  0012AE  0012               	return		;funcret
  2926  0012B0                     __end_of_ledCakarlama2:
  2927                           	callstack 0
  2928                           
  2929 ;; *************** function _tikSayiminiAl *****************
  2930 ;; Defined at:
  2931 ;;		line 148 in file "../../../../../kaynak/gorev.c"
  2932 ;; Parameters:    Size  Location     Type
  2933 ;;		None
  2934 ;; Auto vars:     Size  Location     Type
  2935 ;;  sayim           2   16[COMRAM] unsigned int 
  2936 ;; Return value:  Size  Location     Type
  2937 ;;                  2   14[COMRAM] unsigned int 
  2938 ;; Registers used:
  2939 ;;		None
  2940 ;; Tracked objects:
  2941 ;;		On entry : 0/0
  2942 ;;		On exit  : 0/0
  2943 ;;		Unchanged: 0/0
  2944 ;; Data sizes:     COMRAM   BANK0   BANK1   BANK2   BANK3   BANK4   BANK5   BANK6   BANK7   BANK8   BANK9  BANK10  BANK1
      +1  BANK12  BANK13  BANK14  BANK15
  2945 ;;      Params:         2       0       0       0       0       0       0       0       0       0       0       0       
      +0       0       0       0       0
  2946 ;;      Locals:         2       0       0       0       0       0       0       0       0       0       0       0       
      +0       0       0       0       0
  2947 ;;      Temps:          0       0       0       0       0       0       0       0       0       0       0       0       
      +0       0       0       0       0
  2948 ;;      Totals:         4       0       0       0       0       0       0       0       0       0       0       0       
      +0       0       0       0       0
  2949 ;;Total ram usage:        4 bytes
  2950 ;; Hardware stack levels used:    1
  2951 ;; Hardware stack levels required when called:    3
  2952 ;; This function calls:
  2953 ;;		Nothing
  2954 ;; This function is called by:
  2955 ;;		_ledCakarlama1
  2956 ;;		_ledCakarlama2
  2957 ;;		_karaSimsek
  2958 ;;		_karaSimsekHiziOkuma
  2959 ;;		_gostergeGuncelle
  2960 ;; This function uses a non-reentrant model
  2961 ;;
  2962                           
  2963                           	psect	text14
  2964  001BAE                     __ptext14:
  2965                           	callstack 0
  2966  001BAE                     _tikSayiminiAl:
  2967                           	callstack 24
  2968                           
  2969                           ;../../../../../kaynak/gorev.c: 149:  unsigned int sayim;;../../../../../kaynak/gorev.c:
      +                           151:  intconYedek = INTCON; INTCONbits.GIEH = 0;;
  2970                           
  2971                           ;incstack = 0
  2972  001BAE  CFF2 F030          	movff	4082,_intconYedek@portmacro$F427	;volatile
  2973  001BB2  9EF2               	bcf	242,7,c	;volatile
  2974                           
  2975                           ;../../../../../kaynak/gorev.c: 152:  sayim = tikSayimi;
  2976  001BB4  C01F  F04B         	movff	_tikSayimi,tikSayiminiAl@sayim
  2977  001BB8  C020  F04C         	movff	_tikSayimi+1,tikSayiminiAl@sayim+1
  2978                           
  2979                           ;../../../../../kaynak/gorev.c: 154:  if(intconYedek & 0x80){ INTCONbits.GIEH = 1;; };
  2980  001BBC  BE30               	btfsc	_intconYedek@portmacro$F427^0,7,c
  2981  001BBE  8EF2               	bsf	242,7,c	;volatile
  2982                           
  2983                           ;../../../../../kaynak/gorev.c: 155:  return sayim;
  2984  001BC0  C04B  F049         	movff	tikSayiminiAl@sayim,?_tikSayiminiAl
  2985  001BC4  C04C  F04A         	movff	tikSayiminiAl@sayim+1,?_tikSayiminiAl+1
  2986  001BC8  0012               	return		;funcret
  2987  001BCA                     __end_of_tikSayiminiAl:
  2988                           	callstack 0
  2989                           
  2990 ;; *************** function ___lwdiv *****************
  2991 ;; Defined at:
  2992 ;;		line 7 in file "/opt/microchip/xc8/v2.31/pic/sources/c99/common/lwdiv.c"
  2993 ;; Parameters:    Size  Location     Type
  2994 ;;  dividend        2   14[COMRAM] unsigned int 
  2995 ;;  divisor         2   16[COMRAM] unsigned int 
  2996 ;; Auto vars:     Size  Location     Type
  2997 ;;  quotient        2   19[COMRAM] unsigned int 
  2998 ;;  counter         1   18[COMRAM] unsigned char 
  2999 ;; Return value:  Size  Location     Type
  3000 ;;                  2   14[COMRAM] unsigned int 
  3001 ;; Registers used:
  3002 ;;		wreg, status,2, status,0
  3003 ;; Tracked objects:
  3004 ;;		On entry : 3F/0
  3005 ;;		On exit  : 3F/0
  3006 ;;		Unchanged: 3F/0
  3007 ;; Data sizes:     COMRAM   BANK0   BANK1   BANK2   BANK3   BANK4   BANK5   BANK6   BANK7   BANK8   BANK9  BANK10  BANK1
      +1  BANK12  BANK13  BANK14  BANK15
  3008 ;;      Params:         4       0       0       0       0       0       0       0       0       0       0       0       
      +0       0       0       0       0
  3009 ;;      Locals:         3       0       0       0       0       0       0       0       0       0       0       0       
      +0       0       0       0       0
  3010 ;;      Temps:          0       0       0       0       0       0       0       0       0       0       0       0       
      +0       0       0       0       0
  3011 ;;      Totals:         7       0       0       0       0       0       0       0       0       0       0       0       
      +0       0       0       0       0
  3012 ;;Total ram usage:        7 bytes
  3013 ;; Hardware stack levels used:    1
  3014 ;; Hardware stack levels required when called:    3
  3015 ;; This function calls:
  3016 ;;		Nothing
  3017 ;; This function is called by:
  3018 ;;		_karaSimsekHiziOkuma
  3019 ;;		_gostergeDegeriGuncelle
  3020 ;; This function uses a non-reentrant model
  3021 ;;
  3022                           
  3023                           	psect	text15
  3024  001A5E                     __ptext15:
  3025                           	callstack 0
  3026  001A5E                     ___lwdiv:
  3027                           	callstack 24
  3028                           
  3029                           ; BSR set to: 0
  3030                           
  3031                           ;incstack = 0
  3032  001A5E  0E00               	movlw	0
  3033  001A60  6E4F               	movwf	(___lwdiv@quotient+1)^0,c
  3034  001A62  0E00               	movlw	0
  3035  001A64  6E4E               	movwf	___lwdiv@quotient^0,c
  3036                           
  3037                           ; BSR set to: 0
  3038  001A66  504B               	movf	___lwdiv@divisor^0,w,c
  3039  001A68  104C               	iorwf	(___lwdiv@divisor+1)^0,w,c
  3040  001A6A  B4D8               	btfsc	status,2,c
  3041  001A6C  D01C               	goto	l867
  3042                           
  3043                           ; BSR set to: 0
  3044  001A6E  0E01               	movlw	1
  3045  001A70  6E4D               	movwf	___lwdiv@counter^0,c
  3046  001A72  D004               	goto	l2609
  3047  001A74                     l2607:
  3048                           
  3049                           ; BSR set to: 0
  3050  001A74  90D8               	bcf	status,0,c
  3051  001A76  364B               	rlcf	___lwdiv@divisor^0,f,c
  3052  001A78  364C               	rlcf	(___lwdiv@divisor+1)^0,f,c
  3053  001A7A  2A4D               	incf	___lwdiv@counter^0,f,c
  3054  001A7C                     l2609:
  3055                           
  3056                           ; BSR set to: 0
  3057  001A7C  AE4C               	btfss	(___lwdiv@divisor+1)^0,7,c
  3058  001A7E  D7FA               	goto	l2607
  3059  001A80                     u1400:
  3060                           
  3061                           ; BSR set to: 0
  3062  001A80  90D8               	bcf	status,0,c
  3063  001A82  364E               	rlcf	___lwdiv@quotient^0,f,c
  3064  001A84  364F               	rlcf	(___lwdiv@quotient+1)^0,f,c
  3065                           
  3066                           ; BSR set to: 0
  3067  001A86  504B               	movf	___lwdiv@divisor^0,w,c
  3068  001A88  5C49               	subwf	___lwdiv@dividend^0,w,c
  3069  001A8A  504C               	movf	(___lwdiv@divisor+1)^0,w,c
  3070  001A8C  584A               	subwfb	(___lwdiv@dividend+1)^0,w,c
  3071  001A8E  A0D8               	btfss	status,0,c
  3072  001A90  D005               	goto	l2619
  3073                           
  3074                           ; BSR set to: 0
  3075  001A92  504B               	movf	___lwdiv@divisor^0,w,c
  3076  001A94  5E49               	subwf	___lwdiv@dividend^0,f,c
  3077  001A96  504C               	movf	(___lwdiv@divisor+1)^0,w,c
  3078  001A98  5A4A               	subwfb	(___lwdiv@dividend+1)^0,f,c
  3079                           
  3080                           ; BSR set to: 0
  3081  001A9A  804E               	bsf	___lwdiv@quotient^0,0,c
  3082  001A9C                     l2619:
  3083                           
  3084                           ; BSR set to: 0
  3085  001A9C  90D8               	bcf	status,0,c
  3086  001A9E  324C               	rrcf	(___lwdiv@divisor+1)^0,f,c
  3087  001AA0  324B               	rrcf	___lwdiv@divisor^0,f,c
  3088                           
  3089                           ; BSR set to: 0
  3090  001AA2  2E4D               	decfsz	___lwdiv@counter^0,f,c
  3091  001AA4  D7ED               	goto	u1400
  3092  001AA6                     l867:
  3093                           
  3094                           ; BSR set to: 0
  3095  001AA6  C04E  F049         	movff	___lwdiv@quotient,?___lwdiv
  3096  001AAA  C04F  F04A         	movff	___lwdiv@quotient+1,?___lwdiv+1
  3097                           
  3098                           ; BSR set to: 0
  3099  001AAE  0012               	return		;funcret
  3100  001AB0                     __end_of___lwdiv:
  3101                           	callstack 0
  3102                           
  3103 ;; *************** function _gorevOlustur *****************
  3104 ;; Defined at:
  3105 ;;		line 109 in file "../../../../../kaynak/gorev.c"
  3106 ;; Parameters:    Size  Location     Type
  3107 ;;  is              2   20[COMRAM] PTR FTN(PTR void ,)unsig
  3108 ;;		 -> gostergeGuncelle(1), gostergeDegeriGuncelle(1), karaSimsekHiziOkuma(1), karaSimsek(1), 
  3109 ;;		 -> ledCakarlama2(1), ledCakarlama1(1), 
  3110 ;; Auto vars:     Size  Location     Type
  3111 ;;  gkb             1    0[BANK0 ] PTR struct .
  3112 ;;		 -> gorevHeap(32), 
  3113 ;; Return value:  Size  Location     Type
  3114 ;;                  2   20[COMRAM] PTR struct .
  3115 ;; Registers used:
  3116 ;;		wreg, fsr2l, fsr2h, status,2, status,0, prodl, prodh, cstack
  3117 ;; Tracked objects:
  3118 ;;		On entry : 0/0
  3119 ;;		On exit  : 0/0
  3120 ;;		Unchanged: 0/0
  3121 ;; Data sizes:     COMRAM   BANK0   BANK1   BANK2   BANK3   BANK4   BANK5   BANK6   BANK7   BANK8   BANK9  BANK10  BANK1
      +1  BANK12  BANK13  BANK14  BANK15
  3122 ;;      Params:         2       0       0       0       0       0       0       0       0       0       0       0       
      +0       0       0       0       0
  3123 ;;      Locals:         0       1       0       0       0       0       0       0       0       0       0       0       
      +0       0       0       0       0
  3124 ;;      Temps:          0       0       0       0       0       0       0       0       0       0       0       0       
      +0       0       0       0       0
  3125 ;;      Totals:         2       1       0       0       0       0       0       0       0       0       0       0       
      +0       0       0       0       0
  3126 ;;Total ram usage:        3 bytes
  3127 ;; Hardware stack levels used:    1
  3128 ;; Hardware stack levels required when called:    4
  3129 ;; This function calls:
  3130 ;;		_listeyeEkle
  3131 ;; This function is called by:
  3132 ;;		_main
  3133 ;; This function uses a non-reentrant model
  3134 ;;
  3135                           
  3136                           	psect	text16
  3137  001AB0                     __ptext16:
  3138                           	callstack 0
  3139  001AB0                     _gorevOlustur:
  3140                           	callstack 26
  3141                           
  3142                           ;../../../../../kaynak/gorev.c: 110:     gorev_t *gkb;;../../../../../kaynak/gorev.c: 11
      +                          2:  if(gorevSayimi >= 8) return ((void*)0);
  3143                           
  3144                           ; BSR set to: 0
  3145                           ;incstack = 0
  3146  001AB0  0E07               	movlw	7
  3147  001AB2  642F               	cpfsgt	_gorevSayimi^0,c
  3148  001AB4  D001               	goto	l3161
  3149  001AB6  0012               	return	
  3150  001AB8                     l3161:
  3151                           
  3152                           ;../../../../../kaynak/gorev.c: 113:     gkb = &gorevHeap[gorevSayimi++];
  3153  001AB8  502F               	movf	_gorevSayimi^0,w,c
  3154  001ABA  0D04               	mullw	4
  3155  001ABC  50F3               	movf	243,w,c
  3156  001ABE  0F60               	addlw	low _gorevHeap
  3157  001AC0  0100               	movlb	0	; () banked
  3158  001AC2  6F90               	movwf	gorevOlustur@gkb& (0+255),b
  3159                           
  3160                           ; BSR set to: 0
  3161  001AC4  2A2F               	incf	_gorevSayimi^0,f,c
  3162                           
  3163                           ; BSR set to: 0
  3164                           ;../../../../../kaynak/gorev.c: 114:  gkb->is = is;
  3165  001AC6  5190               	movf	gorevOlustur@gkb& (0+255),w,b
  3166  001AC8  6ED9               	movwf	fsr2l,c
  3167  001ACA  6ADA               	clrf	fsr2h,c
  3168  001ACC  0E02               	movlw	2
  3169  001ACE  26D9               	addwf	fsr2l,f,c
  3170  001AD0  C04F  FFDE         	movff	gorevOlustur@is,postinc2
  3171  001AD4  C050  FFDD         	movff	gorevOlustur@is+1,postdec2
  3172                           
  3173                           ; BSR set to: 0
  3174                           ;../../../../../kaynak/gorev.c: 115:  ( (gorev_t*) gkb )->sn = 0;
  3175  001AD8  5190               	movf	gorevOlustur@gkb& (0+255),w,b
  3176  001ADA  6ED9               	movwf	fsr2l,c
  3177  001ADC  6ADA               	clrf	fsr2h,c
  3178  001ADE  0E00               	movlw	0
  3179  001AE0  6EDE               	movwf	postinc2,c
  3180  001AE2  0E00               	movlw	0
  3181  001AE4  6EDD               	movwf	postdec2,c
  3182                           
  3183                           ; BSR set to: 0
  3184                           ;../../../../../kaynak/gorev.c: 116:     listeyeEkle(calisanListesi, &calisanSayimi, 8, 
      +                          gkb);
  3185  001AE6  0E80               	movlw	low _calisanListesi
  3186  001AE8  6E49               	movwf	listeyeEkle@liste^0,c
  3187  001AEA  0E3A               	movlw	low _calisanSayimi
  3188  001AEC  6E4A               	movwf	listeyeEkle@sayim^0,c
  3189  001AEE  0E08               	movlw	8
  3190  001AF0  6E4B               	movwf	listeyeEkle@max^0,c
  3191  001AF2  C090  F04C         	movff	gorevOlustur@gkb,listeyeEkle@glo
  3192  001AF6  6A4D               	clrf	(listeyeEkle@glo+1)^0,c
  3193  001AF8  EC9F  F00D         	call	_listeyeEkle	;wreg free
  3194  001AFC  0012               	return		;funcret
  3195  001AFE                     __end_of_gorevOlustur:
  3196                           	callstack 0
  3197                           
  3198 ;; *************** function _listeyeEkle *****************
  3199 ;; Defined at:
  3200 ;;		line 68 in file "../../../../../kaynak/gorev.c"
  3201 ;; Parameters:    Size  Location     Type
  3202 ;;  liste           1   14[COMRAM] PTR PTR struct .
  3203 ;;		 -> cikanListesi(6), calisanListesi(16), 
  3204 ;;  sayim           1   15[COMRAM] PTR unsigned char 
  3205 ;;		 -> cikanSayimi(1), calisanSayimi(1), 
  3206 ;;  max             1   16[COMRAM] unsigned char 
  3207 ;;  glo             2   17[COMRAM] PTR struct .
  3208 ;;		 -> gorevHeap(32), NULL(0), 
  3209 ;; Auto vars:     Size  Location     Type
  3210 ;;  cSayim          1   19[COMRAM] const unsigned char 
  3211 ;; Return value:  Size  Location     Type
  3212 ;;                  1    wreg      void 
  3213 ;; Registers used:
  3214 ;;		wreg, fsr2l, fsr2h, status,2, status,0, prodl, prodh
  3215 ;; Tracked objects:
  3216 ;;		On entry : 3F/0
  3217 ;;		On exit  : 3F/0
  3218 ;;		Unchanged: 3F/0
  3219 ;; Data sizes:     COMRAM   BANK0   BANK1   BANK2   BANK3   BANK4   BANK5   BANK6   BANK7   BANK8   BANK9  BANK10  BANK1
      +1  BANK12  BANK13  BANK14  BANK15
  3220 ;;      Params:         5       0       0       0       0       0       0       0       0       0       0       0       
      +0       0       0       0       0
  3221 ;;      Locals:         1       0       0       0       0       0       0       0       0       0       0       0       
      +0       0       0       0       0
  3222 ;;      Temps:          0       0       0       0       0       0       0       0       0       0       0       0       
      +0       0       0       0       0
  3223 ;;      Totals:         6       0       0       0       0       0       0       0       0       0       0       0       
      +0       0       0       0       0
  3224 ;;Total ram usage:        6 bytes
  3225 ;; Hardware stack levels used:    1
  3226 ;; Hardware stack levels required when called:    3
  3227 ;; This function calls:
  3228 ;;		Nothing
  3229 ;; This function is called by:
  3230 ;;		_gorevOlustur
  3231 ;;		_gorevciyiBaslat
  3232 ;; This function uses a non-reentrant model
  3233 ;;
  3234                           
  3235                           	psect	text17
  3236  001B3E                     __ptext17:
  3237                           	callstack 0
  3238  001B3E                     _listeyeEkle:
  3239                           	callstack 25
  3240                           
  3241                           ; BSR set to: 0
  3242                           ;../../../../../kaynak/gorev.c: 68: static void listeyeEkle(gorevListeOgesi_t liste[],;.
      +                          ./../../../../kaynak/gorev.c: 69:         char *sayim, char max, gorevListeOgesi_t glo) 
      +                          {;../../../../../kaynak/gorev.c: 71:     const char cSayim = *sayim;
  3243                           
  3244                           ;incstack = 0
  3245  001B3E  504A               	movf	listeyeEkle@sayim^0,w,c
  3246  001B40  6ED9               	movwf	fsr2l,c
  3247  001B42  6ADA               	clrf	fsr2h,c
  3248  001B44  50DF               	movf	indf2,w,c
  3249  001B46  6E4E               	movwf	listeyeEkle@cSayim^0,c
  3250                           
  3251                           ; BSR set to: 0
  3252                           ;../../../../../kaynak/gorev.c: 74:     if(cSayim >= max) return;
  3253  001B48  504B               	movf	listeyeEkle@max^0,w,c
  3254  001B4A  5C4E               	subwf	listeyeEkle@cSayim^0,w,c
  3255  001B4C  B0D8               	btfsc	status,0,c
  3256  001B4E  0012               	return	
  3257                           
  3258                           ; BSR set to: 0
  3259                           ;../../../../../kaynak/gorev.c: 76:     liste[cSayim] = glo;
  3260  001B50  504E               	movf	listeyeEkle@cSayim^0,w,c
  3261  001B52  0D02               	mullw	2
  3262  001B54  5049               	movf	listeyeEkle@liste^0,w,c
  3263  001B56  24F3               	addwf	243,w,c
  3264  001B58  6ED9               	movwf	fsr2l,c
  3265  001B5A  6ADA               	clrf	fsr2h,c
  3266  001B5C  C04C  FFDE         	movff	listeyeEkle@glo,postinc2
  3267  001B60  C04D  FFDD         	movff	listeyeEkle@glo+1,postdec2
  3268                           
  3269                           ; BSR set to: 0
  3270                           ;../../../../../kaynak/gorev.c: 77:     (*sayim)++;
  3271  001B64  504A               	movf	listeyeEkle@sayim^0,w,c
  3272  001B66  6ED9               	movwf	fsr2l,c
  3273  001B68  6ADA               	clrf	fsr2h,c
  3274  001B6A  2ADF               	incf	indf2,f,c
  3275                           
  3276                           ; BSR set to: 0
  3277  001B6C  0012               	return		;funcret
  3278  001B6E                     __end_of_listeyeEkle:
  3279                           	callstack 0
  3280                           
  3281 ;; *************** function _interruptYonetici *****************
  3282 ;; Defined at:
  3283 ;;		line 50 in file "interrupt.c"
  3284 ;; Parameters:    Size  Location     Type
  3285 ;;		None
  3286 ;; Auto vars:     Size  Location     Type
  3287 ;;		None
  3288 ;; Return value:  Size  Location     Type
  3289 ;;                  1    wreg      void 
  3290 ;; Registers used:
  3291 ;;		wreg, fsr0l, fsr0h, fsr1l, fsr1h, fsr1l, fsr1h, fsr2l, fsr2h, status,2, status,0, pclath, btemp, btemp+1, btemp+2, b
      +temp+3, btemp+4, btemp+5, btemp+6, btemp+7, btemp+8, btemp+9, btemp+10, btemp+11, btemp+12, btemp+13, btemp+14, btemp+15
      +, btemp+16, btemp+17, btemp+18, btemp+19, btemp+20, btemp+21, btemp+22, btemp+23, btemp+24, btemp+25, btemp+26, btemp+27
      +, btemp+28, btemp+29, btemp+30, btemp+31, tosl, structret, tblptrl, tblptrh, tblptru, prodl, prodh, bsr, cstack
  3292 ;; Tracked objects:
  3293 ;;		On entry : 0/0
  3294 ;;		On exit  : 0/0
  3295 ;;		Unchanged: 0/0
  3296 ;; Data sizes:     COMRAM   BANK0   BANK1   BANK2   BANK3   BANK4   BANK5   BANK6   BANK7   BANK8   BANK9  BANK10  BANK1
      +1  BANK12  BANK13  BANK14  BANK15
  3297 ;;      Params:         0       0       0       0       0       0       0       0       0       0       0       0       
      +0       0       0       0       0
  3298 ;;      Locals:         0       0       0       0       0       0       0       0       0       0       0       0       
      +0       0       0       0       0
  3299 ;;      Temps:         14       0       0       0       0       0       0       0       0       0       0       0       
      +0       0       0       0       0
  3300 ;;      Totals:        14       0       0       0       0       0       0       0       0       0       0       0       
      +0       0       0       0       0
  3301 ;;Total ram usage:       14 bytes
  3302 ;; Hardware stack levels used:    1
  3303 ;; Hardware stack levels required when called:    2
  3304 ;; This function calls:
  3305 ;;		Absolute function
  3306 ;;		_sisTimerKesmeIsleyici
  3307 ;; This function is called by:
  3308 ;;		Interrupt level 2
  3309 ;; This function uses a non-reentrant model
  3310 ;;
  3311                           
  3312                           	psect	intcode
  3313  000008                     __pintcode:
  3314                           	callstack 0
  3315  000008                     _interruptYonetici:
  3316                           	callstack 24
  3317                           
  3318                           ; BSR set to: 0
  3319                           ;incstack = 0
  3320  000008  8251               	bsf	btemp,1,c	;set compiler interrupt flag (level 2)
  3321  00000A  CFFA F03B          	movff	pclath,??_interruptYonetici
  3322  00000E  CFFB F03C          	movff	pclatu,??_interruptYonetici+1
  3323  000012  CFE9 F03D          	movff	fsr0l,??_interruptYonetici+2
  3324  000016  CFEA F03E          	movff	fsr0h,??_interruptYonetici+3
  3325  00001A  CFE1 F03F          	movff	fsr1l,??_interruptYonetici+4
  3326  00001E  CFE2 F040          	movff	fsr1h,??_interruptYonetici+5
  3327  000022  CFD9 F041          	movff	fsr2l,??_interruptYonetici+6
  3328  000026  CFDA F042          	movff	fsr2h,??_interruptYonetici+7
  3329  00002A  CFF3 F043          	movff	prodl,??_interruptYonetici+8
  3330  00002E  CFF4 F044          	movff	prodh,??_interruptYonetici+9
  3331  000032  CFF6 F045          	movff	tblptrl,??_interruptYonetici+10
  3332  000036  CFF7 F046          	movff	tblptrh,??_interruptYonetici+11
  3333  00003A  CFF8 F047          	movff	tblptru,??_interruptYonetici+12
  3334  00003E  CFF5 F048          	movff	tablat,??_interruptYonetici+13
  3335                           
  3336                           ;interrupt.c: 52:     if(INTCONbits.TMR0IF == 1 && INTCONbits.TMR0IF == 1){
  3337  000042  B4F2               	btfsc	242,2,c	;volatile
  3338  000044  A4F2               	btfss	242,2,c	;volatile
  3339  000046  D00C               	goto	i2l39
  3340                           
  3341                           ;interrupt.c: 53:         TMR0IF = 0;
  3342  000048  94F2               	bcf	4082,2,c	;volatile
  3343                           
  3344                           ;interrupt.c: 54:         (*timer0KesmeIsleyici)();
  3345  00004A  D801               	call	i2u68_48
  3346  00004C  D014               	goto	i2l46
  3347  00004E                     i2u68_48:
  3348  00004E  0005               	push	
  3349  000050  6EFA               	movwf	pclath,c
  3350  000052  5027               	movf	_timer0KesmeIsleyici^0,w,c
  3351  000054  6EFD               	movwf	tosl,c
  3352  000056  5028               	movf	(_timer0KesmeIsleyici+1)^0,w,c
  3353  000058  6EFE               	movwf	tosh,c
  3354  00005A  6AFF               	clrf	tosu,c
  3355  00005C  50FA               	movf	pclath,w,c
  3356  00005E  0012               	return		;indir
  3357  000060                     i2l39:
  3358  000060  ACF2               	btfss	242,6,c	;volatile
  3359  000062  D009               	goto	i2l46
  3360                           
  3361                           ;interrupt.c: 57:         if(PIE1bits.RCIE == 1 && PIR1bits.RCIF == 1){
  3362  000064  BA9D               	btfsc	157,5,c	;volatile
  3363  000066  AA9E               	btfss	158,5,c	;volatile
  3364  000068  D002               	goto	i2l42
  3365                           
  3366                           ;interrupt.c: 58:             RCIF = 0;
  3367  00006A  9A9E               	bcf	3998,5,c	;volatile
  3368                           
  3369                           ;interrupt.c: 59:         }
  3370  00006C  D004               	goto	i2l46
  3371  00006E                     i2l42:
  3372  00006E  B89D               	btfsc	3997,4,c	;volatile
  3373  000070  A89E               	btfss	3998,4,c	;volatile
  3374  000072  D001               	goto	i2l46
  3375                           
  3376                           ;interrupt.c: 61:             TXIF = 0;
  3377  000074  989E               	bcf	3998,4,c	;volatile
  3378  000076                     i2l46:
  3379  000076  C048  FFF5         	movff	??_interruptYonetici+13,tablat
  3380  00007A  C047  FFF8         	movff	??_interruptYonetici+12,tblptru
  3381  00007E  C046  FFF7         	movff	??_interruptYonetici+11,tblptrh
  3382  000082  C045  FFF6         	movff	??_interruptYonetici+10,tblptrl
  3383  000086  C044  FFF4         	movff	??_interruptYonetici+9,prodh
  3384  00008A  C043  FFF3         	movff	??_interruptYonetici+8,prodl
  3385  00008E  C042  FFDA         	movff	??_interruptYonetici+7,fsr2h
  3386  000092  C041  FFD9         	movff	??_interruptYonetici+6,fsr2l
  3387  000096  C040  FFE2         	movff	??_interruptYonetici+5,fsr1h
  3388  00009A  C03F  FFE1         	movff	??_interruptYonetici+4,fsr1l
  3389  00009E  C03E  FFEA         	movff	??_interruptYonetici+3,fsr0h
  3390  0000A2  C03D  FFE9         	movff	??_interruptYonetici+2,fsr0l
  3391  0000A6  C03C  FFFB         	movff	??_interruptYonetici+1,pclatu
  3392  0000AA  C03B  FFFA         	movff	??_interruptYonetici,pclath
  3393  0000AE  9251               	bcf	btemp,1,c	;clear compiler interrupt flag (level 2)
  3394  0000B0  0011               	retfie		f
  3395  0000B2                     __end_of_interruptYonetici:
  3396                           	callstack 0
  3397                           
  3398 ;; *************** function _sisTimerKesmeIsleyici *****************
  3399 ;; Defined at:
  3400 ;;		line 125 in file "sistimer.c"
  3401 ;; Parameters:    Size  Location     Type
  3402 ;;		None
  3403 ;; Auto vars:     Size  Location     Type
  3404 ;;		None
  3405 ;; Return value:  Size  Location     Type
  3406 ;;                  1    wreg      void 
  3407 ;; Registers used:
  3408 ;;		wreg, fsr0l, fsr0h, fsr1l, fsr1h, fsr1l, fsr1h, fsr2l, fsr2h, status,2, status,0, pclath, btemp, btemp+1, btemp+2, b
      +temp+3, btemp+4, btemp+5, btemp+6, btemp+7, btemp+8, btemp+9, btemp+10, btemp+11, btemp+12, btemp+13, btemp+14, btemp+15
      +, btemp+16, btemp+17, btemp+18, btemp+19, btemp+20, btemp+21, btemp+22, btemp+23, btemp+24, btemp+25, btemp+26, btemp+27
      +, btemp+28, btemp+29, btemp+30, btemp+31, tosl, structret, tblptrl, tblptrh, tblptru, prodl, prodh, bsr, cstack
  3409 ;; Tracked objects:
  3410 ;;		On entry : 0/0
  3411 ;;		On exit  : 0/0
  3412 ;;		Unchanged: 0/0
  3413 ;; Data sizes:     COMRAM   BANK0   BANK1   BANK2   BANK3   BANK4   BANK5   BANK6   BANK7   BANK8   BANK9  BANK10  BANK1
      +1  BANK12  BANK13  BANK14  BANK15
  3414 ;;      Params:         0       0       0       0       0       0       0       0       0       0       0       0       
      +0       0       0       0       0
  3415 ;;      Locals:         0       0       0       0       0       0       0       0       0       0       0       0       
      +0       0       0       0       0
  3416 ;;      Temps:          0       0       0       0       0       0       0       0       0       0       0       0       
      +0       0       0       0       0
  3417 ;;      Totals:         0       0       0       0       0       0       0       0       0       0       0       0       
      +0       0       0       0       0
  3418 ;;Total ram usage:        0 bytes
  3419 ;; Hardware stack levels used:    1
  3420 ;; Hardware stack levels required when called:    1
  3421 ;; This function calls:
  3422 ;;		Absolute function
  3423 ;;		_sisTikKesmeIsleyici
  3424 ;;		_sisTimerIsleyiciVarsayilan
  3425 ;; This function is called by:
  3426 ;;		_sisTimerIlkle
  3427 ;;		_interruptYonetici
  3428 ;; This function uses a non-reentrant model
  3429 ;;
  3430                           
  3431                           	psect	text19
  3432  001B90                     __ptext19:
  3433                           	callstack 0
  3434  001B90                     _sisTimerKesmeIsleyici:
  3435                           	callstack 24
  3436                           
  3437                           ;sistimer.c: 127:     TMR0 = (uint16_t) ((uint16_t)((65536)-((( 1000u - ( ( ( 52 ) * ( (
      +                           1 * ( 100 ) ) / ( (16000000 / 4 ) / 1000000 ) ) ) / ( 100 ) ) )* (16000000/1000000))/(4
      +                          *(1)))-1));
  3438                           
  3439                           ;incstack = 0
  3440  001B90  0EF0               	movlw	240
  3441  001B92  6ED7               	movwf	215,c	;volatile
  3442  001B94  0E93               	movlw	147
  3443  001B96  6ED6               	movwf	214,c	;volatile
  3444                           
  3445                           ;sistimer.c: 131:     (*sisTimerDisIsleyici)();
  3446  001B98  D801               	call	i2u64_48
  3447  001B9A  0012               	return	
  3448  001B9C                     i2u64_48:
  3449  001B9C  0005               	push	
  3450  001B9E  6EFA               	movwf	pclath,c
  3451  001BA0  5021               	movf	_sisTimerDisIsleyici^0,w,c
  3452  001BA2  6EFD               	movwf	tosl,c
  3453  001BA4  5022               	movf	(_sisTimerDisIsleyici+1)^0,w,c
  3454  001BA6  6EFE               	movwf	tosh,c
  3455  001BA8  6AFF               	clrf	tosu,c
  3456  001BAA  50FA               	movf	pclath,w,c
  3457  001BAC  0012               	return		;indir
  3458  001BAE                     __end_of_sisTimerKesmeIsleyici:
  3459                           	callstack 0
  3460                           
  3461 ;; *************** function _sisTikKesmeIsleyici *****************
  3462 ;; Defined at:
  3463 ;;		line 161 in file "../../../../../kaynak/gorev.c"
  3464 ;; Parameters:    Size  Location     Type
  3465 ;;		None
  3466 ;; Auto vars:     Size  Location     Type
  3467 ;;		None
  3468 ;; Return value:  Size  Location     Type
  3469 ;;                  1    wreg      void 
  3470 ;; Registers used:
  3471 ;;		status,2, status,0
  3472 ;; Tracked objects:
  3473 ;;		On entry : 0/0
  3474 ;;		On exit  : 0/0
  3475 ;;		Unchanged: 0/0
  3476 ;; Data sizes:     COMRAM   BANK0   BANK1   BANK2   BANK3   BANK4   BANK5   BANK6   BANK7   BANK8   BANK9  BANK10  BANK1
      +1  BANK12  BANK13  BANK14  BANK15
  3477 ;;      Params:         0       0       0       0       0       0       0       0       0       0       0       0       
      +0       0       0       0       0
  3478 ;;      Locals:         0       0       0       0       0       0       0       0       0       0       0       0       
      +0       0       0       0       0
  3479 ;;      Temps:          0       0       0       0       0       0       0       0       0       0       0       0       
      +0       0       0       0       0
  3480 ;;      Totals:         0       0       0       0       0       0       0       0       0       0       0       0       
      +0       0       0       0       0
  3481 ;;Total ram usage:        0 bytes
  3482 ;; Hardware stack levels used:    1
  3483 ;; This function calls:
  3484 ;;		Nothing
  3485 ;; This function is called by:
  3486 ;;		_portGorevciyiBaslat
  3487 ;;		_sisTimerKesmeIsleyici
  3488 ;; This function uses a non-reentrant model
  3489 ;;
  3490                           
  3491                           	psect	text20
  3492  001BFA                     __ptext20:
  3493                           	callstack 0
  3494  001BFA                     _sisTikKesmeIsleyici:
  3495                           	callstack 24
  3496                           
  3497                           ;../../../../../kaynak/gorev.c: 162:  tikSayimi++;
  3498                           
  3499                           ;incstack = 0
  3500  001BFA  4A1F               	infsnz	_tikSayimi^0,f,c
  3501  001BFC  2A20               	incf	(_tikSayimi+1)^0,f,c
  3502  001BFE  0012               	return		;funcret
  3503  001C00                     __end_of_sisTikKesmeIsleyici:
  3504                           	callstack 0
  3505                           
  3506 ;; *************** function _sisTimerIsleyiciVarsayilan *****************
  3507 ;; Defined at:
  3508 ;;		line 121 in file "sistimer.c"
  3509 ;; Parameters:    Size  Location     Type
  3510 ;;		None
  3511 ;; Auto vars:     Size  Location     Type
  3512 ;;		None
  3513 ;; Return value:  Size  Location     Type
  3514 ;;                  1    wreg      void 
  3515 ;; Registers used:
  3516 ;;		None
  3517 ;; Tracked objects:
  3518 ;;		On entry : 0/0
  3519 ;;		On exit  : 0/0
  3520 ;;		Unchanged: 0/0
  3521 ;; Data sizes:     COMRAM   BANK0   BANK1   BANK2   BANK3   BANK4   BANK5   BANK6   BANK7   BANK8   BANK9  BANK10  BANK1
      +1  BANK12  BANK13  BANK14  BANK15
  3522 ;;      Params:         0       0       0       0       0       0       0       0       0       0       0       0       
      +0       0       0       0       0
  3523 ;;      Locals:         0       0       0       0       0       0       0       0       0       0       0       0       
      +0       0       0       0       0
  3524 ;;      Temps:          0       0       0       0       0       0       0       0       0       0       0       0       
      +0       0       0       0       0
  3525 ;;      Totals:         0       0       0       0       0       0       0       0       0       0       0       0       
      +0       0       0       0       0
  3526 ;;Total ram usage:        0 bytes
  3527 ;; Hardware stack levels used:    1
  3528 ;; This function calls:
  3529 ;;		Nothing
  3530 ;; This function is called by:
  3531 ;;		_sisTimerIlkle
  3532 ;;		_sisTimerKesmeIsleyici
  3533 ;; This function uses a non-reentrant model
  3534 ;;
  3535                           
  3536                           	psect	text21
  3537  001C04                     __ptext21:
  3538                           	callstack 0
  3539  001C04                     _sisTimerIsleyiciVarsayilan:
  3540                           	callstack 24
  3541                           
  3542                           ;incstack = 0
  3543  001C04  0012               	return		;funcret
  3544  001C06                     __end_of_sisTimerIsleyiciVarsayilan:
  3545                           	callstack 0
  3546                           
  3547                           	psect	text22
  3548  000000                     __ptext22:
  3549                           	callstack 0
  3550                           
  3551                           	psect	rparam
  3552  0000                     
  3553                           	psect	temp
  3554  000051                     btemp:
  3555                           	callstack 0
  3556  000051                     	ds	1
  3557  0000                     int$flags	set	btemp
  3558  0000                     wtemp8	set	btemp+1
  3559  0000                     ttemp5	set	btemp+1
  3560  0000                     ttemp6	set	btemp+4
  3561  0000                     ttemp7	set	btemp+8
  3562                           
  3563                           	psect	idloc
  3564                           
  3565                           ;Config register IDLOC0 @ 0x200000
  3566                           ;	unspecified, using default values
  3567  200000                     	org	2097152
  3568  200000  FF                 	db	255
  3569                           
  3570                           ;Config register IDLOC1 @ 0x200001
  3571                           ;	unspecified, using default values
  3572  200001                     	org	2097153
  3573  200001  FF                 	db	255
  3574                           
  3575                           ;Config register IDLOC2 @ 0x200002
  3576                           ;	unspecified, using default values
  3577  200002                     	org	2097154
  3578  200002  FF                 	db	255
  3579                           
  3580                           ;Config register IDLOC3 @ 0x200003
  3581                           ;	unspecified, using default values
  3582  200003                     	org	2097155
  3583  200003  FF                 	db	255
  3584                           
  3585                           ;Config register IDLOC4 @ 0x200004
  3586                           ;	unspecified, using default values
  3587  200004                     	org	2097156
  3588  200004  FF                 	db	255
  3589                           
  3590                           ;Config register IDLOC5 @ 0x200005
  3591                           ;	unspecified, using default values
  3592  200005                     	org	2097157
  3593  200005  FF                 	db	255
  3594                           
  3595                           ;Config register IDLOC6 @ 0x200006
  3596                           ;	unspecified, using default values
  3597  200006                     	org	2097158
  3598  200006  FF                 	db	255
  3599                           
  3600                           ;Config register IDLOC7 @ 0x200007
  3601                           ;	unspecified, using default values
  3602  200007                     	org	2097159
  3603  200007  FF                 	db	255
  3604                           
  3605                           	psect	config
  3606                           
  3607                           ; Padding undefined space
  3608  300000                     	org	3145728
  3609  300000  FF                 	db	255
  3610                           
  3611                           ;Config register CONFIG1H @ 0x300001
  3612                           ;	Oscillator Selection bits
  3613                           ;	FOSC = INTIO67, Internal oscillator block
  3614                           ;	4X PLL Enable
  3615                           ;	PLLCFG = ON, Oscillator multiplied by 4
  3616                           ;	Primary clock enable bit
  3617                           ;	PRICLKEN = ON, Primary clock is always enabled
  3618                           ;	Fail-Safe Clock Monitor Enable bit
  3619                           ;	FCMEN = OFF, Fail-Safe Clock Monitor disabled
  3620                           ;	Internal/External Oscillator Switchover bit
  3621                           ;	IESO = OFF, Oscillator Switchover mode disabled
  3622  300001                     	org	3145729
  3623  300001  38                 	db	56
  3624                           
  3625                           ;Config register CONFIG2L @ 0x300002
  3626                           ;	Power-up Timer Enable bit
  3627                           ;	PWRTEN = ON, Power up timer enabled
  3628                           ;	Brown-out Reset Enable bits
  3629                           ;	BOREN = SBORDIS, Brown-out Reset enabled in hardware only (SBOREN is disabled)
  3630                           ;	Brown Out Reset Voltage bits
  3631                           ;	BORV = 250, VBOR set to 2.50 V nominal
  3632  300002                     	org	3145730
  3633  300002  0E                 	db	14
  3634                           
  3635                           ;Config register CONFIG2H @ 0x300003
  3636                           ;	Watchdog Timer Enable bits
  3637                           ;	WDTEN = OFF, Watch dog timer is always disabled. SWDTEN has no effect.
  3638                           ;	Watchdog Timer Postscale Select bits
  3639                           ;	WDTPS = 32768, 1:32768
  3640  300003                     	org	3145731
  3641  300003  3C                 	db	60
  3642                           
  3643                           ; Padding undefined space
  3644  300004                     	org	3145732
  3645  300004  FF                 	db	255
  3646                           
  3647                           ;Config register CONFIG3H @ 0x300005
  3648                           ;	CCP2 MUX bit
  3649                           ;	CCP2MX = PORTC1, CCP2 input/output is multiplexed with RC1
  3650                           ;	PORTB A/D Enable bit
  3651                           ;	PBADEN = OFF, PORTB<5:0> pins are configured as digital I/O on Reset
  3652                           ;	P3A/CCP3 Mux bit
  3653                           ;	CCP3MX = PORTB5, P3A/CCP3 input/output is multiplexed with RB5
  3654                           ;	HFINTOSC Fast Start-up
  3655                           ;	HFOFST = ON, HFINTOSC output and ready status are not delayed by the oscillator stable
      +                           status
  3656                           ;	Timer3 Clock input mux bit
  3657                           ;	T3CMX = PORTC0, T3CKI is on RC0
  3658                           ;	ECCP2 B output mux bit
  3659                           ;	P2BMX = PORTD2, P2B is on RD2
  3660                           ;	MCLR Pin Enable bit
  3661                           ;	MCLRE = INTMCLR, RE3 input pin enabled; MCLR disabled
  3662  300005                     	org	3145733
  3663  300005  3D                 	db	61
  3664                           
  3665                           ;Config register CONFIG4L @ 0x300006
  3666                           ;	Stack Full/Underflow Reset Enable bit
  3667                           ;	STVREN = ON, Stack full/underflow will cause Reset
  3668                           ;	Single-Supply ICSP Enable bit
  3669                           ;	LVP = ON, Single-Supply ICSP enabled if MCLRE is also 1
  3670                           ;	Extended Instruction Set Enable bit
  3671                           ;	XINST = OFF, Instruction set extension and Indexed Addressing mode disabled (Legacy mo
      +                          de)
  3672                           ;	Background Debug
  3673                           ;	DEBUG = OFF, Disabled
  3674  300006                     	org	3145734
  3675  300006  85                 	db	133
  3676                           
  3677                           ; Padding undefined space
  3678  300007                     	org	3145735
  3679  300007  FF                 	db	255
  3680                           
  3681                           ;Config register CONFIG5L @ 0x300008
  3682                           ;	Code Protection Block 0
  3683                           ;	CP0 = OFF, Block 0 (000800-003FFFh) not code-protected
  3684                           ;	Code Protection Block 1
  3685                           ;	CP1 = OFF, Block 1 (004000-007FFFh) not code-protected
  3686                           ;	Code Protection Block 2
  3687                           ;	CP2 = OFF, Block 2 (008000-00BFFFh) not code-protected
  3688                           ;	Code Protection Block 3
  3689                           ;	CP3 = OFF, Block 3 (00C000-00FFFFh) not code-protected
  3690  300008                     	org	3145736
  3691  300008  0F                 	db	15
  3692                           
  3693                           ;Config register CONFIG5H @ 0x300009
  3694                           ;	Boot Block Code Protection bit
  3695                           ;	CPB = OFF, Boot block (000000-0007FFh) not code-protected
  3696                           ;	Data EEPROM Code Protection bit
  3697                           ;	CPD = OFF, Data EEPROM not code-protected
  3698  300009                     	org	3145737
  3699  300009  C0                 	db	192
  3700                           
  3701                           ;Config register CONFIG6L @ 0x30000A
  3702                           ;	Write Protection Block 0
  3703                           ;	WRT0 = OFF, Block 0 (000800-003FFFh) not write-protected
  3704                           ;	Write Protection Block 1
  3705                           ;	WRT1 = OFF, Block 1 (004000-007FFFh) not write-protected
  3706                           ;	Write Protection Block 2
  3707                           ;	WRT2 = OFF, Block 2 (008000-00BFFFh) not write-protected
  3708                           ;	Write Protection Block 3
  3709                           ;	WRT3 = OFF, Block 3 (00C000-00FFFFh) not write-protected
  3710  30000A                     	org	3145738
  3711  30000A  0F                 	db	15
  3712                           
  3713                           ;Config register CONFIG6H @ 0x30000B
  3714                           ;	Configuration Register Write Protection bit
  3715                           ;	WRTC = OFF, Configuration registers (300000-3000FFh) not write-protected
  3716                           ;	Boot Block Write Protection bit
  3717                           ;	WRTB = OFF, Boot Block (000000-0007FFh) not write-protected
  3718                           ;	Data EEPROM Write Protection bit
  3719                           ;	WRTD = OFF, Data EEPROM not write-protected
  3720  30000B                     	org	3145739
  3721  30000B  E0                 	db	224
  3722                           
  3723                           ;Config register CONFIG7L @ 0x30000C
  3724                           ;	Table Read Protection Block 0
  3725                           ;	EBTR0 = OFF, Block 0 (000800-003FFFh) not protected from table reads executed in other
      +                           blocks
  3726                           ;	Table Read Protection Block 1
  3727                           ;	EBTR1 = OFF, Block 1 (004000-007FFFh) not protected from table reads executed in other
      +                           blocks
  3728                           ;	Table Read Protection Block 2
  3729                           ;	EBTR2 = OFF, Block 2 (008000-00BFFFh) not protected from table reads executed in other
      +                           blocks
  3730                           ;	Table Read Protection Block 3
  3731                           ;	EBTR3 = OFF, Block 3 (00C000-00FFFFh) not protected from table reads executed in other
      +                           blocks
  3732  30000C                     	org	3145740
  3733  30000C  0F                 	db	15
  3734                           
  3735                           ;Config register CONFIG7H @ 0x30000D
  3736                           ;	Boot Block Table Read Protection bit
  3737                           ;	EBTRB = OFF, Boot Block (000000-0007FFh) not protected from table reads executed in ot
      +                          her blocks
  3738  30000D                     	org	3145741
  3739  30000D  40                 	db	64
  3740                           tosu	equ	0xFFF
  3741                           tosh	equ	0xFFE
  3742                           tosl	equ	0xFFD
  3743                           stkptr	equ	0xFFC
  3744                           pclatu	equ	0xFFB
  3745                           pclath	equ	0xFFA
  3746                           pcl	equ	0xFF9
  3747                           tblptru	equ	0xFF8
  3748                           tblptrh	equ	0xFF7
  3749                           tblptrl	equ	0xFF6
  3750                           tablat	equ	0xFF5
  3751                           prodh	equ	0xFF4
  3752                           prodl	equ	0xFF3
  3753                           indf0	equ	0xFEF
  3754                           postinc0	equ	0xFEE
  3755                           postdec0	equ	0xFED
  3756                           preinc0	equ	0xFEC
  3757                           plusw0	equ	0xFEB
  3758                           fsr0h	equ	0xFEA
  3759                           fsr0l	equ	0xFE9
  3760                           wreg	equ	0xFE8
  3761                           indf1	equ	0xFE7
  3762                           postinc1	equ	0xFE6
  3763                           postdec1	equ	0xFE5
  3764                           preinc1	equ	0xFE4
  3765                           plusw1	equ	0xFE3
  3766                           fsr1h	equ	0xFE2
  3767                           fsr1l	equ	0xFE1
  3768                           bsr	equ	0xFE0
  3769                           indf2	equ	0xFDF
  3770                           postinc2	equ	0xFDE
  3771                           postdec2	equ	0xFDD
  3772                           preinc2	equ	0xFDC
  3773                           plusw2	equ	0xFDB
  3774                           fsr2h	equ	0xFDA
  3775                           fsr2l	equ	0xFD9
  3776                           status	equ	0xFD8

Data Sizes:
    Strings     0
    Constant    48
    Data        0
    BSS         106
    Persistent  0
    Stack       0

Auto Spaces:
    Space          Size  Autos    Used
    COMRAM           94     22      80
    BANK0           160     13      61
    BANK1           256      0       0
    BANK2           256      0       0
    BANK3           256      0       0
    BANK4           256      0       0
    BANK5           256      0       0
    BANK6           256      0       0
    BANK7           256      0       0
    BANK8           256      0       0
    BANK9           256      0       0
    BANK10          256      0       0
    BANK11          256      0       0
    BANK12          256      0       0
    BANK13          256      0       0
    BANK14          256      0       0
    BANK15           56      0       0

Pointer List with Targets:

    cikanListesi.is	PTR FTN(PTR void ,)unsigned char  size(2) Largest target is 0
		 -> gostergeGuncelle(), gostergeDegeriGuncelle(), karaSimsekHiziOkuma(), karaSimsek(), 
		 -> ledCakarlama2(), ledCakarlama1(), 

    is$0	PTR void  size(2) Largest target is 32
		 -> gorevHeap(BANK0[32]), NULL(NULL[0]), 

    S388$1$0	PTR void  size(2) Largest target is 32
		 -> gorevHeap(BANK0[32]), NULL(NULL[0]), 

    ?_gorevOlustur.is	PTR FTN(PTR void ,)unsigned char  size(2) Largest target is 1
		 -> gostergeGuncelle(), gostergeDegeriGuncelle(), karaSimsekHiziOkuma(), karaSimsek(), 
		 -> ledCakarlama2(), ledCakarlama1(), 

    gostergeGuncelle@tutucu.is	PTR FTN(PTR void ,)unsigned char  size(2) Largest target is 1
		 -> gostergeGuncelle(), gostergeDegeriGuncelle(), karaSimsekHiziOkuma(), karaSimsek(), 
		 -> ledCakarlama2(), ledCakarlama1(), 

    gostergeGuncelle@tutucu	PTR void  size(2) Largest target is 32
		 -> gorevHeap(BANK0[32]), NULL(NULL[0]), 

    gostergeDegeriGuncelle@tutucu.is	PTR FTN(PTR void ,)unsigned char  size(2) Largest target is 1
		 -> gostergeGuncelle(), gostergeDegeriGuncelle(), karaSimsekHiziOkuma(), karaSimsek(), 
		 -> ledCakarlama2(), ledCakarlama1(), 

    gostergeDegeriGuncelle@tutucu	PTR void  size(2) Largest target is 32
		 -> gorevHeap(BANK0[32]), NULL(NULL[0]), 

    karaSimsekHiziOkuma@tutucu.is	PTR FTN(PTR void ,)unsigned char  size(2) Largest target is 1
		 -> gostergeGuncelle(), gostergeDegeriGuncelle(), karaSimsekHiziOkuma(), karaSimsek(), 
		 -> ledCakarlama2(), ledCakarlama1(), 

    karaSimsekHiziOkuma@tutucu	PTR void  size(2) Largest target is 32
		 -> gorevHeap(BANK0[32]), NULL(NULL[0]), 

    karaSimsek@tutucu.is	PTR FTN(PTR void ,)unsigned char  size(2) Largest target is 1
		 -> gostergeGuncelle(), gostergeDegeriGuncelle(), karaSimsekHiziOkuma(), karaSimsek(), 
		 -> ledCakarlama2(), ledCakarlama1(), 

    karaSimsek@tutucu	PTR void  size(2) Largest target is 32
		 -> gorevHeap(BANK0[32]), NULL(NULL[0]), 

    ledCakarlama2@tutucu.is	PTR FTN(PTR void ,)unsigned char  size(2) Largest target is 1
		 -> gostergeGuncelle(), gostergeDegeriGuncelle(), karaSimsekHiziOkuma(), karaSimsek(), 
		 -> ledCakarlama2(), ledCakarlama1(), 

    ledCakarlama2@tutucu	PTR void  size(2) Largest target is 32
		 -> gorevHeap(BANK0[32]), NULL(NULL[0]), 

    ledCakarlama1@tutucu.is	PTR FTN(PTR void ,)unsigned char  size(2) Largest target is 1
		 -> gostergeGuncelle(), gostergeDegeriGuncelle(), karaSimsekHiziOkuma(), karaSimsek(), 
		 -> ledCakarlama2(), ledCakarlama1(), 

    ledCakarlama1@tutucu	PTR void  size(2) Largest target is 32
		 -> gorevHeap(BANK0[32]), NULL(NULL[0]), 

    sp__gorevBlogunuAl	PTR struct . size(2) Largest target is 32
		 -> gorevHeap(BANK0[32]), NULL(NULL[0]), 

    gorevHeap.is	PTR FTN(PTR void ,)unsigned char  size(2) Largest target is 1
		 -> gostergeGuncelle(), gostergeDegeriGuncelle(), karaSimsekHiziOkuma(), karaSimsek(), 
		 -> ledCakarlama2(), ledCakarlama1(), 

    cikanListesi	PTR struct .[3] size(2) Largest target is 32
		 -> gorevHeap(BANK0[32]), NULL(NULL[0]), 

    gorevciyiBaslat@glo	PTR struct . size(2) Largest target is 32
		 -> gorevHeap(BANK0[32]), NULL(NULL[0]), 

    calisanListesi.is	PTR FTN(PTR void ,)unsigned char  size(2) Largest target is 1
		 -> gostergeGuncelle(), gostergeDegeriGuncelle(), karaSimsekHiziOkuma(), karaSimsek(), 
		 -> ledCakarlama2(), ledCakarlama1(), 

    sp__gorevOlustur.is	PTR FTN(PTR void ,)unsigned char  size(2) Largest target is 1
		 -> gostergeGuncelle(), gostergeDegeriGuncelle(), karaSimsekHiziOkuma(), karaSimsek(), 
		 -> ledCakarlama2(), ledCakarlama1(), 

    calisanListesi	PTR struct .[8] size(2) Largest target is 32
		 -> gorevHeap(BANK0[32]), NULL(NULL[0]), 

    gorevOlustur@gkb.is	PTR FTN(PTR void ,)unsigned char  size(2) Largest target is 1
		 -> gostergeGuncelle(), gostergeDegeriGuncelle(), karaSimsekHiziOkuma(), karaSimsek(), 
		 -> ledCakarlama2(), ledCakarlama1(), 

    gorevOlustur@is	PTR FTN(PTR void ,)unsigned char  size(2) Largest target is 1
		 -> gostergeGuncelle(), gostergeDegeriGuncelle(), karaSimsekHiziOkuma(), karaSimsek(), 
		 -> ledCakarlama2(), ledCakarlama1(), 

    gorevOlustur@gkb	PTR struct . size(1) Largest target is 32
		 -> gorevHeap(BANK0[32]), 

    sp__gorevOlustur	PTR struct . size(2) Largest target is 32
		 -> gorevHeap(BANK0[32]), NULL(NULL[0]), 

    listedenSil@liste.is	PTR FTN(PTR void ,)unsigned char  size(2) Largest target is 1
		 -> gostergeGuncelle(), gostergeDegeriGuncelle(), karaSimsekHiziOkuma(), karaSimsek(), 
		 -> ledCakarlama2(), ledCakarlama1(), 

    listedenSil@liste	PTR PTR struct . size(1) Largest target is 16
		 -> calisanListesi(BANK0[16]), 

    listedenSil@sayim	PTR unsigned char  size(1) Largest target is 1
		 -> calisanSayimi(COMRAM[1]), 

    S388$is	PTR FTN(PTR void ,)unsigned char  size(2) Largest target is 1
		 -> gostergeGuncelle(), gostergeDegeriGuncelle(), karaSimsekHiziOkuma(), karaSimsek(), 
		 -> ledCakarlama2(), ledCakarlama1(), 

    listeyeEkle@liste.is	PTR FTN(PTR void ,)unsigned char  size(2) Largest target is 1
		 -> gostergeGuncelle(), gostergeDegeriGuncelle(), karaSimsekHiziOkuma(), karaSimsek(), 
		 -> ledCakarlama2(), ledCakarlama1(), 

    listeyeEkle@glo	PTR struct . size(2) Largest target is 32
		 -> gorevHeap(BANK0[32]), NULL(NULL[0]), 

    listeyeEkle@liste	PTR PTR struct . size(1) Largest target is 16
		 -> cikanListesi(COMRAM[6]), calisanListesi(BANK0[16]), 

    listeyeEkle@sayim	PTR unsigned char  size(1) Largest target is 1
		 -> cikanSayimi(COMRAM[1]), calisanSayimi(COMRAM[1]), 

    sisTimerIlkle@isleyici	PTR FTN()void  size(2) Largest target is 1
		 -> sisTikKesmeIsleyici(), 

    sisTimerDisIsleyici	PTR FTN()void  size(2) Largest target is 2
		 -> Absolute function(), sisTikKesmeIsleyici(), sisTimerIlkle@isleyici(COMRAM[2]), sisTimerIsleyiciVarsayilan(), 

    uartRxKesmeIsleyici	PTR FTN()void  size(2) Largest target is 1
		 -> Absolute function(), 

    uartTxKesmeIsleyici	PTR FTN()void  size(2) Largest target is 1
		 -> Absolute function(), 

    timer0KesmeIsleyiciKur@isleyici	PTR FTN()void  size(2) Largest target is 1
		 -> sisTimerKesmeIsleyici(), 

    timer0KesmeIsleyici	PTR FTN()void  size(2) Largest target is 1
		 -> Absolute function(), sisTimerKesmeIsleyici(), 


Critical Paths under _main in COMRAM

    _main->_gorevOlustur
    _sisTimerIlkle->_timer0KesmeIsleyiciKur
    _gorevciyiBaslat->_gostergeGuncelle
    _gorevciyiBaslat->_karaSimsek
    _gorevciyiBaslat->_ledCakarlama1
    _gorevciyiBaslat->_ledCakarlama2
    _karaSimsekHiziOkuma->___lwdiv
    _gostergeDegeriGuncelle->___lwdiv
    _gorevOlustur->_listeyeEkle

Critical Paths under _interruptYonetici in COMRAM

    None.

Critical Paths under _main in BANK0

    _portGorevciyiBaslat->_gorevciyiBaslat
    _gorevciyiBaslat->_gostergeDegeriGuncelle
    _gorevciyiBaslat->_karaSimsekHiziOkuma

Critical Paths under _interruptYonetici in BANK0

    None.

Critical Paths under _main in BANK1

    None.

Critical Paths under _interruptYonetici in BANK1

    None.

Critical Paths under _main in BANK2

    None.

Critical Paths under _interruptYonetici in BANK2

    None.

Critical Paths under _main in BANK3

    None.

Critical Paths under _interruptYonetici in BANK3

    None.

Critical Paths under _main in BANK4

    None.

Critical Paths under _interruptYonetici in BANK4

    None.

Critical Paths under _main in BANK5

    None.

Critical Paths under _interruptYonetici in BANK5

    None.

Critical Paths under _main in BANK6

    None.

Critical Paths under _interruptYonetici in BANK6

    None.

Critical Paths under _main in BANK7

    None.

Critical Paths under _interruptYonetici in BANK7

    None.

Critical Paths under _main in BANK8

    None.

Critical Paths under _interruptYonetici in BANK8

    None.

Critical Paths under _main in BANK9

    None.

Critical Paths under _interruptYonetici in BANK9

    None.

Critical Paths under _main in BANK10

    None.

Critical Paths under _interruptYonetici in BANK10

    None.

Critical Paths under _main in BANK11

    None.

Critical Paths under _interruptYonetici in BANK11

    None.

Critical Paths under _main in BANK12

    None.

Critical Paths under _interruptYonetici in BANK12

    None.

Critical Paths under _main in BANK13

    None.

Critical Paths under _interruptYonetici in BANK13

    None.

Critical Paths under _main in BANK14

    None.

Critical Paths under _interruptYonetici in BANK14

    None.

Critical Paths under _main in BANK15

    None.

Critical Paths under _interruptYonetici in BANK15

    None.

Call Graph Tables:

 ---------------------------------------------------------------------------------
 (Depth) Function   	        Calls       Base Space   Used Autos Params    Refs
 ---------------------------------------------------------------------------------
 (0) _main                                                 0     0      0    6546
                       _gorevOlustur
                _portGorevciyiBaslat
                   _sisOsilatorIlkle
 ---------------------------------------------------------------------------------
 (1) _sisOsilatorIlkle                                     0     0      0       0
 ---------------------------------------------------------------------------------
 (1) _portGorevciyiBaslat                                  0     0      0    4932
                    _gorevciyiBaslat
                     _interruptIlkle
                      _sisTimerIlkle
 ---------------------------------------------------------------------------------
 (2) _sisTimerIlkle                                        2     0      2     220
                                             16 COMRAM     2     0      2
             _timer0KesmeIsleyiciKur
 ---------------------------------------------------------------------------------
 (3) _timer0KesmeIsleyiciKur                               2     0      2      98
                                             14 COMRAM     2     0      2
 ---------------------------------------------------------------------------------
 (2) _interruptIlkle                                       0     0      0       0
 ---------------------------------------------------------------------------------
 (2) _gorevciyiBaslat                                      6     6      0    4712
                                              7 BANK0      6     6      0
             _gostergeDegeriGuncelle *
                   _gostergeGuncelle *
                         _karaSimsek *
                _karaSimsekHiziOkuma *
                      _ledCakarlama1 *
                      _ledCakarlama2 *
                        _listedenSil
                        _listeyeEkle
 ---------------------------------------------------------------------------------
 (3) _listedenSil                                         14    11      3     868
                                             14 COMRAM     5     2      3
                                              0 BANK0      6     6      0
 ---------------------------------------------------------------------------------
 (3) _ledCakarlama2                                        5     3      2     288
                                             21 COMRAM     1     1      0
                                              0 BANK0      4     2      2
                      _tikSayiminiAl
 ---------------------------------------------------------------------------------
 (3) _ledCakarlama1                                        5     3      2     164
                                             21 COMRAM     1     1      0
                                              0 BANK0      4     2      2
                      _tikSayiminiAl
 ---------------------------------------------------------------------------------
 (3) _karaSimsekHiziOkuma                                  7     5      2     929
                                              0 BANK0      7     5      2
                            ___lwdiv
                      _tikSayiminiAl
 ---------------------------------------------------------------------------------
 (3) _karaSimsek                                           5     3      2     133
                                             21 COMRAM     1     1      0
                                              0 BANK0      4     2      2
                      _tikSayiminiAl
 ---------------------------------------------------------------------------------
 (3) _gostergeGuncelle                                     5     3      2     291
                                             21 COMRAM     1     1      0
                                              0 BANK0      4     2      2
                      _tikSayiminiAl
 ---------------------------------------------------------------------------------
 (4) _tikSayiminiAl                                        4     2      2      34
                                             14 COMRAM     4     2      2
 ---------------------------------------------------------------------------------
 (3) _gostergeDegeriGuncelle                               7     5      2     870
                                              0 BANK0      7     5      2
                            ___lwdiv
 ---------------------------------------------------------------------------------
 (4) ___lwdiv                                              7     3      4     601
                                             14 COMRAM     7     3      4
 ---------------------------------------------------------------------------------
 (1) _gorevOlustur                                         3     1      2    1614
                                             20 COMRAM     2     0      2
                                              0 BANK0      1     1      0
                        _listeyeEkle
 ---------------------------------------------------------------------------------
 (3) _listeyeEkle                                          6     1      5     940
                                             14 COMRAM     6     1      5
 ---------------------------------------------------------------------------------
 Estimated maximum stack depth 4
 ---------------------------------------------------------------------------------
 (Depth) Function   	        Calls       Base Space   Used Autos Params    Refs
 ---------------------------------------------------------------------------------
 (5) _interruptYonetici                                   14    14      0       0
                                              0 COMRAM    14    14      0
                   Absolute function *
              _sisTimerKesmeIsleyici *
 ---------------------------------------------------------------------------------
 (6) _sisTimerKesmeIsleyici                                0     0      0       0
                   Absolute function *
                _sisTikKesmeIsleyici *
         _sisTimerIsleyiciVarsayilan *
 ---------------------------------------------------------------------------------
 (7) _sisTimerIsleyiciVarsayilan                           0     0      0       0
 ---------------------------------------------------------------------------------
 (7) _sisTikKesmeIsleyici                                  0     0      0       0
 ---------------------------------------------------------------------------------
 (7) Absolute function(Fake)                               0     0      0       0
 ---------------------------------------------------------------------------------
 Estimated maximum stack depth 7
 ---------------------------------------------------------------------------------

 Call Graph Graphs:

 _main (ROOT)
   _gorevOlustur
     _listeyeEkle
   _portGorevciyiBaslat
     _gorevciyiBaslat
       _gostergeDegeriGuncelle *
         ___lwdiv
       _gostergeGuncelle *
         _tikSayiminiAl
       _karaSimsek *
         _tikSayiminiAl
       _karaSimsekHiziOkuma *
         ___lwdiv
         _tikSayiminiAl
       _ledCakarlama1 *
         _tikSayiminiAl
       _ledCakarlama2 *
         _tikSayiminiAl
       _listedenSil *
       _listeyeEkle *
     _interruptIlkle
     _sisTimerIlkle
       _timer0KesmeIsleyiciKur
   _sisOsilatorIlkle

 _interruptYonetici (ROOT)
   Absolute function(Fake) *
   _sisTimerKesmeIsleyici *
     Absolute function(Fake) *
     _sisTikKesmeIsleyici *
     _sisTimerIsleyiciVarsayilan *

 Address spaces:
Name               Size   Autos  Total    Cost      Usage
BIGRAM             F37      0       0      37        0.0%
EEDATA             400      0       0       0        0.0%
BITBANK14          100      0       0      33        0.0%
BANK14             100      0       0      34        0.0%
BITBANK13          100      0       0      31        0.0%
BANK13             100      0       0      32        0.0%
BITBANK12          100      0       0      29        0.0%
BANK12             100      0       0      30        0.0%
BITBANK11          100      0       0      27        0.0%
BANK11             100      0       0      28        0.0%
BITBANK10          100      0       0      25        0.0%
BANK10             100      0       0      26        0.0%
BITBANK9           100      0       0      23        0.0%
BANK9              100      0       0      24        0.0%
BITBANK8           100      0       0      21        0.0%
BANK8              100      0       0      22        0.0%
BITBANK7           100      0       0      19        0.0%
BANK7              100      0       0      20        0.0%
BITBANK6           100      0       0      17        0.0%
BANK6              100      0       0      18        0.0%
BITBANK5           100      0       0      15        0.0%
BANK5              100      0       0      16        0.0%
BITBANK4           100      0       0      13        0.0%
BANK4              100      0       0      14        0.0%
BITBANK3           100      0       0      10        0.0%
BANK3              100      0       0      11        0.0%
BITBANK2           100      0       0       8        0.0%
BANK2              100      0       0       9        0.0%
BITBANK1           100      0       0       6        0.0%
BANK1              100      0       0       7        0.0%
BITBANK0            A0      0       0       4        0.0%
BANK0               A0      D      3D       5       38.1%
BITCOMRAM           5E      0       0       0        0.0%
COMRAM              5E     16      50       1       85.1%
BITBANK15           38      0       0      35        0.0%
BANK15              38      0       0      36        0.0%
BITSFR_1             0      0       0     200        0.0%
SFR_1                0      0       0     200        0.0%
BITSFR               0      0       0     200        0.0%
SFR                  0      0       0     200        0.0%
STACK                0      0       0       2        0.0%
NULL                 0      0       0       0        0.0%
ABS                  0      0      8D      12        0.0%
DATA                 0      0      8D       3        0.0%
CODE                 0      0       0       0        0.0%


Microchip Technology PIC18 Macro Assembler V2.31 build 20201012212115 
Symbol Table                                                                                   Thu May  6 21:31:24 2021

                  __end_of_interruptIlkle 1C04                         ??_gorevciyiBaslat 0097  
             __end_of_karaSimsekHiziOkuma 171A                        tikSayiminiAl@sayim 004B  
                                     l301 1608                                       l230 14B2  
                                     l241 14C2                                       l129 191C  
                                     l326 176A                                       l259 1034  
                                     l287 1824                                       l867 1AA6  
                                     tosl 000FFD                                       wreg 000FE8  
               __size_of_gostergeGuncelle 0200                          _sisOsilatorIlkle 1BE2  
                                    l3001 1800                                      l3021 12CC  
                                    l3033 130E                                      l3019 12B2  
                                    l3115 1462                                      l3117 14AC  
                                    l3109 145E                                      l3063 1396  
                                    l3039 132A                                      l3135 196E  
                                    l3161 1AB8                                      l3401 148C  
                                    l3057 137E                                      l3145 19FE  
                                    l3403 17E8                                      l3147 1A00  
                                    l2371 1B22                                      l3405 17F8  
                                    l3085 13FC                                      l2373 1B2A  
                                    l2607 1A74                                      l2711 15D0  
                                    l3079 13E4                                      l2609 1A7C  
                                    l2713 1602                                      l2705 15CC  
                                    l2619 1A9C                                      l2803 1244  
                                    l3099 1444                                      l2643 1912  
                                    l2821 12AC                                      l2813 125E  
                                    l2733 107E                                      l2725 103C  
                                    l2653 195C                                      l2671 14E4  
                                    l2911 1696                                      l2761 1136  
                                    l2681 153E                                      l2673 14E6  
                                    l2665 14D4                                      l2833 1806  
                                    l2921 16C6                                      l2649 1936  
                                    l2747 10DC                                      l2739 109A  
                                    l2819 1262                                      l2667 14D8  
                                    l2843 1848                                      l2931 16E0  
                                    l2915 16A2                                      l2909 167A  
                                    l2775 1190                                      l2695 15B2  
                                    l2687 155A                                      l2839 183A  
                                    l2951 171C                                      l3399 1482  
                                    l2849 186C                                      l2865 188C  
                                    l2937 16E4                                      l2953 172C  
                                    l2867 18B8                                      l2859 1888  
                                    l2939 1716                                      l2971 177A  
                                    l2789 11EA                                      l2885 1618  
                                    l2895 1632                                      l2983 17A8  
                                    l2975 178C                                      l2967 1770  
                                    l2959 1736                                      l2889 162A  
                                    l2993 17C4                                      l2987 17B2  
                                    l2979 1796                                      l2999 17C8  
                                    u1400 1A80                                      u1500 14F2  
                                    _LATB 000F8A                                      _LATC 000F8B  
                                    u1520 1556                                      _LATD 000F8C  
                                    u1530 1566                                      u1620 1100  
                                    u1710 120E                                      u1518 14F6  
                                    u1608 10AA                                      u1560 1048  
                                    u1650 115A                                      u1580 1096  
                                    u1548 156A                                      u1900 133C  
                                    u1638 1104                                      u1590 10A6  
                                    u1728 1212                                      u1680 11B4  
                                    u1578 104C                                      u1930 13A2  
                                    u1668 115E                                      u1780 162E  
                                    u1790 165C                                      u1870 1326  
                                    u1698 11B8                                      u1978 19A6  
                                    u1979 19B8                                      _RCIF 007CF5  
                                    i2l42 006E                                      i2l46 0076  
                                    i2l39 0060                                      _TMR0 000FD6  
                                    _TXIE 007CEC                                      _TXIF 007CF4  
                                    _main 1A0A                                      fsr0h 000FEA  
                                    fsr1h 000FE2                                      fsr2h 000FDA  
                                    fsr0l 000FE9                                      indf2 000FDF  
                                    fsr1l 000FE1                                      fsr2l 000FD9  
                                    btemp 0051                                      prodh 000FF4  
                                    prodl 000FF3                                      start 00B2  
                            ___param_bank 000000                       _uartTxKesmeIsleyici 0025  
                            karaSimsek@s3 0009                           ?_interruptIlkle 003B  
                                   ?_main 003B                                     _T0CON 000FD5  
                         __end_of___lwdiv 1AB0                                     _PORTD 000F83  
                                   _TRISB 000F93                                     _TRISC 000F94  
                                   _TRISD 000F95               __end_of_portGorevciyiBaslat 1BE2  
                  ?_sisTimerKesmeIsleyici 003B                                     pclath 000FFA  
                     _sisTimerDisIsleyici 0021                                     tablat 000FF5  
         __size_of_timer0KesmeIsleyiciKur 000A                                     ttemp5 0052  
                                   ttemp6 0055                                     ttemp7 0059  
                                   status 000FD8                                     wtemp8 0052  
                      ledCakarlama1@artir 002A                           __initialization 1B6E  
                            __end_of_main 1A5E                              ?_listedenSil 0049  
                            ?_listeyeEkle 0049                                    ??_main 0051  
                           __activetblptr 000003                                    _ADCON1 000FC1  
                                  _ADCON2 000FC0                                    _ADRESH 000FC4  
                           ?_gorevOlustur 004F                                    _ADRESL 000FC3  
                                  _ANSELB 000F39                                    _ANSELC 000F3A  
                                  _ANSELD 000F3B              __size_of_sisTikKesmeIsleyici 0006  
                                  _INTCON 000FF2                                    _OSCCON 000FD3  
                                  _TMR0IF 007F92               ?_sisTimerIsleyiciVarsayilan 003B  
                   __end_of_tikSayiminiAl 1BCA                                 ??___lwdiv 004D  
                        gorevciyiBaslat@s 009C                                    clear_0 1B74  
                                  clear_1 1B80                    _timer0KesmeIsleyiciKur 1BF0  
                            __mediumconst 0000                                    tblptrh 000FF7  
                                  tblptrl 000FF6                                    tblptru 000FF8  
                          ??_gorevOlustur 0051                          _gostergeGuncelle 12B0  
                   __end_of_ledCakarlama1 1606                     __end_of_ledCakarlama2 12B0  
                              __accesstop 0060                   __end_of__initialization 1B86  
                           ___rparam_used 000001                       ledCakarlama1@secici 002B  
                         _gorevciyiBaslat 1966                       ledCakarlama1@tutucu 0090  
                          __pcstackCOMRAM 003B                       ledCakarlama2@tutucu 0090  
                __end_of_sisOsilatorIlkle 1BF0            karaSimsekHiziOkuma@oncekiSonuc 0019  
                   __end_of_sisTimerIlkle 1B3E                _intconYedek@portmacro$F427 0030  
              _intconYedek@portmacro$F838 002E                              _cikanListesi 0033  
                        karaSimsek@tutucu 0090                                __pbssBANK0 0060  
                          karaSimsek@sola 0029                  _gostergeDegeriHesaplandi 002C  
                        ??_interruptIlkle 0049                      __size_of_listedenSil 00AA  
                         gorevOlustur@gkb 0090              __end_ofledCakarlama1@sonSira 1013  
                 ??_sisTimerKesmeIsleyici 003B                  ??_gostergeDegeriGuncelle 0092  
                    __size_of_listeyeEkle 0030              __end_ofledCakarlama1@sureler 1031  
                                 _OSCCON2 000FD2                                   _OSCTUNE 000F9B  
                              _karaSimsek 1804                                   i2u64_48 1B9C  
                                 i2u68_48 004E              __size_of_karaSimsekHiziOkuma 0114  
                        listedenSil@liste 0049                          listedenSil@konum 004B  
                 __end_of_gorevciyiBaslat 1A0A                          listedenSil@sayim 004A  
                    gorevciyiBaslat@donus 009B                                   __Hparam 0000  
                                 __Lparam 0000                      __end_of_gorevOlustur 1AFE  
                                 ___lwdiv 1A5E                              __psmallconst 1000  
                     _sisTikKesmeIsleyici 1BFA                                   __pcinit 1B6E  
                                 __ramtop 1000                                   __ptext0 1A0A  
                                 __ptext1 1BE2                                   __ptext2 1BCA  
                                 __ptext3 1AFE                                   __ptext4 1BF0  
                                 __ptext5 1C00                                   __ptext6 1966  
                                 __ptext7 18BC                                   __ptext8 12B0  
                                 __ptext9 171A                                 _T0CONbits 000FD5  
          timer0KesmeIsleyiciKur@isleyici 0049                      end_of_initialization 1B86  
                    ?_sisTikKesmeIsleyici 003B                 karaSimsekHiziOkuma@tutucu 0090  
__end_ofgostergeGuncelle@BCDdenOrtakAnoda 1012          gostergeGuncelle@BCDdenOrtakAnoda 1001  
            __size_of_portGorevciyiBaslat 0018                                   postdec1 000FE5  
                                 postdec2 000FDD                   ?_timer0KesmeIsleyiciKur 0049  
                __end_of_gostergeGuncelle 14B0                                   postinc0 000FEE  
                                 postinc1 000FE6                                   postinc2 000FDE  
                           _calisanSayimi 003A                                 _PORTEbits 000F84  
         __size_of_gostergeDegeriGuncelle 00EA                                 _TRISAbits 000F92  
                               _TRISEbits 000F96                               ?_karaSimsek 0090  
                   ??_sisTikKesmeIsleyici 003B                          ?_gorevciyiBaslat 003B  
                    ledCakarlama1@sonSira 1012                       _uartRxKesmeIsleyici 0023  
          __end_of_timer0KesmeIsleyiciKur 1BFA                      ledCakarlama1@sureler 1013  
                       ?_sisOsilatorIlkle 003B                        gostergeGuncelle@s5 0001  
                    _karasimsekHiziOkundu 002D                        ??_sisOsilatorIlkle 0049  
                     start_initialization 1B6E                    __size_of_tikSayiminiAl 001C  
                   __size_of_gorevOlustur 004E                    _gostergeDegeriGuncelle 171A  
                     __size_of_karaSimsek 00B8                       _karaSimsekHiziOkuma 1606  
                  __size_of_ledCakarlama1 0156                    __size_of_ledCakarlama2 027E  
                             __pbssCOMRAM 0001            __size_of_sisTimerKesmeIsleyici 001E  
                           __pcstackBANK0 0090             __end_of_sisTimerKesmeIsleyici 1BAE  
                    ?_karaSimsekHiziOkuma 0090                              _gorevOlustur 1AB0  
                            listedenSil@k 004D                               _cikanSayimi 0039  
                  __size_of_sisTimerIlkle 0040                          ___lwdiv@dividend 0049  
                               __pintcode 0008                         listeyeEkle@cSayim 004E  
                           ??_listedenSil 0090                                  ?___lwdiv 0049  
                          gorevOlustur@is 004F                             _tikSayiminiAl 1BAE  
                           ??_listeyeEkle 004E                       _portGorevciyiBaslat 1BCA  
                       _interruptYonetici 0008                               __smallconst 1000  
                      ?_interruptYonetici 003B                     ??_karaSimsekHiziOkuma 0092  
                               _gorevHeap 0060                          ___lwdiv@quotient 004E  
                          listeyeEkle@glo 004C                            listeyeEkle@max 004B  
                           _ledCakarlama1 14B0                             _ledCakarlama2 1032  
                     ??_interruptYonetici 003B                               _gercekDeger 001D  
                    ?_portGorevciyiBaslat 003B                                  _LATBbits 000F8A  
                                _LATEbits 000F8D                                  _PIE1bits 000F9D  
                               _tikSayimi 001F                                  _PIR1bits 000F9E  
            ??_sisTimerIsleyiciVarsayilan 003B                                  _RCONbits 000FD0  
                          ?_tikSayiminiAl 0049                         ?_gostergeGuncelle 0090  
                       listedenSil@cSayim 004C                 __end_of_interruptYonetici 00B2  
                      ??_gostergeGuncelle 0092                    gostergeGuncelle@tutucu 0090  
                              _ADCON0bits 000FC2                             _sisTimerIlkle 1AFE  
                 __size_of_interruptIlkle 0004                       __end_of_listedenSil 1966  
                         ledCakarlama1@s1 0011                           ledCakarlama2@s2 000D  
            gostergeDegeriGuncelle@tutucu 0090                              ??_karaSimsek 0092  
                     __end_of_listeyeEkle 1B6E                            ?_ledCakarlama1 0090  
                          ?_ledCakarlama2 0090       __size_of_sisTimerIsleyiciVarsayilan 0002  
                   ??_portGorevciyiBaslat 0051                                  __Hrparam 0000  
                                __Lrparam 0000                        __end_of_karaSimsek 18BC  
                        __size_of___lwdiv 0052                            ?_sisTimerIlkle 004B  
                             _gorevSayimi 002F                                _ANSELEbits 000F3C  
             __end_of_sisTikKesmeIsleyici 1C00                           ___lwdiv@divisor 004B  
                         ___lwdiv@counter 004D                                  __ptext10 1606  
                                __ptext11 1804                                  __ptext20 1BFA  
                                __ptext12 14B0                                  __ptext21 1C04  
                                __ptext13 1032                                  __ptext22 0000  
                                __ptext14 1BAE                                  __ptext15 1A5E  
                                __ptext16 1AB0                                  __ptext17 1B3E  
                                __ptext19 1B90                 __size_of_sisOsilatorIlkle 000E  
                        listeyeEkle@liste 0049                          listeyeEkle@sayim 004A  
                      gorevciyiBaslat@glo 0099                   ?_gostergeDegeriGuncelle 0090  
                             _intconYedek 0031                             __size_of_main 0054  
                                _gosterge 0015        gostergeDegeriGuncelle@olcekliDeger 0095  
                         ??_tikSayiminiAl 004B                  __size_of_gorevciyiBaslat 00A4  
                             _tmr0OnDeger 0032                                  int$flags 0051  
                             _listedenSil 18BC                __size_of_interruptYonetici 00AA  
                             _listeyeEkle 1B3E                            _karaSimsekHizi 001B  
                              _INTCONbits 000FF2                           ??_ledCakarlama1 0092  
                         ??_ledCakarlama2 0092                       _timer0KesmeIsleyici 0027  
          __end_of_gostergeDegeriGuncelle 1804                                  intlevel2 0000  
                karaSimsekHiziOkuma@sonuc 0095        __end_of_sisTimerIsleyiciVarsayilan 1C06  
              _sisTimerIsleyiciVarsayilan 1C04                           ??_sisTimerIlkle 004D  
                          _calisanListesi 0080                     sisTimerIlkle@isleyici 004B  
                          _interruptIlkle 1C00                     _sisTimerKesmeIsleyici 1B90  
                ??_timer0KesmeIsleyiciKur 004B                     karaSimsekHiziOkuma@s4 0005  
