

Microchip MPLAB XC8 Assembler V2.31 build 20201012212115 
                                                                                               Sun Jun 13 17:23:23 2021

Microchip MPLAB XC8 C Compiler v2.31 (Free license) build 20201012212115 Og9 
     1                           	processor	18F46K22
     2                           	fnconf	rparam,??,?,0
     3                           	pagewidth 120
     4                           	opt	flic
     5                           	psect	smallconst,global,reloc=2,class=SMALLCONST,delta=1,noexec
     6                           	psect	cinit,global,reloc=2,class=CODE,delta=1
     7                           	psect	bssCOMRAM,global,class=COMRAM,space=1,delta=1,lowdata,noexec
     8                           	psect	bssBANK0,global,class=BANK0,space=1,delta=1,lowdata,noexec
     9                           	psect	cstackBANK0,global,class=BANK0,space=1,delta=1,lowdata,noexec
    10                           	psect	cstackCOMRAM,global,class=COMRAM,space=1,delta=1,lowdata,noexec
    11                           	psect	text0,global,reloc=2,class=CODE,delta=1
    12                           	psect	text1,global,reloc=2,class=CODE,delta=1
    13                           	psect	text2,global,reloc=2,class=CODE,delta=1
    14                           	psect	text3,global,reloc=2,class=CODE,delta=1
    15                           	psect	text4,global,reloc=2,class=CODE,delta=1
    16                           	psect	text5,global,reloc=2,class=CODE,delta=1
    17                           	psect	text6,global,reloc=2,class=CODE,delta=1
    18                           	psect	text7,global,reloc=2,class=CODE,delta=1,group=1
    19                           	psect	text8,global,reloc=2,class=CODE,delta=1
    20                           	psect	text9,global,reloc=2,class=CODE,delta=1
    21                           	psect	text10,global,reloc=2,class=CODE,delta=1
    22                           	psect	intcode,global,reloc=2,class=CODE,delta=1
    23                           	psect	text12,global,reloc=2,class=CODE,delta=1
    24                           	psect	text13,global,reloc=2,class=CODE,delta=1
    25                           	psect	text14,global,reloc=2,class=CODE,delta=1
    26                           	psect	intsave_regs,global,class=BIGRAM,space=1,delta=1,noexec
    27                           	psect	text15,global,reloc=2,class=CODE,delta=1
    28                           	psect	rparam,global,class=COMRAM,space=1,delta=1,noexec
    29                           	psect	temp,global,ovrld,common,class=COMRAM,space=1,delta=1
    30                           	psect	idloc,global,abs,ovrld,class=IDLOC,space=5,delta=1,noexec
    31                           	psect	config,global,abs,ovrld,class=CONFIG,space=4,delta=1,noexec
    32  0000                     
    33                           ; Version 2.20
    34                           ; Generated 05/05/2020 GMT
    35                           ; 
    36                           ; Copyright © 2020, Microchip Technology Inc. and its subsidiaries ("Microchip")
    37                           ; All rights reserved.
    38                           ; 
    39                           ; This software is developed by Microchip Technology Inc. and its subsidiaries ("Microch
      +                          ip").
    40                           ; 
    41                           ; Redistribution and use in source and binary forms, with or without modification, are
    42                           ; permitted provided that the following conditions are met:
    43                           ; 
    44                           ;     1. Redistributions of source code must retain the above copyright notice, this lis
      +                          t of
    45                           ;        conditions and the following disclaimer.
    46                           ; 
    47                           ;     2. Redistributions in binary form must reproduce the above copyright notice, this 
      +                          list
    48                           ;        of conditions and the following disclaimer in the documentation and/or other
    49                           ;        materials provided with the distribution.
    50                           ; 
    51                           ;     3. Microchip's name may not be used to endorse or promote products derived from th
      +                          is
    52                           ;        software without specific prior written permission.
    53                           ; 
    54                           ; THIS SOFTWARE IS PROVIDED BY MICROCHIP "AS IS" AND ANY EXPRESS OR IMPLIED WARRANTIES,
    55                           ; INCLUDING, BUT NOT LIMITED TO, THE IMPLIED WARRANTIES OF MERCHANTABILITY AND FITNESS F
      +                          OR
    56                           ; PURPOSE ARE DISCLAIMED.  IN NO EVENT SHALL MICROCHIP BE LIABLE FOR ANY DIRECT, INDIREC
      +                          T,
    57                           ; INCIDENTAL, SPECIAL, EXEMPLARY, OR CONSEQUENTIAL DAMAGES (INCLUDING BUT NOT LIMITED TO
    58                           ; PROCUREMENT OF SUBSTITUTE GOODS OR SERVICES; LOSS OF USE, DATA OR PROFITS; OR BUSINESS
    59                           ; INTERRUPTION) HOWSOEVER CAUSED AND ON ANY THEORY OF LIABILITY, WHETHER IN CONTRACT, ST
      +                          RICT
    60                           ; LIABILITY, OR TORT (INCLUDING NEGLIGENCE OR OTHERWISE) ARISING IN ANY WAY OUT OF THE U
      +                          SE OF
    61                           ; THIS SOFTWARE, EVEN IF ADVISED OF THE POSSIBILITY OF SUCH DAMAGE.
    62                           ; 
    63                           ; 
    64                           ; Code-generator required, PIC18F46K22 Definitions
    65                           ; 
    66                           ; SFR Addresses
    67  0000                     
    68                           	psect	smallconst
    69  001000                     __psmallconst:
    70                           	callstack 0
    71  001000  00                 	db	0
    72  001001                     ledCakarlama1@F6039:
    73                           	callstack 0
    74  001001  0032               	dw	50
    75  001003  003C               	dw	60
    76  001005  0046               	dw	70
    77  001007  0050               	dw	80
    78  001009  005A               	dw	90
    79  00100B  0064               	dw	100
    80  00100D  00C8               	dw	200
    81  00100F  012C               	dw	300
    82  001011  0190               	dw	400
    83  001013  01F4               	dw	500
    84  001015  0258               	dw	600
    85  001017  02BC               	dw	700
    86  001019  0320               	dw	800
    87  00101B  0384               	dw	900
    88  00101D  03E8               	dw	1000
    89  00101F                     __end_ofledCakarlama1@F6039:
    90                           	callstack 0
    91  0000                     _ANSELD	set	3899
    92  0000                     _ANSELBbits	set	3897
    93  0000                     _TMR0	set	4054
    94  0000                     _ADRESL	set	4035
    95  0000                     _ADRESH	set	4036
    96  0000                     _ADCON0bits	set	4034
    97  0000                     _TRISAbits	set	3986
    98  0000                     _ADCON1	set	4033
    99  0000                     _ADCON2	set	4032
   100  0000                     _PORTD	set	3971
   101  0000                     _TRISD	set	3989
   102  0000                     _LATD	set	3980
   103  0000                     _PORTBbits	set	3969
   104  0000                     _TRISBbits	set	3987
   105  0000                     _LATBbits	set	3978
   106  0000                     _INTCON	set	4082
   107  0000                     _OSCTUNE	set	3995
   108  0000                     _OSCCON2	set	4050
   109  0000                     _OSCCON	set	4051
   110  0000                     _T0CONbits	set	4053
   111  0000                     _T0CON	set	4053
   112  0000                     _PIR1bits	set	3998
   113  0000                     _PIE1bits	set	3997
   114  0000                     _INTCONbits	set	4082
   115  0000                     _RCONbits	set	4048
   116  0000                     _TXIF	set	31988
   117  0000                     _TXIE	set	31980
   118  0000                     _RCIF	set	31989
   119  0000                     _TMR0IF	set	32658
   120  00101F  00                 	db	0	; dummy byte at the end
   121  0000                     
   122                           ; #config settings
   123                           
   124                           	psect	cinit
   125  001688                     __pcinit:
   126                           	callstack 0
   127  001688                     start_initialization:
   128                           	callstack 0
   129  001688                     __initialization:
   130                           	callstack 0
   131                           
   132                           ; Clear objects allocated to BANK0 (2 bytes)
   133  001688  0100               	movlb	0
   134  00168A  6B81               	clrf	(__pbssBANK0+1)& (0+255),b
   135  00168C  6B80               	clrf	__pbssBANK0& (0+255),b
   136                           
   137                           ; Clear objects allocated to COMRAM (33 bytes)
   138  00168E  EE00  F024         	lfsr	0,__pbssCOMRAM
   139  001692  0E21               	movlw	33
   140  001694                     clear_0:
   141  001694  6AEE               	clrf	postinc0,c
   142  001696  06E8               	decf	wreg,f,c
   143  001698  E1FD               	bnz	clear_0
   144  00169A                     end_of_initialization:
   145                           	callstack 0
   146  00169A                     __end_of__initialization:
   147                           	callstack 0
   148  00169A  9045               	bcf	int$flags,0,c	;clear compiler interrupt flag (level 1)
   149  00169C  9245               	bcf	int$flags,1,c	;clear compiler interrupt flag (level 2)
   150  00169E  0100               	movlb	0
   151  0016A0  EFC0  F00A         	goto	_main	;jump to C main() function
   152                           
   153                           	psect	bssCOMRAM
   154  000024                     __pbssCOMRAM:
   155                           	callstack 0
   156  000024                     karaSimsekHiziOkuma@s4:
   157                           	callstack 0
   158  000024                     	ds	4
   159  000028                     karaSimsek@s3:
   160                           	callstack 0
   161  000028                     	ds	4
   162  00002C                     ledCakarlama2@s2:
   163                           	callstack 0
   164  00002C                     	ds	4
   165  000030                     ledCakarlama1@s1:
   166                           	callstack 0
   167  000030                     	ds	4
   168  000034                     _karaSimsekHizi:
   169                           	callstack 0
   170  000034                     	ds	2
   171  000036                     _tikSayimi:
   172                           	callstack 0
   173  000036                     	ds	2
   174  000038                     _sisTimerDisIsleyici:
   175                           	callstack 0
   176  000038                     	ds	2
   177  00003A                     _uartTxKesmeIsleyici:
   178                           	callstack 0
   179  00003A                     	ds	2
   180  00003C                     _timer0KesmeIsleyici:
   181                           	callstack 0
   182  00003C                     	ds	2
   183  00003E                     karaSimsek@sola:
   184                           	callstack 0
   185  00003E                     	ds	1
   186  00003F                     ledCakarlama1@artir:
   187                           	callstack 0
   188  00003F                     	ds	1
   189  000040                     ledCakarlama1@secici:
   190                           	callstack 0
   191  000040                     	ds	1
   192  000041                     	ds	1
   193  000042                     _intconYedek@portmacro$F371:
   194                           	callstack 0
   195  000042                     	ds	1
   196  000043                     	ds	1
   197  000044                     	ds	1
   198                           
   199                           	psect	bssBANK0
   200  000080                     __pbssBANK0:
   201                           	callstack 0
   202  000080                     _uartRxKesmeIsleyici:
   203                           	callstack 0
   204  000080                     	ds	2
   205                           
   206                           	psect	cstackBANK0
   207  000060                     __pcstackBANK0:
   208                           	callstack 0
   209  000060                     ledCakarlama1@sureler:
   210                           	callstack 0
   211                           
   212                           ; 30 bytes @ 0x0
   213  000060                     	ds	31
   214  00007F                     ledCakarlama1@sonSira:
   215                           	callstack 0
   216                           
   217                           ; 1 bytes @ 0x1F
   218  00007F                     	ds	1
   219                           
   220                           	psect	cstackCOMRAM
   221  000001                     __pcstackCOMRAM:
   222                           	callstack 0
   223  000001                     ??_interruptYonetici:
   224  000001                     
   225                           ; 1 bytes @ 0x0
   226  000001                     	ds	14
   227  00000F                     ?_grvTikSayiminiAl:
   228                           	callstack 0
   229  00000F                     ?___lwdiv:
   230                           	callstack 0
   231  00000F                     timer0KesmeIsleyiciKur@isleyici:
   232                           	callstack 0
   233  00000F                     ___lwdiv@dividend:
   234                           	callstack 0
   235                           
   236                           ; 2 bytes @ 0xE
   237  00000F                     	ds	2
   238  000011                     sisTimerIlkle@isleyici:
   239                           	callstack 0
   240  000011                     grvTikSayiminiAl@sayim:
   241                           	callstack 0
   242  000011                     ___lwdiv@divisor:
   243                           	callstack 0
   244                           
   245                           ; 2 bytes @ 0x10
   246  000011                     	ds	2
   247  000013                     ledCakarlama1@tutucu:
   248                           	callstack 0
   249  000013                     ledCakarlama2@tutucu:
   250                           	callstack 0
   251  000013                     karaSimsek@tutucu:
   252                           	callstack 0
   253  000013                     ___lwdiv@quotient:
   254                           	callstack 0
   255                           
   256                           ; 2 bytes @ 0x12
   257  000013                     	ds	1
   258  000014                     ??_ledCakarlama1:
   259  000014                     ??_ledCakarlama2:
   260  000014                     ??_karaSimsek:
   261                           
   262                           ; 1 bytes @ 0x13
   263  000014                     	ds	1
   264  000015                     ___lwdiv@counter:
   265                           	callstack 0
   266                           
   267                           ; 1 bytes @ 0x14
   268  000015                     	ds	1
   269  000016                     karaSimsekHiziOkuma@tutucu:
   270                           	callstack 0
   271                           
   272                           ; 1 bytes @ 0x15
   273  000016                     	ds	1
   274  000017                     ??_karaSimsekHiziOkuma:
   275                           
   276                           ; 1 bytes @ 0x16
   277  000017                     	ds	3
   278  00001A                     karaSimsekHiziOkuma@sonuc:
   279                           	callstack 0
   280                           
   281                           ; 2 bytes @ 0x19
   282  00001A                     	ds	2
   283  00001C                     main@ksmsk:
   284                           	callstack 0
   285                           
   286                           ; 2 bytes @ 0x1B
   287  00001C                     	ds	2
   288  00001E                     main@lc1:
   289                           	callstack 0
   290                           
   291                           ; 2 bytes @ 0x1D
   292  00001E                     	ds	2
   293  000020                     main@kho:
   294                           	callstack 0
   295                           
   296                           ; 2 bytes @ 0x1F
   297  000020                     	ds	2
   298  000022                     main@lc2:
   299                           	callstack 0
   300                           
   301                           ; 2 bytes @ 0x21
   302  000022                     	ds	2
   303                           
   304 ;;
   305 ;;Main: autosize = 0, tempsize = 0, incstack = 0, save=0
   306 ;;
   307 ;; *************** function _main *****************
   308 ;; Defined at:
   309 ;;		line 245 in file "ornek1.c"
   310 ;; Parameters:    Size  Location     Type
   311 ;;		None
   312 ;; Auto vars:     Size  Location     Type
   313 ;;  lc2             2   33[COMRAM] struct .
   314 ;;  kho             2   31[COMRAM] struct .
   315 ;;  lc1             2   29[COMRAM] struct .
   316 ;;  ksmsk           2   27[COMRAM] struct .
   317 ;; Return value:  Size  Location     Type
   318 ;;                  1    wreg      void 
   319 ;; Registers used:
   320 ;;		wreg, fsr2l, fsr2h, status,2, status,0, tblptrl, tblptrh, tblptru, prodl, prodh, cstack
   321 ;; Tracked objects:
   322 ;;		On entry : 0/0
   323 ;;		On exit  : 0/0
   324 ;;		Unchanged: 0/0
   325 ;; Data sizes:     COMRAM   BANK0   BANK1   BANK2   BANK3   BANK4   BANK5   BANK6   BANK7   BANK8   BANK9  BANK10  BANK1
      +1  BANK12  BANK13  BANK14  BANK15
   326 ;;      Params:         0       0       0       0       0       0       0       0       0       0       0       0       
      +0       0       0       0       0
   327 ;;      Locals:         8       0       0       0       0       0       0       0       0       0       0       0       
      +0       0       0       0       0
   328 ;;      Temps:          0       0       0       0       0       0       0       0       0       0       0       0       
      +0       0       0       0       0
   329 ;;      Totals:         8       0       0       0       0       0       0       0       0       0       0       0       
      +0       0       0       0       0
   330 ;;Total ram usage:        8 bytes
   331 ;; Hardware stack levels required when called:    5
   332 ;; This function calls:
   333 ;;		_interruptIlkle
   334 ;;		_karaSimsek
   335 ;;		_karaSimsekHiziOkuma
   336 ;;		_ledCakarlama1
   337 ;;		_ledCakarlama2
   338 ;;		_sisOsilatorIlkle
   339 ;;		_sisTimerIlkle
   340 ;; This function is called by:
   341 ;;		Startup code after reset
   342 ;; This function uses a non-reentrant model
   343 ;;
   344                           
   345                           	psect	text0
   346  001580                     __ptext0:
   347                           	callstack 0
   348  001580                     _main:
   349                           	callstack 26
   350                           
   351                           ;ornek1.c: 247:     sisOsilatorIlkle();
   352                           
   353                           ;incstack = 0
   354  001580  EC60  F00B         	call	_sisOsilatorIlkle	;wreg free
   355                           
   356                           ;ornek1.c: 250:  interruptIlkle();
   357  001584  EC6F  F00B         	call	_interruptIlkle	;wreg free
   358                           
   359                           ;ornek1.c: 253:  sisTimerIlkle(grvTikKesmeIsleyici);
   360  001588  0ED8               	movlw	low _grvTikKesmeIsleyici
   361  00158A  6E11               	movwf	sisTimerIlkle@isleyici^0,c
   362  00158C  0E16               	movlw	high _grvTikKesmeIsleyici
   363  00158E  6E12               	movwf	(sisTimerIlkle@isleyici+1)^0,c
   364  001590  EC15  F00B         	call	_sisTimerIlkle	;wreg free
   365                           
   366                           ;ornek1.c: 256:  INTCONbits.GIEH = 1;;
   367  001594  8EF2               	bsf	242,7,c	;volatile
   368                           
   369                           ;ornek1.c: 259:     gorev_t lc1, lc2, ksmsk, kho;;ornek1.c: 261:     ( (gorev_t*) &lc1 )
      +                          ->sn = 0;
   370  001596  0E00               	movlw	0
   371  001598  6E1F               	movwf	(main@lc1+1)^0,c
   372  00159A  0E00               	movlw	0
   373  00159C  6E1E               	movwf	main@lc1^0,c
   374                           
   375                           ;ornek1.c: 262:     ( (gorev_t*) &lc2 )->sn = 0;
   376  00159E  0E00               	movlw	0
   377  0015A0  6E23               	movwf	(main@lc2+1)^0,c
   378  0015A2  0E00               	movlw	0
   379  0015A4  6E22               	movwf	main@lc2^0,c
   380                           
   381                           ;ornek1.c: 263:     ( (gorev_t*) &ksmsk )->sn = 0;
   382  0015A6  0E00               	movlw	0
   383  0015A8  6E1D               	movwf	(main@ksmsk+1)^0,c
   384  0015AA  0E00               	movlw	0
   385  0015AC  6E1C               	movwf	main@ksmsk^0,c
   386                           
   387                           ;ornek1.c: 264:     ( (gorev_t*) &kho )->sn = 0;
   388  0015AE  0E00               	movlw	0
   389  0015B0  6E21               	movwf	(main@kho+1)^0,c
   390  0015B2  0E00               	movlw	0
   391  0015B4  6E20               	movwf	main@kho^0,c
   392  0015B6                     l2040:
   393                           
   394                           ;ornek1.c: 268:         ledCakarlama1(&lc1);
   395  0015B6  0E1E               	movlw	low main@lc1
   396  0015B8  6E13               	movwf	ledCakarlama1@tutucu^0,c
   397  0015BA  EC3F  F009         	call	_ledCakarlama1	;wreg free
   398                           
   399                           ;ornek1.c: 269:         ledCakarlama2(&lc2);
   400  0015BE  0E22               	movlw	low main@lc2
   401  0015C0  6E13               	movwf	ledCakarlama2@tutucu^0,c
   402  0015C2  EC10  F008         	call	_ledCakarlama2	;wreg free
   403                           
   404                           ;ornek1.c: 270:         karaSimsek(&ksmsk);
   405  0015C6  0E1C               	movlw	low main@ksmsk
   406  0015C8  6E13               	movwf	karaSimsek@tutucu^0,c
   407  0015CA  EC62  F00A         	call	_karaSimsek	;wreg free
   408                           
   409                           ;ornek1.c: 271:         karaSimsekHiziOkuma(&kho);
   410  0015CE  0E20               	movlw	low main@kho
   411  0015D0  6E16               	movwf	karaSimsekHiziOkuma@tutucu^0,c
   412  0015D2  ECEC  F009         	call	_karaSimsekHiziOkuma	;wreg free
   413  0015D6  D7EF               	goto	l2040
   414  0015D8                     __end_of_main:
   415                           	callstack 0
   416                           
   417 ;; *************** function _sisTimerIlkle *****************
   418 ;; Defined at:
   419 ;;		line 134 in file "sistimer.c"
   420 ;; Parameters:    Size  Location     Type
   421 ;;  isleyici        2   16[COMRAM] PTR FTN()void 
   422 ;;		 -> grvTikKesmeIsleyici(1), 
   423 ;; Auto vars:     Size  Location     Type
   424 ;;		None
   425 ;; Return value:  Size  Location     Type
   426 ;;                  1    wreg      void 
   427 ;; Registers used:
   428 ;;		wreg, status,2, status,0, cstack
   429 ;; Tracked objects:
   430 ;;		On entry : 0/0
   431 ;;		On exit  : 0/0
   432 ;;		Unchanged: 0/0
   433 ;; Data sizes:     COMRAM   BANK0   BANK1   BANK2   BANK3   BANK4   BANK5   BANK6   BANK7   BANK8   BANK9  BANK10  BANK1
      +1  BANK12  BANK13  BANK14  BANK15
   434 ;;      Params:         2       0       0       0       0       0       0       0       0       0       0       0       
      +0       0       0       0       0
   435 ;;      Locals:         0       0       0       0       0       0       0       0       0       0       0       0       
      +0       0       0       0       0
   436 ;;      Temps:          0       0       0       0       0       0       0       0       0       0       0       0       
      +0       0       0       0       0
   437 ;;      Totals:         2       0       0       0       0       0       0       0       0       0       0       0       
      +0       0       0       0       0
   438 ;;Total ram usage:        2 bytes
   439 ;; Hardware stack levels used:    1
   440 ;; Hardware stack levels required when called:    4
   441 ;; This function calls:
   442 ;;		_timer0KesmeIsleyiciKur
   443 ;; This function is called by:
   444 ;;		_main
   445 ;; This function uses a non-reentrant model
   446 ;;
   447                           
   448                           	psect	text1
   449  00162A                     __ptext1:
   450                           	callstack 0
   451  00162A                     _sisTimerIlkle:
   452                           	callstack 26
   453                           
   454                           ;sistimer.c: 135:     T0CON = 0;
   455                           
   456                           ;incstack = 0
   457  00162A  0E00               	movlw	0
   458  00162C  6ED5               	movwf	213,c	;volatile
   459                           
   460                           ;sistimer.c: 137:     T0CONbits.T08BIT = 0;
   461  00162E  9CD5               	bcf	213,6,c	;volatile
   462                           
   463                           ;sistimer.c: 142:     T0CONbits.T0CS = 0;
   464  001630  9AD5               	bcf	213,5,c	;volatile
   465                           
   466                           ;sistimer.c: 145:     T0CONbits.PSA = 1;
   467  001632  86D5               	bsf	213,3,c	;volatile
   468                           
   469                           ;sistimer.c: 154:     TMR0 = (uint16_t) ((uint16_t)((65536)-((( (1000) - ( ( ( 52 ) * ( 
      +                          ( 1 * ( 100 ) ) / ( (16000000 / 4 ) / 1000000 ) ) ) / ( 100 ) ) )* (16000000/1000000))/(
      +                          4*(1)))-1));
   470  001634  0EF0               	movlw	240
   471  001636  6ED7               	movwf	215,c	;volatile
   472  001638  0E93               	movlw	147
   473  00163A  6ED6               	movwf	214,c	;volatile
   474                           
   475                           ;sistimer.c: 160:     sisTimerDisIsleyici = isleyici == ((void*)0) ? sisTimerIsleyiciVar
      +                          sayilan : isleyici;
   476  00163C  5011               	movf	sisTimerIlkle@isleyici^0,w,c
   477  00163E  1012               	iorwf	(sisTimerIlkle@isleyici+1)^0,w,c
   478  001640  B4D8               	btfsc	status,2,c
   479  001642  D005               	goto	l1398
   480  001644  C011  F038         	movff	sisTimerIlkle@isleyici,_sisTimerDisIsleyici
   481  001648  C012  F039         	movff	sisTimerIlkle@isleyici+1,_sisTimerDisIsleyici+1
   482  00164C  D004               	goto	l1400
   483  00164E                     l1398:
   484  00164E  0EE2               	movlw	low _sisTimerIsleyiciVarsayilan
   485  001650  6E38               	movwf	_sisTimerDisIsleyici^0,c
   486  001652  0E16               	movlw	high _sisTimerIsleyiciVarsayilan
   487  001654  6E39               	movwf	(_sisTimerDisIsleyici+1)^0,c
   488  001656                     l1400:
   489                           
   490                           ;sistimer.c: 162:     timer0KesmeIsleyiciKur(sisTimerKesmeIsleyici);
   491  001656  0E6A               	movlw	low _sisTimerKesmeIsleyici
   492  001658  6E0F               	movwf	timer0KesmeIsleyiciKur@isleyici^0,c
   493  00165A  0E16               	movlw	high _sisTimerKesmeIsleyici
   494  00165C  6E10               	movwf	(timer0KesmeIsleyiciKur@isleyici+1)^0,c
   495  00165E  EC67  F00B         	call	_timer0KesmeIsleyiciKur	;wreg free
   496                           
   497                           ;sistimer.c: 165:     INTCONbits.TMR0IF = 0;
   498  001662  94F2               	bcf	242,2,c	;volatile
   499                           
   500                           ;sistimer.c: 166:     INTCONbits.TMR0IE = 1;
   501  001664  8AF2               	bsf	242,5,c	;volatile
   502                           
   503                           ;sistimer.c: 169:     T0CONbits.TMR0ON = 1;
   504  001666  8ED5               	bsf	213,7,c	;volatile
   505  001668  0012               	return		;funcret
   506  00166A                     __end_of_sisTimerIlkle:
   507                           	callstack 0
   508                           
   509 ;; *************** function _timer0KesmeIsleyiciKur *****************
   510 ;; Defined at:
   511 ;;		line 38 in file "interrupt.c"
   512 ;; Parameters:    Size  Location     Type
   513 ;;  isleyici        2   14[COMRAM] PTR FTN()void 
   514 ;;		 -> sisTimerKesmeIsleyici(1), 
   515 ;; Auto vars:     Size  Location     Type
   516 ;;		None
   517 ;; Return value:  Size  Location     Type
   518 ;;                  1    wreg      void 
   519 ;; Registers used:
   520 ;;		wreg, status,2, status,0
   521 ;; Tracked objects:
   522 ;;		On entry : 0/0
   523 ;;		On exit  : 0/0
   524 ;;		Unchanged: 0/0
   525 ;; Data sizes:     COMRAM   BANK0   BANK1   BANK2   BANK3   BANK4   BANK5   BANK6   BANK7   BANK8   BANK9  BANK10  BANK1
      +1  BANK12  BANK13  BANK14  BANK15
   526 ;;      Params:         2       0       0       0       0       0       0       0       0       0       0       0       
      +0       0       0       0       0
   527 ;;      Locals:         0       0       0       0       0       0       0       0       0       0       0       0       
      +0       0       0       0       0
   528 ;;      Temps:          0       0       0       0       0       0       0       0       0       0       0       0       
      +0       0       0       0       0
   529 ;;      Totals:         2       0       0       0       0       0       0       0       0       0       0       0       
      +0       0       0       0       0
   530 ;;Total ram usage:        2 bytes
   531 ;; Hardware stack levels used:    1
   532 ;; Hardware stack levels required when called:    3
   533 ;; This function calls:
   534 ;;		Nothing
   535 ;; This function is called by:
   536 ;;		_sisTimerIlkle
   537 ;; This function uses a non-reentrant model
   538 ;;
   539                           
   540                           	psect	text2
   541  0016CE                     __ptext2:
   542                           	callstack 0
   543  0016CE                     _timer0KesmeIsleyiciKur:
   544                           	callstack 26
   545                           
   546                           ;interrupt.c: 39:     timer0KesmeIsleyici = isleyici;
   547                           
   548                           ;incstack = 0
   549  0016CE  C00F  F03C         	movff	timer0KesmeIsleyiciKur@isleyici,_timer0KesmeIsleyici
   550  0016D2  C010  F03D         	movff	timer0KesmeIsleyiciKur@isleyici+1,_timer0KesmeIsleyici+1
   551  0016D6  0012               	return		;funcret
   552  0016D8                     __end_of_timer0KesmeIsleyiciKur:
   553                           	callstack 0
   554                           
   555 ;; *************** function _sisOsilatorIlkle *****************
   556 ;; Defined at:
   557 ;;		line 27 in file "osilator.c"
   558 ;; Parameters:    Size  Location     Type
   559 ;;		None
   560 ;; Auto vars:     Size  Location     Type
   561 ;;		None
   562 ;; Return value:  Size  Location     Type
   563 ;;                  1    wreg      void 
   564 ;; Registers used:
   565 ;;		wreg, status,2
   566 ;; Tracked objects:
   567 ;;		On entry : 0/0
   568 ;;		On exit  : 0/0
   569 ;;		Unchanged: 0/0
   570 ;; Data sizes:     COMRAM   BANK0   BANK1   BANK2   BANK3   BANK4   BANK5   BANK6   BANK7   BANK8   BANK9  BANK10  BANK1
      +1  BANK12  BANK13  BANK14  BANK15
   571 ;;      Params:         0       0       0       0       0       0       0       0       0       0       0       0       
      +0       0       0       0       0
   572 ;;      Locals:         0       0       0       0       0       0       0       0       0       0       0       0       
      +0       0       0       0       0
   573 ;;      Temps:          0       0       0       0       0       0       0       0       0       0       0       0       
      +0       0       0       0       0
   574 ;;      Totals:         0       0       0       0       0       0       0       0       0       0       0       0       
      +0       0       0       0       0
   575 ;;Total ram usage:        0 bytes
   576 ;; Hardware stack levels used:    1
   577 ;; Hardware stack levels required when called:    3
   578 ;; This function calls:
   579 ;;		Nothing
   580 ;; This function is called by:
   581 ;;		_main
   582 ;; This function uses a non-reentrant model
   583 ;;
   584                           
   585                           	psect	text3
   586  0016C0                     __ptext3:
   587                           	callstack 0
   588  0016C0                     _sisOsilatorIlkle:
   589                           	callstack 27
   590                           
   591                           ;osilator.c: 29:     OSCCON = 0b01110011;
   592                           
   593                           ;incstack = 0
   594  0016C0  0E73               	movlw	115
   595  0016C2  6ED3               	movwf	211,c	;volatile
   596                           
   597                           ;osilator.c: 31:     OSCCON2 = 0x04;
   598  0016C4  0E04               	movlw	4
   599  0016C6  6ED2               	movwf	210,c	;volatile
   600                           
   601                           ;osilator.c: 33:     OSCTUNE = 0x00;
   602  0016C8  0E00               	movlw	0
   603  0016CA  6E9B               	movwf	155,c	;volatile
   604  0016CC  0012               	return		;funcret
   605  0016CE                     __end_of_sisOsilatorIlkle:
   606                           	callstack 0
   607                           
   608 ;; *************** function _ledCakarlama2 *****************
   609 ;; Defined at:
   610 ;;		line 110 in file "ornek1.c"
   611 ;; Parameters:    Size  Location     Type
   612 ;;  tutucu          1   18[COMRAM] PTR void 
   613 ;;		 -> main@lc2(2), 
   614 ;; Auto vars:     Size  Location     Type
   615 ;;  VAZGECIS_BAY    1    0        unsigned char 
   616 ;; Return value:  Size  Location     Type
   617 ;;                  1    wreg      unsigned char 
   618 ;; Registers used:
   619 ;;		wreg, fsr2l, fsr2h, status,2, status,0, cstack
   620 ;; Tracked objects:
   621 ;;		On entry : 0/0
   622 ;;		On exit  : 0/0
   623 ;;		Unchanged: 0/0
   624 ;; Data sizes:     COMRAM   BANK0   BANK1   BANK2   BANK3   BANK4   BANK5   BANK6   BANK7   BANK8   BANK9  BANK10  BANK1
      +1  BANK12  BANK13  BANK14  BANK15
   625 ;;      Params:         1       0       0       0       0       0       0       0       0       0       0       0       
      +0       0       0       0       0
   626 ;;      Locals:         1       0       0       0       0       0       0       0       0       0       0       0       
      +0       0       0       0       0
   627 ;;      Temps:          2       0       0       0       0       0       0       0       0       0       0       0       
      +0       0       0       0       0
   628 ;;      Totals:         4       0       0       0       0       0       0       0       0       0       0       0       
      +0       0       0       0       0
   629 ;;Total ram usage:        4 bytes
   630 ;; Hardware stack levels used:    1
   631 ;; Hardware stack levels required when called:    4
   632 ;; This function calls:
   633 ;;		_grvTikSayiminiAl
   634 ;; This function is called by:
   635 ;;		_main
   636 ;; This function uses a non-reentrant model
   637 ;;
   638                           
   639                           	psect	text4
   640  001020                     __ptext4:
   641                           	callstack 0
   642  001020                     _ledCakarlama2:
   643                           	callstack 26
   644                           
   645                           ;incstack = 0
   646  001020  D109               	goto	l1928
   647  001022                     l180:
   648                           
   649                           ;ornek1.c: 115:     static sure_t s2;;ornek1.c: 118:     LATBbits.LATB5 = 0;
   650  001022  9A8A               	bcf	138,5,c	;volatile
   651                           
   652                           ;ornek1.c: 119:     ANSELBbits.ANSB5 = 0;
   653  001024  010F               	movlb	15	; () banked
   654  001026  9B39               	bcf	57,5,b	;volatile
   655                           
   656                           ;ornek1.c: 120:     TRISBbits.TRISB5 = 0;
   657  001028  9A93               	bcf	147,5,c	;volatile
   658  00102A                     l1844:
   659                           
   660                           ;ornek1.c: 124:         PORTBbits.RB5 = !PORTBbits.RB5;
   661  00102A  BA81               	btfsc	129,5,c	;volatile
   662  00102C  D003               	goto	u1010
   663  00102E  6A14               	clrf	??_ledCakarlama2^0,c
   664  001030  2A14               	incf	??_ledCakarlama2^0,f,c
   665  001032  D001               	goto	u1028
   666  001034                     u1010:
   667  001034  6A14               	clrf	??_ledCakarlama2^0,c
   668  001036                     u1028:
   669  001036  3A14               	swapf	??_ledCakarlama2^0,f,c
   670  001038  4614               	rlncf	??_ledCakarlama2^0,f,c
   671  00103A  5081               	movf	129,w,c	;volatile
   672  00103C  1814               	xorwf	??_ledCakarlama2^0,w,c
   673  00103E  0BDF               	andlw	-33
   674  001040  1814               	xorwf	??_ledCakarlama2^0,w,c
   675  001042  6E81               	movwf	129,c	;volatile
   676                           
   677                           ;ornek1.c: 126:   ( (sure_t*) &s2 )->kacTik = (50u / (1000u / 1000u)); ( (sure_t*) &s2 )
      +                          ->baslangic = grvTikSayiminiAl(); ( (gorev_t*) tutucu )->sn = 126; case 126:; if(!(( (gr
      +                          vTikSayiminiAl() - ( (sure_t*) &s2 )->baslangic) >= ( (sure_t*) &s2 )->kacTik ))){ retur
      +                          n 0; };
   678  001044  0E00               	movlw	0
   679  001046  6E2F               	movwf	(ledCakarlama2@s2+3)^0,c
   680  001048  0E32               	movlw	50
   681  00104A  6E2E               	movwf	(ledCakarlama2@s2+2)^0,c
   682  00104C  EC52  F00B         	call	_grvTikSayiminiAl	;wreg free
   683  001050  C00F  F02C         	movff	?_grvTikSayiminiAl,ledCakarlama2@s2
   684  001054  C010  F02D         	movff	?_grvTikSayiminiAl+1,ledCakarlama2@s2+1
   685  001058  5013               	movf	ledCakarlama2@tutucu^0,w,c
   686  00105A  6ED9               	movwf	fsr2l,c
   687  00105C  6ADA               	clrf	fsr2h,c
   688  00105E  0E7E               	movlw	126
   689  001060  6EDE               	movwf	postinc2,c
   690  001062  0E00               	movlw	0
   691  001064  6EDD               	movwf	postdec2,c
   692  001066                     l1852:
   693  001066  EC52  F00B         	call	_grvTikSayiminiAl	;wreg free
   694  00106A  502C               	movf	ledCakarlama2@s2^0,w,c
   695  00106C  5E0F               	subwf	?_grvTikSayiminiAl^0,f,c
   696  00106E  502D               	movf	(ledCakarlama2@s2+1)^0,w,c
   697  001070  5A10               	subwfb	(?_grvTikSayiminiAl+1)^0,f,c
   698  001072  502E               	movf	(ledCakarlama2@s2+2)^0,w,c
   699  001074  5C0F               	subwf	?_grvTikSayiminiAl^0,w,c
   700  001076  502F               	movf	(ledCakarlama2@s2+3)^0,w,c
   701  001078  5810               	subwfb	(?_grvTikSayiminiAl+1)^0,w,c
   702  00107A  A0D8               	btfss	status,0,c
   703  00107C  0012               	return	
   704                           
   705                           ;ornek1.c: 128:         PORTBbits.RB5 = !PORTBbits.RB5;
   706  00107E  BA81               	btfsc	129,5,c	;volatile
   707  001080  D003               	goto	u1040
   708  001082  6A14               	clrf	??_ledCakarlama2^0,c
   709  001084  2A14               	incf	??_ledCakarlama2^0,f,c
   710  001086  D001               	goto	u1058
   711  001088                     u1040:
   712  001088  6A14               	clrf	??_ledCakarlama2^0,c
   713  00108A                     u1058:
   714  00108A  3A14               	swapf	??_ledCakarlama2^0,f,c
   715  00108C  4614               	rlncf	??_ledCakarlama2^0,f,c
   716  00108E  5081               	movf	129,w,c	;volatile
   717  001090  1814               	xorwf	??_ledCakarlama2^0,w,c
   718  001092  0BDF               	andlw	-33
   719  001094  1814               	xorwf	??_ledCakarlama2^0,w,c
   720  001096  6E81               	movwf	129,c	;volatile
   721                           
   722                           ;ornek1.c: 130:   ( (sure_t*) &s2 )->kacTik = (50u / (1000u / 1000u)); ( (sure_t*) &s2 )
      +                          ->baslangic = grvTikSayiminiAl(); ( (gorev_t*) tutucu )->sn = 130; case 130:; if(!(( (gr
      +                          vTikSayiminiAl() - ( (sure_t*) &s2 )->baslangic) >= ( (sure_t*) &s2 )->kacTik ))){ retur
      +                          n 0; };
   723  001098  0E00               	movlw	0
   724  00109A  6E2F               	movwf	(ledCakarlama2@s2+3)^0,c
   725  00109C  0E32               	movlw	50
   726  00109E  6E2E               	movwf	(ledCakarlama2@s2+2)^0,c
   727  0010A0  EC52  F00B         	call	_grvTikSayiminiAl	;wreg free
   728  0010A4  C00F  F02C         	movff	?_grvTikSayiminiAl,ledCakarlama2@s2
   729  0010A8  C010  F02D         	movff	?_grvTikSayiminiAl+1,ledCakarlama2@s2+1
   730  0010AC  5013               	movf	ledCakarlama2@tutucu^0,w,c
   731  0010AE  6ED9               	movwf	fsr2l,c
   732  0010B0  6ADA               	clrf	fsr2h,c
   733  0010B2  0E82               	movlw	130
   734  0010B4  6EDE               	movwf	postinc2,c
   735  0010B6  0E00               	movlw	0
   736  0010B8  6EDD               	movwf	postdec2,c
   737  0010BA                     l1864:
   738  0010BA  EC52  F00B         	call	_grvTikSayiminiAl	;wreg free
   739  0010BE  502C               	movf	ledCakarlama2@s2^0,w,c
   740  0010C0  5E0F               	subwf	?_grvTikSayiminiAl^0,f,c
   741  0010C2  502D               	movf	(ledCakarlama2@s2+1)^0,w,c
   742  0010C4  5A10               	subwfb	(?_grvTikSayiminiAl+1)^0,f,c
   743  0010C6  502E               	movf	(ledCakarlama2@s2+2)^0,w,c
   744  0010C8  5C0F               	subwf	?_grvTikSayiminiAl^0,w,c
   745  0010CA  502F               	movf	(ledCakarlama2@s2+3)^0,w,c
   746  0010CC  5810               	subwfb	(?_grvTikSayiminiAl+1)^0,w,c
   747  0010CE  A0D8               	btfss	status,0,c
   748  0010D0  0012               	return	
   749                           
   750                           ;ornek1.c: 132:         PORTBbits.RB5 = !PORTBbits.RB5;
   751  0010D2  BA81               	btfsc	129,5,c	;volatile
   752  0010D4  D003               	goto	u1070
   753  0010D6  6A14               	clrf	??_ledCakarlama2^0,c
   754  0010D8  2A14               	incf	??_ledCakarlama2^0,f,c
   755  0010DA  D001               	goto	u1088
   756  0010DC                     u1070:
   757  0010DC  6A14               	clrf	??_ledCakarlama2^0,c
   758  0010DE                     u1088:
   759  0010DE  3A14               	swapf	??_ledCakarlama2^0,f,c
   760  0010E0  4614               	rlncf	??_ledCakarlama2^0,f,c
   761  0010E2  5081               	movf	129,w,c	;volatile
   762  0010E4  1814               	xorwf	??_ledCakarlama2^0,w,c
   763  0010E6  0BDF               	andlw	-33
   764  0010E8  1814               	xorwf	??_ledCakarlama2^0,w,c
   765  0010EA  6E81               	movwf	129,c	;volatile
   766                           
   767                           ;ornek1.c: 134:   ( (sure_t*) &s2 )->kacTik = (50u / (1000u / 1000u)); ( (sure_t*) &s2 )
      +                          ->baslangic = grvTikSayiminiAl(); ( (gorev_t*) tutucu )->sn = 134; case 134:; if(!(( (gr
      +                          vTikSayiminiAl() - ( (sure_t*) &s2 )->baslangic) >= ( (sure_t*) &s2 )->kacTik ))){ retur
      +                          n 0; };
   768  0010EC  0E00               	movlw	0
   769  0010EE  6E2F               	movwf	(ledCakarlama2@s2+3)^0,c
   770  0010F0  0E32               	movlw	50
   771  0010F2  6E2E               	movwf	(ledCakarlama2@s2+2)^0,c
   772  0010F4  EC52  F00B         	call	_grvTikSayiminiAl	;wreg free
   773  0010F8  C00F  F02C         	movff	?_grvTikSayiminiAl,ledCakarlama2@s2
   774  0010FC  C010  F02D         	movff	?_grvTikSayiminiAl+1,ledCakarlama2@s2+1
   775  001100  5013               	movf	ledCakarlama2@tutucu^0,w,c
   776  001102  6ED9               	movwf	fsr2l,c
   777  001104  6ADA               	clrf	fsr2h,c
   778  001106  0E86               	movlw	134
   779  001108  6EDE               	movwf	postinc2,c
   780  00110A  0E00               	movlw	0
   781  00110C  6EDD               	movwf	postdec2,c
   782  00110E                     l1876:
   783  00110E  EC52  F00B         	call	_grvTikSayiminiAl	;wreg free
   784  001112  502C               	movf	ledCakarlama2@s2^0,w,c
   785  001114  5E0F               	subwf	?_grvTikSayiminiAl^0,f,c
   786  001116  502D               	movf	(ledCakarlama2@s2+1)^0,w,c
   787  001118  5A10               	subwfb	(?_grvTikSayiminiAl+1)^0,f,c
   788  00111A  502E               	movf	(ledCakarlama2@s2+2)^0,w,c
   789  00111C  5C0F               	subwf	?_grvTikSayiminiAl^0,w,c
   790  00111E  502F               	movf	(ledCakarlama2@s2+3)^0,w,c
   791  001120  5810               	subwfb	(?_grvTikSayiminiAl+1)^0,w,c
   792  001122  A0D8               	btfss	status,0,c
   793  001124  0012               	return	
   794                           
   795                           ;ornek1.c: 136:         PORTBbits.RB5 = !PORTBbits.RB5;
   796  001126  BA81               	btfsc	129,5,c	;volatile
   797  001128  D003               	goto	u1100
   798  00112A  6A14               	clrf	??_ledCakarlama2^0,c
   799  00112C  2A14               	incf	??_ledCakarlama2^0,f,c
   800  00112E  D001               	goto	u1118
   801  001130                     u1100:
   802  001130  6A14               	clrf	??_ledCakarlama2^0,c
   803  001132                     u1118:
   804  001132  3A14               	swapf	??_ledCakarlama2^0,f,c
   805  001134  4614               	rlncf	??_ledCakarlama2^0,f,c
   806  001136  5081               	movf	129,w,c	;volatile
   807  001138  1814               	xorwf	??_ledCakarlama2^0,w,c
   808  00113A  0BDF               	andlw	-33
   809  00113C  1814               	xorwf	??_ledCakarlama2^0,w,c
   810  00113E  6E81               	movwf	129,c	;volatile
   811                           
   812                           ;ornek1.c: 138:   ( (sure_t*) &s2 )->kacTik = (50u / (1000u / 1000u)); ( (sure_t*) &s2 )
      +                          ->baslangic = grvTikSayiminiAl(); ( (gorev_t*) tutucu )->sn = 138; case 138:; if(!(( (gr
      +                          vTikSayiminiAl() - ( (sure_t*) &s2 )->baslangic) >= ( (sure_t*) &s2 )->kacTik ))){ retur
      +                          n 0; };
   813  001140  0E00               	movlw	0
   814  001142  6E2F               	movwf	(ledCakarlama2@s2+3)^0,c
   815  001144  0E32               	movlw	50
   816  001146  6E2E               	movwf	(ledCakarlama2@s2+2)^0,c
   817  001148  EC52  F00B         	call	_grvTikSayiminiAl	;wreg free
   818  00114C  C00F  F02C         	movff	?_grvTikSayiminiAl,ledCakarlama2@s2
   819  001150  C010  F02D         	movff	?_grvTikSayiminiAl+1,ledCakarlama2@s2+1
   820  001154  5013               	movf	ledCakarlama2@tutucu^0,w,c
   821  001156  6ED9               	movwf	fsr2l,c
   822  001158  6ADA               	clrf	fsr2h,c
   823  00115A  0E8A               	movlw	138
   824  00115C  6EDE               	movwf	postinc2,c
   825  00115E  0E00               	movlw	0
   826  001160  6EDD               	movwf	postdec2,c
   827  001162                     l1888:
   828  001162  EC52  F00B         	call	_grvTikSayiminiAl	;wreg free
   829  001166  502C               	movf	ledCakarlama2@s2^0,w,c
   830  001168  5E0F               	subwf	?_grvTikSayiminiAl^0,f,c
   831  00116A  502D               	movf	(ledCakarlama2@s2+1)^0,w,c
   832  00116C  5A10               	subwfb	(?_grvTikSayiminiAl+1)^0,f,c
   833  00116E  502E               	movf	(ledCakarlama2@s2+2)^0,w,c
   834  001170  5C0F               	subwf	?_grvTikSayiminiAl^0,w,c
   835  001172  502F               	movf	(ledCakarlama2@s2+3)^0,w,c
   836  001174  5810               	subwfb	(?_grvTikSayiminiAl+1)^0,w,c
   837  001176  A0D8               	btfss	status,0,c
   838  001178  0012               	return	
   839                           
   840                           ;ornek1.c: 140:         PORTBbits.RB5 = !PORTBbits.RB5;
   841  00117A  BA81               	btfsc	129,5,c	;volatile
   842  00117C  D003               	goto	u1130
   843  00117E  6A14               	clrf	??_ledCakarlama2^0,c
   844  001180  2A14               	incf	??_ledCakarlama2^0,f,c
   845  001182  D001               	goto	u1148
   846  001184                     u1130:
   847  001184  6A14               	clrf	??_ledCakarlama2^0,c
   848  001186                     u1148:
   849  001186  3A14               	swapf	??_ledCakarlama2^0,f,c
   850  001188  4614               	rlncf	??_ledCakarlama2^0,f,c
   851  00118A  5081               	movf	129,w,c	;volatile
   852  00118C  1814               	xorwf	??_ledCakarlama2^0,w,c
   853  00118E  0BDF               	andlw	-33
   854  001190  1814               	xorwf	??_ledCakarlama2^0,w,c
   855  001192  6E81               	movwf	129,c	;volatile
   856                           
   857                           ;ornek1.c: 142:   ( (sure_t*) &s2 )->kacTik = (50u / (1000u / 1000u)); ( (sure_t*) &s2 )
      +                          ->baslangic = grvTikSayiminiAl(); ( (gorev_t*) tutucu )->sn = 142; case 142:; if(!(( (gr
      +                          vTikSayiminiAl() - ( (sure_t*) &s2 )->baslangic) >= ( (sure_t*) &s2 )->kacTik ))){ retur
      +                          n 0; };
   858  001194  0E00               	movlw	0
   859  001196  6E2F               	movwf	(ledCakarlama2@s2+3)^0,c
   860  001198  0E32               	movlw	50
   861  00119A  6E2E               	movwf	(ledCakarlama2@s2+2)^0,c
   862  00119C  EC52  F00B         	call	_grvTikSayiminiAl	;wreg free
   863  0011A0  C00F  F02C         	movff	?_grvTikSayiminiAl,ledCakarlama2@s2
   864  0011A4  C010  F02D         	movff	?_grvTikSayiminiAl+1,ledCakarlama2@s2+1
   865  0011A8  5013               	movf	ledCakarlama2@tutucu^0,w,c
   866  0011AA  6ED9               	movwf	fsr2l,c
   867  0011AC  6ADA               	clrf	fsr2h,c
   868  0011AE  0E8E               	movlw	142
   869  0011B0  6EDE               	movwf	postinc2,c
   870  0011B2  0E00               	movlw	0
   871  0011B4  6EDD               	movwf	postdec2,c
   872  0011B6                     l1900:
   873  0011B6  EC52  F00B         	call	_grvTikSayiminiAl	;wreg free
   874  0011BA  502C               	movf	ledCakarlama2@s2^0,w,c
   875  0011BC  5E0F               	subwf	?_grvTikSayiminiAl^0,f,c
   876  0011BE  502D               	movf	(ledCakarlama2@s2+1)^0,w,c
   877  0011C0  5A10               	subwfb	(?_grvTikSayiminiAl+1)^0,f,c
   878  0011C2  502E               	movf	(ledCakarlama2@s2+2)^0,w,c
   879  0011C4  5C0F               	subwf	?_grvTikSayiminiAl^0,w,c
   880  0011C6  502F               	movf	(ledCakarlama2@s2+3)^0,w,c
   881  0011C8  5810               	subwfb	(?_grvTikSayiminiAl+1)^0,w,c
   882  0011CA  A0D8               	btfss	status,0,c
   883  0011CC  0012               	return	
   884                           
   885                           ;ornek1.c: 144:         PORTBbits.RB5 = !PORTBbits.RB5;
   886  0011CE  BA81               	btfsc	129,5,c	;volatile
   887  0011D0  D003               	goto	u1160
   888  0011D2  6A14               	clrf	??_ledCakarlama2^0,c
   889  0011D4  2A14               	incf	??_ledCakarlama2^0,f,c
   890  0011D6  D001               	goto	u1178
   891  0011D8                     u1160:
   892  0011D8  6A14               	clrf	??_ledCakarlama2^0,c
   893  0011DA                     u1178:
   894  0011DA  3A14               	swapf	??_ledCakarlama2^0,f,c
   895  0011DC  4614               	rlncf	??_ledCakarlama2^0,f,c
   896  0011DE  5081               	movf	129,w,c	;volatile
   897  0011E0  1814               	xorwf	??_ledCakarlama2^0,w,c
   898  0011E2  0BDF               	andlw	-33
   899  0011E4  1814               	xorwf	??_ledCakarlama2^0,w,c
   900  0011E6  6E81               	movwf	129,c	;volatile
   901                           
   902                           ;ornek1.c: 146:   ( (sure_t*) &s2 )->kacTik = (1000u / (1000u / 1000u)); ( (sure_t*) &s2
      +                           )->baslangic = grvTikSayiminiAl(); ( (gorev_t*) tutucu )->sn = 146; case 146:; if(!(( (
      +                          grvTikSayiminiAl() - ( (sure_t*) &s2 )->baslangic) >= ( (sure_t*) &s2 )->kacTik ))){ ret
      +                          urn 0; };
   903  0011E8  0E03               	movlw	3
   904  0011EA  6E2F               	movwf	(ledCakarlama2@s2+3)^0,c
   905  0011EC  0EE8               	movlw	232
   906  0011EE  6E2E               	movwf	(ledCakarlama2@s2+2)^0,c
   907  0011F0  EC52  F00B         	call	_grvTikSayiminiAl	;wreg free
   908  0011F4  C00F  F02C         	movff	?_grvTikSayiminiAl,ledCakarlama2@s2
   909  0011F8  C010  F02D         	movff	?_grvTikSayiminiAl+1,ledCakarlama2@s2+1
   910  0011FC  5013               	movf	ledCakarlama2@tutucu^0,w,c
   911  0011FE  6ED9               	movwf	fsr2l,c
   912  001200  6ADA               	clrf	fsr2h,c
   913  001202  0E92               	movlw	146
   914  001204  6EDE               	movwf	postinc2,c
   915  001206  0E00               	movlw	0
   916  001208  6EDD               	movwf	postdec2,c
   917  00120A                     l1912:
   918  00120A  EC52  F00B         	call	_grvTikSayiminiAl	;wreg free
   919  00120E  502C               	movf	ledCakarlama2@s2^0,w,c
   920  001210  5E0F               	subwf	?_grvTikSayiminiAl^0,f,c
   921  001212  502D               	movf	(ledCakarlama2@s2+1)^0,w,c
   922  001214  5A10               	subwfb	(?_grvTikSayiminiAl+1)^0,f,c
   923  001216  502E               	movf	(ledCakarlama2@s2+2)^0,w,c
   924  001218  5C0F               	subwf	?_grvTikSayiminiAl^0,w,c
   925  00121A  502F               	movf	(ledCakarlama2@s2+3)^0,w,c
   926  00121C  5810               	subwfb	(?_grvTikSayiminiAl+1)^0,w,c
   927  00121E  A0D8               	btfss	status,0,c
   928  001220  0012               	return	
   929  001222  D703               	goto	l1844
   930  001224                     l1922:
   931  001224  5013               	movf	ledCakarlama2@tutucu^0,w,c
   932  001226  6ED9               	movwf	fsr2l,c
   933  001228  6ADA               	clrf	fsr2h,c
   934  00122A  0E00               	movlw	0
   935  00122C  6EDE               	movwf	postinc2,c
   936  00122E  0E00               	movlw	0
   937  001230  6EDD               	movwf	postdec2,c
   938  001232  0012               	return	
   939  001234                     l1928:
   940  001234  5013               	movf	ledCakarlama2@tutucu^0,w,c
   941  001236  6ED9               	movwf	fsr2l,c
   942  001238  6ADA               	clrf	fsr2h,c
   943  00123A  CFDE F014          	movff	postinc2,??_ledCakarlama2
   944  00123E  CFDD F015          	movff	postdec2,??_ledCakarlama2+1
   945                           
   946                           ; Switch on 2 bytes has been partitioned into a top level switch of size 1, and 1 sub-sw
      +                          itches
   947                           ; Switch size 1, requested type "simple"
   948                           ; Number of cases is 1, Range of values is 0 to 0
   949                           ; switch strategies available:
   950                           ; Name         Instructions Cycles
   951                           ; simple_byte            4     3 (average)
   952                           ;	Chosen strategy is simple_byte
   953  001242  5015               	movf	(??_ledCakarlama2+1)^0,w,c
   954  001244  0A00               	xorlw	0	; case 0
   955  001246  A4D8               	btfss	status,2,c
   956  001248  D7ED               	goto	l1922
   957                           
   958                           ; Switch size 1, requested type "simple"
   959                           ; Number of cases is 8, Range of values is 0 to 149
   960                           ; switch strategies available:
   961                           ; Name         Instructions Cycles
   962                           ; simple_byte           25    13 (average)
   963                           ;	Chosen strategy is simple_byte
   964  00124A  5014               	movf	??_ledCakarlama2^0,w,c
   965  00124C  0A00               	xorlw	0	; case 0
   966  00124E  B4D8               	btfsc	status,2,c
   967  001250  D6E8               	goto	l180
   968  001252  0A7E               	xorlw	126	; case 126
   969  001254  B4D8               	btfsc	status,2,c
   970  001256  D707               	goto	l1852
   971  001258  0AFC               	xorlw	252	; case 130
   972  00125A  B4D8               	btfsc	status,2,c
   973  00125C  D72E               	goto	l1864
   974  00125E  0A04               	xorlw	4	; case 134
   975  001260  B4D8               	btfsc	status,2,c
   976  001262  D755               	goto	l1876
   977  001264  0A0C               	xorlw	12	; case 138
   978  001266  B4D8               	btfsc	status,2,c
   979  001268  D77C               	goto	l1888
   980  00126A  0A04               	xorlw	4	; case 142
   981  00126C  B4D8               	btfsc	status,2,c
   982  00126E  D7A3               	goto	l1900
   983  001270  0A1C               	xorlw	28	; case 146
   984  001272  B4D8               	btfsc	status,2,c
   985  001274  D7CA               	goto	l1912
   986  001276  0A07               	xorlw	7	; case 149
   987  001278  B4D8               	btfsc	status,2,c
   988  00127A  0012               	return		;funcret
   989  00127C  D7D3               	goto	l1922
   990  00127E                     __end_of_ledCakarlama2:
   991                           	callstack 0
   992                           
   993 ;; *************** function _ledCakarlama1 *****************
   994 ;; Defined at:
   995 ;;		line 44 in file "ornek1.c"
   996 ;; Parameters:    Size  Location     Type
   997 ;;  tutucu          1   18[COMRAM] PTR void 
   998 ;;		 -> main@lc1(2), 
   999 ;; Auto vars:     Size  Location     Type
  1000 ;;  sureler        30    0[BANK0 ] const unsigned int [15]
  1001 ;;  sonSira         1   31[BANK0 ] const unsigned char 
  1002 ;;  VAZGECIS_BAY    1    0        unsigned char 
  1003 ;; Return value:  Size  Location     Type
  1004 ;;                  1    wreg      unsigned char 
  1005 ;; Registers used:
  1006 ;;		wreg, fsr2l, fsr2h, status,2, status,0, tblptrl, tblptrh, tblptru, prodl, prodh, cstack
  1007 ;; Tracked objects:
  1008 ;;		On entry : 0/0
  1009 ;;		On exit  : 0/0
  1010 ;;		Unchanged: 0/0
  1011 ;; Data sizes:     COMRAM   BANK0   BANK1   BANK2   BANK3   BANK4   BANK5   BANK6   BANK7   BANK8   BANK9  BANK10  BANK1
      +1  BANK12  BANK13  BANK14  BANK15
  1012 ;;      Params:         1       0       0       0       0       0       0       0       0       0       0       0       
      +0       0       0       0       0
  1013 ;;      Locals:         0      32       0       0       0       0       0       0       0       0       0       0       
      +0       0       0       0       0
  1014 ;;      Temps:          2       0       0       0       0       0       0       0       0       0       0       0       
      +0       0       0       0       0
  1015 ;;      Totals:         3      32       0       0       0       0       0       0       0       0       0       0       
      +0       0       0       0       0
  1016 ;;Total ram usage:       35 bytes
  1017 ;; Hardware stack levels used:    1
  1018 ;; Hardware stack levels required when called:    4
  1019 ;; This function calls:
  1020 ;;		_grvTikSayiminiAl
  1021 ;; This function is called by:
  1022 ;;		_main
  1023 ;; This function uses a non-reentrant model
  1024 ;;
  1025                           
  1026                           	psect	text5
  1027  00127E                     __ptext5:
  1028                           	callstack 0
  1029  00127E                     _ledCakarlama1:
  1030                           	callstack 26
  1031                           
  1032                           ;incstack = 0
  1033  00127E  D093               	goto	l1836
  1034  001280                     l1772:
  1035                           
  1036                           ;ornek1.c: 54:     static sure_t s1;;ornek1.c: 56:     static char secici;;ornek1.c: 57:
      +                               static _Bool artir;;ornek1.c: 60:     const unsigned int sureler[] = {
  1037  001280  0E01               	movlw	low ledCakarlama1@F6039
  1038  001282  6EF6               	movwf	tblptrl,c
  1039  001284                     	if	1	;There is more than 1 active tblptr byte
  1040  001284  0E10               	movlw	high ledCakarlama1@F6039
  1041  001286  6EF7               	movwf	tblptrh,c
  1042  001288                     	endif
  1043  001288                     	if	1	;There are 3 active tblptr bytes
  1044  001288  0E00               	movlw	low (ledCakarlama1@F6039 shr (0+16))
  1045  00128A  6EF8               	movwf	tblptru,c
  1046  00128C                     	endif
  1047  00128C  EE20  F060         	lfsr	2,ledCakarlama1@sureler
  1048  001290  0E1D               	movlw	29
  1049  001292                     u910:
  1050  001292  0009               	tblrd		*+
  1051  001294  CFF5 FFDE          	movff	tablat,postinc2
  1052  001298  06E8               	decf	wreg,f,c
  1053  00129A  E2FB               	bc	u910
  1054                           
  1055                           ;ornek1.c: 65:     const char sonSira = sizeof(sureler) / sizeof(unsigned int) - 1;
  1056  00129C  0E0E               	movlw	14
  1057  00129E  0100               	movlb	0	; () banked
  1058  0012A0  6F7F               	movwf	ledCakarlama1@sonSira& (0+255),b
  1059                           
  1060                           ; BSR set to: 0
  1061                           ;ornek1.c: 68:     LATBbits.LATB1 = 0;
  1062  0012A2  928A               	bcf	138,1,c	;volatile
  1063                           
  1064                           ; BSR set to: 0
  1065                           ;ornek1.c: 69:     ANSELBbits.ANSB1 = 0;
  1066  0012A4  010F               	movlb	15	; () banked
  1067  0012A6  9339               	bcf	57,1,b	;volatile
  1068                           
  1069                           ; BSR set to: 15
  1070                           ;ornek1.c: 70:     TRISBbits.TRISB1 = 0;
  1071  0012A8  9293               	bcf	147,1,c	;volatile
  1072                           
  1073                           ; BSR set to: 15
  1074                           ;ornek1.c: 71:     secici = 0;
  1075  0012AA  0E00               	movlw	0
  1076  0012AC  6E40               	movwf	ledCakarlama1@secici^0,c
  1077                           
  1078                           ; BSR set to: 15
  1079                           ;ornek1.c: 72:     artir = 1;
  1080  0012AE  0E01               	movlw	1
  1081  0012B0  6E3F               	movwf	ledCakarlama1@artir^0,c
  1082  0012B2                     l1786:
  1083                           
  1084                           ;ornek1.c: 76:         if(artir){
  1085  0012B2  503F               	movf	ledCakarlama1@artir^0,w,c
  1086  0012B4  B4D8               	btfsc	status,2,c
  1087  0012B6  D009               	goto	l1794
  1088                           
  1089                           ;ornek1.c: 77:             if(secici == sonSira){
  1090  0012B8  0100               	movlb	0	; () banked
  1091  0012BA  517F               	movf	ledCakarlama1@sonSira& (0+255),w,b
  1092  0012BC  1840               	xorwf	ledCakarlama1@secici^0,w,c
  1093  0012BE  A4D8               	btfss	status,2,c
  1094  0012C0  D002               	goto	l1792
  1095                           
  1096                           ; BSR set to: 0
  1097                           ;ornek1.c: 78:                 artir = 0;
  1098  0012C2  0E00               	movlw	0
  1099  0012C4  D006               	goto	L1
  1100  0012C6                     l1792:
  1101                           
  1102                           ; BSR set to: 0
  1103                           ;ornek1.c: 80:                 secici++;
  1104  0012C6  2A40               	incf	ledCakarlama1@secici^0,f,c
  1105  0012C8  D007               	goto	l1800
  1106  0012CA                     l1794:
  1107                           
  1108                           ;ornek1.c: 83:             if(secici == 0){
  1109  0012CA  5040               	movf	ledCakarlama1@secici^0,w,c
  1110  0012CC  A4D8               	btfss	status,2,c
  1111  0012CE  D003               	goto	l1798
  1112                           
  1113                           ;ornek1.c: 84:                 artir = 1;
  1114  0012D0  0E01               	movlw	1
  1115  0012D2                     L1:
  1116  0012D2  6E3F               	movwf	ledCakarlama1@artir^0,c
  1117                           
  1118                           ;ornek1.c: 85:             } else{
  1119  0012D4  D001               	goto	l1800
  1120  0012D6                     l1798:
  1121                           
  1122                           ;ornek1.c: 86:                 secici--;
  1123  0012D6  0640               	decf	ledCakarlama1@secici^0,f,c
  1124  0012D8                     l1800:
  1125                           
  1126                           ;ornek1.c: 90:         PORTBbits.RB1 = !PORTBbits.RB1;
  1127  0012D8  B281               	btfsc	129,1,c	;volatile
  1128  0012DA  D003               	goto	u950
  1129  0012DC  6A14               	clrf	??_ledCakarlama1^0,c
  1130  0012DE  2A14               	incf	??_ledCakarlama1^0,f,c
  1131  0012E0  D001               	goto	u968
  1132  0012E2                     u950:
  1133  0012E2  6A14               	clrf	??_ledCakarlama1^0,c
  1134  0012E4                     u968:
  1135  0012E4  4614               	rlncf	??_ledCakarlama1^0,f,c
  1136  0012E6  5081               	movf	129,w,c	;volatile
  1137  0012E8  1814               	xorwf	??_ledCakarlama1^0,w,c
  1138  0012EA  0BFD               	andlw	-3
  1139  0012EC  1814               	xorwf	??_ledCakarlama1^0,w,c
  1140  0012EE  6E81               	movwf	129,c	;volatile
  1141                           
  1142                           ;ornek1.c: 93:         ( (sure_t*) &s1 )->kacTik = (sureler[secici] / (1000u / 1000u)); 
      +                          ( (sure_t*) &s1 )->baslangic = grvTikSayiminiAl(); ( (gorev_t*) tutucu )->sn = 93; case 
      +                          93:; if(!(( (grvTikSayiminiAl() - ( (sure_t*) &s1 )->baslangic) >= ( (sure_t*) &s1 )->ka
      +                          cTik ))){ return 0; };
  1143  0012F0  5040               	movf	ledCakarlama1@secici^0,w,c
  1144  0012F2  0D02               	mullw	2
  1145  0012F4  50F3               	movf	243,w,c
  1146  0012F6  0F60               	addlw	low ledCakarlama1@sureler
  1147  0012F8  6ED9               	movwf	fsr2l,c
  1148  0012FA  6ADA               	clrf	fsr2h,c
  1149  0012FC  CFDE F032          	movff	postinc2,ledCakarlama1@s1+2
  1150  001300  CFDD F033          	movff	postdec2,ledCakarlama1@s1+3
  1151  001304  EC52  F00B         	call	_grvTikSayiminiAl	;wreg free
  1152  001308  C00F  F030         	movff	?_grvTikSayiminiAl,ledCakarlama1@s1
  1153  00130C  C010  F031         	movff	?_grvTikSayiminiAl+1,ledCakarlama1@s1+1
  1154  001310  5013               	movf	ledCakarlama1@tutucu^0,w,c
  1155  001312  6ED9               	movwf	fsr2l,c
  1156  001314  6ADA               	clrf	fsr2h,c
  1157  001316  0E5D               	movlw	93
  1158  001318  6EDE               	movwf	postinc2,c
  1159  00131A  0E00               	movlw	0
  1160  00131C  6EDD               	movwf	postdec2,c
  1161  00131E                     l1808:
  1162  00131E  EC52  F00B         	call	_grvTikSayiminiAl	;wreg free
  1163  001322  5030               	movf	ledCakarlama1@s1^0,w,c
  1164  001324  5E0F               	subwf	?_grvTikSayiminiAl^0,f,c
  1165  001326  5031               	movf	(ledCakarlama1@s1+1)^0,w,c
  1166  001328  5A10               	subwfb	(?_grvTikSayiminiAl+1)^0,f,c
  1167  00132A  5032               	movf	(ledCakarlama1@s1+2)^0,w,c
  1168  00132C  5C0F               	subwf	?_grvTikSayiminiAl^0,w,c
  1169  00132E  5033               	movf	(ledCakarlama1@s1+3)^0,w,c
  1170  001330  5810               	subwfb	(?_grvTikSayiminiAl+1)^0,w,c
  1171  001332  A0D8               	btfss	status,0,c
  1172  001334  0012               	return	
  1173                           
  1174                           ;ornek1.c: 95:         PORTBbits.RB1 = !PORTBbits.RB1;
  1175  001336  B281               	btfsc	129,1,c	;volatile
  1176  001338  D003               	goto	u980
  1177  00133A  6A14               	clrf	??_ledCakarlama1^0,c
  1178  00133C  2A14               	incf	??_ledCakarlama1^0,f,c
  1179  00133E  D001               	goto	u998
  1180  001340                     u980:
  1181  001340  6A14               	clrf	??_ledCakarlama1^0,c
  1182  001342                     u998:
  1183  001342  4614               	rlncf	??_ledCakarlama1^0,f,c
  1184  001344  5081               	movf	129,w,c	;volatile
  1185  001346  1814               	xorwf	??_ledCakarlama1^0,w,c
  1186  001348  0BFD               	andlw	-3
  1187  00134A  1814               	xorwf	??_ledCakarlama1^0,w,c
  1188  00134C  6E81               	movwf	129,c	;volatile
  1189                           
  1190                           ;ornek1.c: 98:         ( (sure_t*) &s1 )->kacTik = (sureler[secici] / (1000u / 1000u)); 
      +                          ( (sure_t*) &s1 )->baslangic = grvTikSayiminiAl(); ( (gorev_t*) tutucu )->sn = 98; case 
      +                          98:; if(!(( (grvTikSayiminiAl() - ( (sure_t*) &s1 )->baslangic) >= ( (sure_t*) &s1 )->ka
      +                          cTik ))){ return 0; };
  1191  00134E  5040               	movf	ledCakarlama1@secici^0,w,c
  1192  001350  0D02               	mullw	2
  1193  001352  50F3               	movf	243,w,c
  1194  001354  0F60               	addlw	low ledCakarlama1@sureler
  1195  001356  6ED9               	movwf	fsr2l,c
  1196  001358  6ADA               	clrf	fsr2h,c
  1197  00135A  CFDE F032          	movff	postinc2,ledCakarlama1@s1+2
  1198  00135E  CFDD F033          	movff	postdec2,ledCakarlama1@s1+3
  1199  001362  EC52  F00B         	call	_grvTikSayiminiAl	;wreg free
  1200  001366  C00F  F030         	movff	?_grvTikSayiminiAl,ledCakarlama1@s1
  1201  00136A  C010  F031         	movff	?_grvTikSayiminiAl+1,ledCakarlama1@s1+1
  1202  00136E  5013               	movf	ledCakarlama1@tutucu^0,w,c
  1203  001370  6ED9               	movwf	fsr2l,c
  1204  001372  6ADA               	clrf	fsr2h,c
  1205  001374  0E62               	movlw	98
  1206  001376  6EDE               	movwf	postinc2,c
  1207  001378  0E00               	movlw	0
  1208  00137A  6EDD               	movwf	postdec2,c
  1209  00137C                     l1820:
  1210  00137C  EC52  F00B         	call	_grvTikSayiminiAl	;wreg free
  1211  001380  5030               	movf	ledCakarlama1@s1^0,w,c
  1212  001382  5E0F               	subwf	?_grvTikSayiminiAl^0,f,c
  1213  001384  5031               	movf	(ledCakarlama1@s1+1)^0,w,c
  1214  001386  5A10               	subwfb	(?_grvTikSayiminiAl+1)^0,f,c
  1215  001388  5032               	movf	(ledCakarlama1@s1+2)^0,w,c
  1216  00138A  5C0F               	subwf	?_grvTikSayiminiAl^0,w,c
  1217  00138C  5033               	movf	(ledCakarlama1@s1+3)^0,w,c
  1218  00138E  5810               	subwfb	(?_grvTikSayiminiAl+1)^0,w,c
  1219  001390  A0D8               	btfss	status,0,c
  1220  001392  0012               	return	
  1221  001394  D78E               	goto	l1786
  1222  001396                     l1830:
  1223  001396  5013               	movf	ledCakarlama1@tutucu^0,w,c
  1224  001398  6ED9               	movwf	fsr2l,c
  1225  00139A  6ADA               	clrf	fsr2h,c
  1226  00139C  0E00               	movlw	0
  1227  00139E  6EDE               	movwf	postinc2,c
  1228  0013A0  0E00               	movlw	0
  1229  0013A2  6EDD               	movwf	postdec2,c
  1230  0013A4  0012               	return	
  1231  0013A6                     l1836:
  1232  0013A6  5013               	movf	ledCakarlama1@tutucu^0,w,c
  1233  0013A8  6ED9               	movwf	fsr2l,c
  1234  0013AA  6ADA               	clrf	fsr2h,c
  1235  0013AC  CFDE F014          	movff	postinc2,??_ledCakarlama1
  1236  0013B0  CFDD F015          	movff	postdec2,??_ledCakarlama1+1
  1237                           
  1238                           ; Switch on 2 bytes has been partitioned into a top level switch of size 1, and 1 sub-sw
      +                          itches
  1239                           ; Switch size 1, requested type "simple"
  1240                           ; Number of cases is 1, Range of values is 0 to 0
  1241                           ; switch strategies available:
  1242                           ; Name         Instructions Cycles
  1243                           ; simple_byte            4     3 (average)
  1244                           ;	Chosen strategy is simple_byte
  1245  0013B4  5015               	movf	(??_ledCakarlama1+1)^0,w,c
  1246  0013B6  0A00               	xorlw	0	; case 0
  1247  0013B8  A4D8               	btfss	status,2,c
  1248  0013BA  D7ED               	goto	l1830
  1249                           
  1250                           ; Switch size 1, requested type "simple"
  1251                           ; Number of cases is 4, Range of values is 0 to 102
  1252                           ; switch strategies available:
  1253                           ; Name         Instructions Cycles
  1254                           ; simple_byte           13     7 (average)
  1255                           ;	Chosen strategy is simple_byte
  1256  0013BC  5014               	movf	??_ledCakarlama1^0,w,c
  1257  0013BE  0A00               	xorlw	0	; case 0
  1258  0013C0  B4D8               	btfsc	status,2,c
  1259  0013C2  D75E               	goto	l1772
  1260  0013C4  0A5D               	xorlw	93	; case 93
  1261  0013C6  B4D8               	btfsc	status,2,c
  1262  0013C8  D7AA               	goto	l1808
  1263  0013CA  0A3F               	xorlw	63	; case 98
  1264  0013CC  B4D8               	btfsc	status,2,c
  1265  0013CE  D7D6               	goto	l1820
  1266  0013D0  0A04               	xorlw	4	; case 102
  1267  0013D2  B4D8               	btfsc	status,2,c
  1268  0013D4  0012               	return		;funcret
  1269  0013D6  D7DF               	goto	l1830
  1270  0013D8                     __end_of_ledCakarlama1:
  1271                           	callstack 0
  1272                           
  1273 ;; *************** function _karaSimsekHiziOkuma *****************
  1274 ;; Defined at:
  1275 ;;		line 202 in file "ornek1.c"
  1276 ;; Parameters:    Size  Location     Type
  1277 ;;  tutucu          1   21[COMRAM] PTR void 
  1278 ;;		 -> main@kho(2), 
  1279 ;; Auto vars:     Size  Location     Type
  1280 ;;  sonuc           2   25[COMRAM] unsigned short 
  1281 ;;  VAZGECIS_BAY    1    0        unsigned char 
  1282 ;; Return value:  Size  Location     Type
  1283 ;;                  1    wreg      unsigned char 
  1284 ;; Registers used:
  1285 ;;		wreg, fsr2l, fsr2h, status,2, status,0, cstack
  1286 ;; Tracked objects:
  1287 ;;		On entry : 0/0
  1288 ;;		On exit  : 0/0
  1289 ;;		Unchanged: 0/0
  1290 ;; Data sizes:     COMRAM   BANK0   BANK1   BANK2   BANK3   BANK4   BANK5   BANK6   BANK7   BANK8   BANK9  BANK10  BANK1
      +1  BANK12  BANK13  BANK14  BANK15
  1291 ;;      Params:         1       0       0       0       0       0       0       0       0       0       0       0       
      +0       0       0       0       0
  1292 ;;      Locals:         3       0       0       0       0       0       0       0       0       0       0       0       
      +0       0       0       0       0
  1293 ;;      Temps:          2       0       0       0       0       0       0       0       0       0       0       0       
      +0       0       0       0       0
  1294 ;;      Totals:         6       0       0       0       0       0       0       0       0       0       0       0       
      +0       0       0       0       0
  1295 ;;Total ram usage:        6 bytes
  1296 ;; Hardware stack levels used:    1
  1297 ;; Hardware stack levels required when called:    4
  1298 ;; This function calls:
  1299 ;;		___lwdiv
  1300 ;;		_grvTikSayiminiAl
  1301 ;; This function is called by:
  1302 ;;		_main
  1303 ;; This function uses a non-reentrant model
  1304 ;;
  1305                           
  1306                           	psect	text6
  1307  0013D8                     __ptext6:
  1308                           	callstack 0
  1309  0013D8                     _karaSimsekHiziOkuma:
  1310                           	callstack 26
  1311                           
  1312                           ;incstack = 0
  1313  0013D8  D05C               	goto	l2018
  1314  0013DA                     l224:
  1315                           
  1316                           ;ornek1.c: 206:     static sure_t s4;;ornek1.c: 209:     PIE1bits.ADIE = 0;
  1317  0013DA  9C9D               	bcf	157,6,c	;volatile
  1318                           
  1319                           ;ornek1.c: 210:     PIR1bits.ADIF = 0;
  1320  0013DC  9C9E               	bcf	158,6,c	;volatile
  1321                           
  1322                           ;ornek1.c: 211:     ADCON2 = 0xAF;
  1323  0013DE  0EAF               	movlw	175
  1324  0013E0  6EC0               	movwf	192,c	;volatile
  1325                           
  1326                           ;ornek1.c: 212:     ADCON1 = 0;
  1327  0013E2  0E00               	movlw	0
  1328  0013E4  6EC1               	movwf	193,c	;volatile
  1329                           
  1330                           ;ornek1.c: 213:     TRISAbits.TRISA0 = 1;
  1331  0013E6  8092               	bsf	146,0,c	;volatile
  1332                           
  1333                           ;ornek1.c: 214:     ADCON0bits.ADON = 1;
  1334  0013E8  80C2               	bsf	194,0,c	;volatile
  1335  0013EA                     l1982:
  1336                           
  1337                           ;ornek1.c: 218:         ADCON0bits.GO = 1;
  1338  0013EA  82C2               	bsf	194,1,c	;volatile
  1339                           
  1340                           ;ornek1.c: 222:         ( (gorev_t*) tutucu )->sn = 222; case 222:; if(((ADCON0bits.GO))
      +                          ){ return 0; };
  1341  0013EC  5016               	movf	karaSimsekHiziOkuma@tutucu^0,w,c
  1342  0013EE  6ED9               	movwf	fsr2l,c
  1343  0013F0  6ADA               	clrf	fsr2h,c
  1344  0013F2  0EDE               	movlw	222
  1345  0013F4  6EDE               	movwf	postinc2,c
  1346  0013F6  0E00               	movlw	0
  1347  0013F8  6EDD               	movwf	postdec2,c
  1348  0013FA                     l1986:
  1349  0013FA  B2C2               	btfsc	194,1,c	;volatile
  1350  0013FC  0012               	return	
  1351                           
  1352                           ;ornek1.c: 225:         uint16_t sonuc;;ornek1.c: 226:         sonuc = (uint16_t)(ADRESH
      +                           << 8 | ADRESL);
  1353  0013FE  50C3               	movf	195,w,c	;volatile
  1354  001400  CFC4 F017          	movff	4036,??_karaSimsekHiziOkuma	;volatile
  1355  001404  6A18               	clrf	(??_karaSimsekHiziOkuma+1)^0,c
  1356  001406  C017  F018         	movff	??_karaSimsekHiziOkuma,??_karaSimsekHiziOkuma+1
  1357  00140A  6A17               	clrf	??_karaSimsekHiziOkuma^0,c
  1358  00140C  1017               	iorwf	??_karaSimsekHiziOkuma^0,w,c
  1359  00140E  6E1A               	movwf	karaSimsekHiziOkuma@sonuc^0,c
  1360  001410  5018               	movf	(??_karaSimsekHiziOkuma+1)^0,w,c
  1361  001412  6E1B               	movwf	(karaSimsekHiziOkuma@sonuc+1)^0,c
  1362                           
  1363                           ;ornek1.c: 229:         if(sonuc <= 50){
  1364  001414  501B               	movf	(karaSimsekHiziOkuma@sonuc+1)^0,w,c
  1365  001416  E109               	bnz	l1994
  1366  001418  0E33               	movlw	51
  1367  00141A  5C1A               	subwf	karaSimsekHiziOkuma@sonuc^0,w,c
  1368  00141C  B0D8               	btfsc	status,0,c
  1369  00141E  D005               	goto	l1994
  1370                           
  1371                           ;ornek1.c: 231:             karaSimsekHizi = 10;
  1372  001420  0E00               	movlw	0
  1373  001422  6E35               	movwf	(_karaSimsekHizi+1)^0,c
  1374  001424  0E0A               	movlw	10
  1375  001426  6E34               	movwf	_karaSimsekHizi^0,c
  1376                           
  1377                           ;ornek1.c: 232:         } else{
  1378  001428  D00E               	goto	l1996
  1379  00142A                     l1994:
  1380                           
  1381                           ;ornek1.c: 233:             karaSimsekHizi = sonuc / 5;
  1382  00142A  C01A  F00F         	movff	karaSimsekHiziOkuma@sonuc,___lwdiv@dividend
  1383  00142E  C01B  F010         	movff	karaSimsekHiziOkuma@sonuc+1,___lwdiv@dividend+1
  1384  001432  0E00               	movlw	0
  1385  001434  6E12               	movwf	(___lwdiv@divisor+1)^0,c
  1386  001436  0E05               	movlw	5
  1387  001438  6E11               	movwf	___lwdiv@divisor^0,c
  1388  00143A  ECEC  F00A         	call	___lwdiv	;wreg free
  1389  00143E  C00F  F034         	movff	?___lwdiv,_karaSimsekHizi
  1390  001442  C010  F035         	movff	?___lwdiv+1,_karaSimsekHizi+1
  1391  001446                     l1996:
  1392                           
  1393                           ;ornek1.c: 238:         ( (sure_t*) &s4 )->kacTik = (350 / (1000u / 1000u)); ( (sure_t*)
      +                           &s4 )->baslangic = grvTikSayiminiAl(); ( (gorev_t*) tutucu )->sn = 238; case 238:; if(!
      +                          (( (grvTikSayiminiAl() - ( (sure_t*) &s4 )->baslangic) >= ( (sure_t*) &s4 )->kacTik ))){
      +                           return 0; };
  1394  001446  0E01               	movlw	1
  1395  001448  6E27               	movwf	(karaSimsekHiziOkuma@s4+3)^0,c
  1396  00144A  0E5E               	movlw	94
  1397  00144C  6E26               	movwf	(karaSimsekHiziOkuma@s4+2)^0,c
  1398  00144E  EC52  F00B         	call	_grvTikSayiminiAl	;wreg free
  1399  001452  C00F  F024         	movff	?_grvTikSayiminiAl,karaSimsekHiziOkuma@s4
  1400  001456  C010  F025         	movff	?_grvTikSayiminiAl+1,karaSimsekHiziOkuma@s4+1
  1401  00145A  5016               	movf	karaSimsekHiziOkuma@tutucu^0,w,c
  1402  00145C  6ED9               	movwf	fsr2l,c
  1403  00145E  6ADA               	clrf	fsr2h,c
  1404  001460  0EEE               	movlw	238
  1405  001462  6EDE               	movwf	postinc2,c
  1406  001464  0E00               	movlw	0
  1407  001466  6EDD               	movwf	postdec2,c
  1408  001468                     l2002:
  1409  001468  EC52  F00B         	call	_grvTikSayiminiAl	;wreg free
  1410  00146C  5024               	movf	karaSimsekHiziOkuma@s4^0,w,c
  1411  00146E  5E0F               	subwf	?_grvTikSayiminiAl^0,f,c
  1412  001470  5025               	movf	(karaSimsekHiziOkuma@s4+1)^0,w,c
  1413  001472  5A10               	subwfb	(?_grvTikSayiminiAl+1)^0,f,c
  1414  001474  5026               	movf	(karaSimsekHiziOkuma@s4+2)^0,w,c
  1415  001476  5C0F               	subwf	?_grvTikSayiminiAl^0,w,c
  1416  001478  5027               	movf	(karaSimsekHiziOkuma@s4+3)^0,w,c
  1417  00147A  5810               	subwfb	(?_grvTikSayiminiAl+1)^0,w,c
  1418  00147C  A0D8               	btfss	status,0,c
  1419  00147E  0012               	return	
  1420  001480  D7B4               	goto	l1982
  1421  001482                     l2012:
  1422  001482  5016               	movf	karaSimsekHiziOkuma@tutucu^0,w,c
  1423  001484  6ED9               	movwf	fsr2l,c
  1424  001486  6ADA               	clrf	fsr2h,c
  1425  001488  0E00               	movlw	0
  1426  00148A  6EDE               	movwf	postinc2,c
  1427  00148C  0E00               	movlw	0
  1428  00148E  6EDD               	movwf	postdec2,c
  1429  001490  0012               	return	
  1430  001492                     l2018:
  1431  001492  5016               	movf	karaSimsekHiziOkuma@tutucu^0,w,c
  1432  001494  6ED9               	movwf	fsr2l,c
  1433  001496  6ADA               	clrf	fsr2h,c
  1434  001498  CFDE F017          	movff	postinc2,??_karaSimsekHiziOkuma
  1435  00149C  CFDD F018          	movff	postdec2,??_karaSimsekHiziOkuma+1
  1436                           
  1437                           ; Switch on 2 bytes has been partitioned into a top level switch of size 1, and 1 sub-sw
      +                          itches
  1438                           ; Switch size 1, requested type "simple"
  1439                           ; Number of cases is 1, Range of values is 0 to 0
  1440                           ; switch strategies available:
  1441                           ; Name         Instructions Cycles
  1442                           ; simple_byte            4     3 (average)
  1443                           ;	Chosen strategy is simple_byte
  1444  0014A0  5018               	movf	(??_karaSimsekHiziOkuma+1)^0,w,c
  1445  0014A2  0A00               	xorlw	0	; case 0
  1446  0014A4  A4D8               	btfss	status,2,c
  1447  0014A6  D7ED               	goto	l2012
  1448                           
  1449                           ; Switch size 1, requested type "simple"
  1450                           ; Number of cases is 4, Range of values is 0 to 241
  1451                           ; switch strategies available:
  1452                           ; Name         Instructions Cycles
  1453                           ; simple_byte           13     7 (average)
  1454                           ;	Chosen strategy is simple_byte
  1455  0014A8  5017               	movf	??_karaSimsekHiziOkuma^0,w,c
  1456  0014AA  0A00               	xorlw	0	; case 0
  1457  0014AC  B4D8               	btfsc	status,2,c
  1458  0014AE  D795               	goto	l224
  1459  0014B0  0ADE               	xorlw	222	; case 222
  1460  0014B2  B4D8               	btfsc	status,2,c
  1461  0014B4  D7A2               	goto	l1986
  1462  0014B6  0A30               	xorlw	48	; case 238
  1463  0014B8  B4D8               	btfsc	status,2,c
  1464  0014BA  D7D6               	goto	l2002
  1465  0014BC  0A1F               	xorlw	31	; case 241
  1466  0014BE  B4D8               	btfsc	status,2,c
  1467  0014C0  0012               	return		;funcret
  1468  0014C2  D7DF               	goto	l2012
  1469  0014C4                     __end_of_karaSimsekHiziOkuma:
  1470                           	callstack 0
  1471                           
  1472 ;; *************** function ___lwdiv *****************
  1473 ;; Defined at:
  1474 ;;		line 7 in file "/opt/microchip/xc8/v2.31/pic/sources/c99/common/lwdiv.c"
  1475 ;; Parameters:    Size  Location     Type
  1476 ;;  dividend        2   14[COMRAM] unsigned int 
  1477 ;;  divisor         2   16[COMRAM] unsigned int 
  1478 ;; Auto vars:     Size  Location     Type
  1479 ;;  quotient        2   18[COMRAM] unsigned int 
  1480 ;;  counter         1   20[COMRAM] unsigned char 
  1481 ;; Return value:  Size  Location     Type
  1482 ;;                  2   14[COMRAM] unsigned int 
  1483 ;; Registers used:
  1484 ;;		wreg, status,2, status,0
  1485 ;; Tracked objects:
  1486 ;;		On entry : 0/0
  1487 ;;		On exit  : 0/0
  1488 ;;		Unchanged: 0/0
  1489 ;; Data sizes:     COMRAM   BANK0   BANK1   BANK2   BANK3   BANK4   BANK5   BANK6   BANK7   BANK8   BANK9  BANK10  BANK1
      +1  BANK12  BANK13  BANK14  BANK15
  1490 ;;      Params:         4       0       0       0       0       0       0       0       0       0       0       0       
      +0       0       0       0       0
  1491 ;;      Locals:         3       0       0       0       0       0       0       0       0       0       0       0       
      +0       0       0       0       0
  1492 ;;      Temps:          0       0       0       0       0       0       0       0       0       0       0       0       
      +0       0       0       0       0
  1493 ;;      Totals:         7       0       0       0       0       0       0       0       0       0       0       0       
      +0       0       0       0       0
  1494 ;;Total ram usage:        7 bytes
  1495 ;; Hardware stack levels used:    1
  1496 ;; Hardware stack levels required when called:    3
  1497 ;; This function calls:
  1498 ;;		Nothing
  1499 ;; This function is called by:
  1500 ;;		_karaSimsekHiziOkuma
  1501 ;; This function uses a non-reentrant model
  1502 ;;
  1503                           
  1504                           	psect	text7
  1505  0015D8                     __ptext7:
  1506                           	callstack 0
  1507  0015D8                     ___lwdiv:
  1508                           	callstack 26
  1509                           
  1510                           ;incstack = 0
  1511  0015D8  0E00               	movlw	0
  1512  0015DA  6E14               	movwf	(___lwdiv@quotient+1)^0,c
  1513  0015DC  0E00               	movlw	0
  1514  0015DE  6E13               	movwf	___lwdiv@quotient^0,c
  1515  0015E0  5011               	movf	___lwdiv@divisor^0,w,c
  1516  0015E2  1012               	iorwf	(___lwdiv@divisor+1)^0,w,c
  1517  0015E4  B4D8               	btfsc	status,2,c
  1518  0015E6  D01C               	goto	l740
  1519  0015E8  0E01               	movlw	1
  1520  0015EA  6E15               	movwf	___lwdiv@counter^0,c
  1521  0015EC  D004               	goto	l1372
  1522  0015EE                     l1370:
  1523  0015EE  90D8               	bcf	status,0,c
  1524  0015F0  3611               	rlcf	___lwdiv@divisor^0,f,c
  1525  0015F2  3612               	rlcf	(___lwdiv@divisor+1)^0,f,c
  1526  0015F4  2A15               	incf	___lwdiv@counter^0,f,c
  1527  0015F6                     l1372:
  1528  0015F6  AE12               	btfss	(___lwdiv@divisor+1)^0,7,c
  1529  0015F8  D7FA               	goto	l1370
  1530  0015FA                     u520:
  1531  0015FA  90D8               	bcf	status,0,c
  1532  0015FC  3613               	rlcf	___lwdiv@quotient^0,f,c
  1533  0015FE  3614               	rlcf	(___lwdiv@quotient+1)^0,f,c
  1534  001600  5011               	movf	___lwdiv@divisor^0,w,c
  1535  001602  5C0F               	subwf	___lwdiv@dividend^0,w,c
  1536  001604  5012               	movf	(___lwdiv@divisor+1)^0,w,c
  1537  001606  5810               	subwfb	(___lwdiv@dividend+1)^0,w,c
  1538  001608  A0D8               	btfss	status,0,c
  1539  00160A  D005               	goto	l1382
  1540  00160C  5011               	movf	___lwdiv@divisor^0,w,c
  1541  00160E  5E0F               	subwf	___lwdiv@dividend^0,f,c
  1542  001610  5012               	movf	(___lwdiv@divisor+1)^0,w,c
  1543  001612  5A10               	subwfb	(___lwdiv@dividend+1)^0,f,c
  1544  001614  8013               	bsf	___lwdiv@quotient^0,0,c
  1545  001616                     l1382:
  1546  001616  90D8               	bcf	status,0,c
  1547  001618  3212               	rrcf	(___lwdiv@divisor+1)^0,f,c
  1548  00161A  3211               	rrcf	___lwdiv@divisor^0,f,c
  1549  00161C  2E15               	decfsz	___lwdiv@counter^0,f,c
  1550  00161E  D7ED               	goto	u520
  1551  001620                     l740:
  1552  001620  C013  F00F         	movff	___lwdiv@quotient,?___lwdiv
  1553  001624  C014  F010         	movff	___lwdiv@quotient+1,?___lwdiv+1
  1554  001628  0012               	return		;funcret
  1555  00162A                     __end_of___lwdiv:
  1556                           	callstack 0
  1557                           
  1558 ;; *************** function _karaSimsek *****************
  1559 ;; Defined at:
  1560 ;;		line 159 in file "ornek1.c"
  1561 ;; Parameters:    Size  Location     Type
  1562 ;;  tutucu          1   18[COMRAM] PTR void 
  1563 ;;		 -> main@ksmsk(2), 
  1564 ;; Auto vars:     Size  Location     Type
  1565 ;;  VAZGECIS_BAY    1    0        unsigned char 
  1566 ;; Return value:  Size  Location     Type
  1567 ;;                  1    wreg      unsigned char 
  1568 ;; Registers used:
  1569 ;;		wreg, fsr2l, fsr2h, status,2, status,0, cstack
  1570 ;; Tracked objects:
  1571 ;;		On entry : 0/0
  1572 ;;		On exit  : 0/0
  1573 ;;		Unchanged: 0/0
  1574 ;; Data sizes:     COMRAM   BANK0   BANK1   BANK2   BANK3   BANK4   BANK5   BANK6   BANK7   BANK8   BANK9  BANK10  BANK1
      +1  BANK12  BANK13  BANK14  BANK15
  1575 ;;      Params:         1       0       0       0       0       0       0       0       0       0       0       0       
      +0       0       0       0       0
  1576 ;;      Locals:         1       0       0       0       0       0       0       0       0       0       0       0       
      +0       0       0       0       0
  1577 ;;      Temps:          2       0       0       0       0       0       0       0       0       0       0       0       
      +0       0       0       0       0
  1578 ;;      Totals:         4       0       0       0       0       0       0       0       0       0       0       0       
      +0       0       0       0       0
  1579 ;;Total ram usage:        4 bytes
  1580 ;; Hardware stack levels used:    1
  1581 ;; Hardware stack levels required when called:    4
  1582 ;; This function calls:
  1583 ;;		_grvTikSayiminiAl
  1584 ;; This function is called by:
  1585 ;;		_main
  1586 ;; This function uses a non-reentrant model
  1587 ;;
  1588                           
  1589                           	psect	text8
  1590  0014C4                     __ptext8:
  1591                           	callstack 0
  1592  0014C4                     _karaSimsek:
  1593                           	callstack 26
  1594                           
  1595                           ;incstack = 0
  1596  0014C4  D047               	goto	l1968
  1597  0014C6                     l1936:
  1598                           
  1599                           ;ornek1.c: 163:     static sure_t s3;;ornek1.c: 164:     static _Bool sola;;ornek1.c: 16
      +                          7:     LATD = 0;
  1600  0014C6  0E00               	movlw	0
  1601  0014C8  6E8C               	movwf	140,c	;volatile
  1602                           
  1603                           ;ornek1.c: 168:     ANSELD = 0;
  1604  0014CA  0E00               	movlw	0
  1605  0014CC  010F               	movlb	15	; () banked
  1606  0014CE  6F3B               	movwf	59,b	;volatile
  1607                           
  1608                           ;ornek1.c: 169:     TRISD = 0;
  1609  0014D0  0E00               	movlw	0
  1610  0014D2  6E95               	movwf	149,c	;volatile
  1611                           
  1612                           ;ornek1.c: 170:     LATD = 0x1;
  1613  0014D4  0E01               	movlw	1
  1614  0014D6  6E8C               	movwf	140,c	;volatile
  1615                           
  1616                           ;ornek1.c: 171:     sola = 1;
  1617  0014D8  0E01               	movlw	1
  1618  0014DA  6E3E               	movwf	karaSimsek@sola^0,c
  1619                           
  1620                           ;ornek1.c: 172:     karaSimsekHizi = 50;
  1621  0014DC  0E00               	movlw	0
  1622  0014DE  6E35               	movwf	(_karaSimsekHizi+1)^0,c
  1623  0014E0  0E32               	movlw	50
  1624  0014E2  6E34               	movwf	_karaSimsekHizi^0,c
  1625  0014E4                     l209:
  1626                           
  1627                           ;ornek1.c: 176:         if(sola){
  1628  0014E4  503E               	movf	karaSimsek@sola^0,w,c
  1629  0014E6  B4D8               	btfsc	status,2,c
  1630  0014E8  D008               	goto	l1942
  1631                           
  1632                           ;ornek1.c: 177:             PORTD <<= 1;
  1633  0014EA  90D8               	bcf	status,0,c
  1634  0014EC  3683               	rlcf	131,f,c
  1635                           
  1636                           ;volatile
  1637                           ;ornek1.c: 179:             if(PORTD == 0x80)
  1638  0014EE  0E80               	movlw	128
  1639  0014F0  1883               	xorwf	131,w,c	;volatile
  1640  0014F2  A4D8               	btfss	status,2,c
  1641  0014F4  D009               	goto	l1946
  1642                           
  1643                           ;ornek1.c: 180:                 sola = 0;
  1644  0014F6  0E00               	movlw	0
  1645  0014F8  D006               	goto	L2
  1646  0014FA                     l1942:
  1647                           
  1648                           ;ornek1.c: 183:             PORTD >>= 1;
  1649  0014FA  90D8               	bcf	status,0,c
  1650  0014FC  3283               	rrcf	131,f,c
  1651                           
  1652                           ;volatile
  1653                           ;ornek1.c: 185:             if(PORTD == 1)
  1654  0014FE  0483               	decf	131,w,c	;volatile
  1655  001500  A4D8               	btfss	status,2,c
  1656  001502  D002               	goto	l1946
  1657                           
  1658                           ;ornek1.c: 186:                 sola = 1;
  1659  001504  0E01               	movlw	1
  1660  001506                     L2:
  1661  001506  6E3E               	movwf	karaSimsek@sola^0,c
  1662  001508                     l1946:
  1663                           
  1664                           ;ornek1.c: 192:   ( (sure_t*) &s3 )->kacTik = (karaSimsekHizi / (1000u / 1000u)); ( (sur
      +                          e_t*) &s3 )->baslangic = grvTikSayiminiAl(); ( (gorev_t*) tutucu )->sn = 192; case 192:;
      +                           if(!(( (grvTikSayiminiAl() - ( (sure_t*) &s3 )->baslangic) >= ( (sure_t*) &s3 )->kacTik
      +                           ))){ return 0; };
  1665  001508  C034  F02A         	movff	_karaSimsekHizi,karaSimsek@s3+2
  1666  00150C  C035  F02B         	movff	_karaSimsekHizi+1,karaSimsek@s3+3
  1667  001510  EC52  F00B         	call	_grvTikSayiminiAl	;wreg free
  1668  001514  C00F  F028         	movff	?_grvTikSayiminiAl,karaSimsek@s3
  1669  001518  C010  F029         	movff	?_grvTikSayiminiAl+1,karaSimsek@s3+1
  1670  00151C  5013               	movf	karaSimsek@tutucu^0,w,c
  1671  00151E  6ED9               	movwf	fsr2l,c
  1672  001520  6ADA               	clrf	fsr2h,c
  1673  001522  0EC0               	movlw	192
  1674  001524  6EDE               	movwf	postinc2,c
  1675  001526  0E00               	movlw	0
  1676  001528  6EDD               	movwf	postdec2,c
  1677  00152A                     l1952:
  1678  00152A  EC52  F00B         	call	_grvTikSayiminiAl	;wreg free
  1679  00152E  5028               	movf	karaSimsek@s3^0,w,c
  1680  001530  5E0F               	subwf	?_grvTikSayiminiAl^0,f,c
  1681  001532  5029               	movf	(karaSimsek@s3+1)^0,w,c
  1682  001534  5A10               	subwfb	(?_grvTikSayiminiAl+1)^0,f,c
  1683  001536  502A               	movf	(karaSimsek@s3+2)^0,w,c
  1684  001538  5C0F               	subwf	?_grvTikSayiminiAl^0,w,c
  1685  00153A  502B               	movf	(karaSimsek@s3+3)^0,w,c
  1686  00153C  5810               	subwfb	(?_grvTikSayiminiAl+1)^0,w,c
  1687  00153E  A0D8               	btfss	status,0,c
  1688  001540  0012               	return	
  1689  001542  D7D0               	goto	l209
  1690  001544                     l1962:
  1691  001544  5013               	movf	karaSimsek@tutucu^0,w,c
  1692  001546  6ED9               	movwf	fsr2l,c
  1693  001548  6ADA               	clrf	fsr2h,c
  1694  00154A  0E00               	movlw	0
  1695  00154C  6EDE               	movwf	postinc2,c
  1696  00154E  0E00               	movlw	0
  1697  001550  6EDD               	movwf	postdec2,c
  1698  001552  0012               	return	
  1699  001554                     l1968:
  1700  001554  5013               	movf	karaSimsek@tutucu^0,w,c
  1701  001556  6ED9               	movwf	fsr2l,c
  1702  001558  6ADA               	clrf	fsr2h,c
  1703  00155A  CFDE F014          	movff	postinc2,??_karaSimsek
  1704  00155E  CFDD F015          	movff	postdec2,??_karaSimsek+1
  1705                           
  1706                           ; Switch on 2 bytes has been partitioned into a top level switch of size 1, and 1 sub-sw
      +                          itches
  1707                           ; Switch size 1, requested type "simple"
  1708                           ; Number of cases is 1, Range of values is 0 to 0
  1709                           ; switch strategies available:
  1710                           ; Name         Instructions Cycles
  1711                           ; simple_byte            4     3 (average)
  1712                           ;	Chosen strategy is simple_byte
  1713  001562  5015               	movf	(??_karaSimsek+1)^0,w,c
  1714  001564  0A00               	xorlw	0	; case 0
  1715  001566  A4D8               	btfss	status,2,c
  1716  001568  D7ED               	goto	l1962
  1717                           
  1718                           ; Switch size 1, requested type "simple"
  1719                           ; Number of cases is 3, Range of values is 0 to 195
  1720                           ; switch strategies available:
  1721                           ; Name         Instructions Cycles
  1722                           ; simple_byte           10     6 (average)
  1723                           ;	Chosen strategy is simple_byte
  1724  00156A  5014               	movf	??_karaSimsek^0,w,c
  1725  00156C  0A00               	xorlw	0	; case 0
  1726  00156E  B4D8               	btfsc	status,2,c
  1727  001570  D7AA               	goto	l1936
  1728  001572  0AC0               	xorlw	192	; case 192
  1729  001574  B4D8               	btfsc	status,2,c
  1730  001576  D7D9               	goto	l1952
  1731  001578  0A03               	xorlw	3	; case 195
  1732  00157A  B4D8               	btfsc	status,2,c
  1733  00157C  0012               	return		;funcret
  1734  00157E  D7E2               	goto	l1962
  1735  001580                     __end_of_karaSimsek:
  1736                           	callstack 0
  1737                           
  1738 ;; *************** function _grvTikSayiminiAl *****************
  1739 ;; Defined at:
  1740 ;;		line 109 in file "../../../../../kaynak/gorev.c"
  1741 ;; Parameters:    Size  Location     Type
  1742 ;;		None
  1743 ;; Auto vars:     Size  Location     Type
  1744 ;;  sayim           2   16[COMRAM] unsigned int 
  1745 ;; Return value:  Size  Location     Type
  1746 ;;                  2   14[COMRAM] unsigned int 
  1747 ;; Registers used:
  1748 ;;		None
  1749 ;; Tracked objects:
  1750 ;;		On entry : 0/F
  1751 ;;		On exit  : 0/0
  1752 ;;		Unchanged: 0/0
  1753 ;; Data sizes:     COMRAM   BANK0   BANK1   BANK2   BANK3   BANK4   BANK5   BANK6   BANK7   BANK8   BANK9  BANK10  BANK1
      +1  BANK12  BANK13  BANK14  BANK15
  1754 ;;      Params:         2       0       0       0       0       0       0       0       0       0       0       0       
      +0       0       0       0       0
  1755 ;;      Locals:         2       0       0       0       0       0       0       0       0       0       0       0       
      +0       0       0       0       0
  1756 ;;      Temps:          0       0       0       0       0       0       0       0       0       0       0       0       
      +0       0       0       0       0
  1757 ;;      Totals:         4       0       0       0       0       0       0       0       0       0       0       0       
      +0       0       0       0       0
  1758 ;;Total ram usage:        4 bytes
  1759 ;; Hardware stack levels used:    1
  1760 ;; Hardware stack levels required when called:    3
  1761 ;; This function calls:
  1762 ;;		Nothing
  1763 ;; This function is called by:
  1764 ;;		_ledCakarlama1
  1765 ;;		_ledCakarlama2
  1766 ;;		_karaSimsek
  1767 ;;		_karaSimsekHiziOkuma
  1768 ;; This function uses a non-reentrant model
  1769 ;;
  1770                           
  1771                           	psect	text9
  1772  0016A4                     __ptext9:
  1773                           	callstack 0
  1774  0016A4                     _grvTikSayiminiAl:
  1775                           	callstack 26
  1776                           
  1777                           ;../../../../../kaynak/gorev.c: 110:  unsigned int sayim;;../../../../../kaynak/gorev.c:
      +                           112:  intconYedek = INTCON; INTCONbits.GIEH = 0;;
  1778                           
  1779                           ;incstack = 0
  1780  0016A4  CFF2 F042          	movff	4082,_intconYedek@portmacro$F371	;volatile
  1781  0016A8  9EF2               	bcf	242,7,c	;volatile
  1782                           
  1783                           ;../../../../../kaynak/gorev.c: 113:  sayim = tikSayimi;
  1784  0016AA  C036  F011         	movff	_tikSayimi,grvTikSayiminiAl@sayim
  1785  0016AE  C037  F012         	movff	_tikSayimi+1,grvTikSayiminiAl@sayim+1
  1786                           
  1787                           ;../../../../../kaynak/gorev.c: 115:  if(intconYedek & 0x80){ INTCONbits.GIEH = 1;; };
  1788  0016B2  BE42               	btfsc	_intconYedek@portmacro$F371^0,7,c
  1789  0016B4  8EF2               	bsf	242,7,c	;volatile
  1790                           
  1791                           ;../../../../../kaynak/gorev.c: 116:  return sayim;
  1792  0016B6  C011  F00F         	movff	grvTikSayiminiAl@sayim,?_grvTikSayiminiAl
  1793  0016BA  C012  F010         	movff	grvTikSayiminiAl@sayim+1,?_grvTikSayiminiAl+1
  1794  0016BE  0012               	return		;funcret
  1795  0016C0                     __end_of_grvTikSayiminiAl:
  1796                           	callstack 0
  1797                           
  1798 ;; *************** function _interruptIlkle *****************
  1799 ;; Defined at:
  1800 ;;		line 31 in file "interrupt.c"
  1801 ;; Parameters:    Size  Location     Type
  1802 ;;		None
  1803 ;; Auto vars:     Size  Location     Type
  1804 ;;		None
  1805 ;; Return value:  Size  Location     Type
  1806 ;;                  1    wreg      void 
  1807 ;; Registers used:
  1808 ;;		None
  1809 ;; Tracked objects:
  1810 ;;		On entry : 0/0
  1811 ;;		On exit  : 0/0
  1812 ;;		Unchanged: 0/0
  1813 ;; Data sizes:     COMRAM   BANK0   BANK1   BANK2   BANK3   BANK4   BANK5   BANK6   BANK7   BANK8   BANK9  BANK10  BANK1
      +1  BANK12  BANK13  BANK14  BANK15
  1814 ;;      Params:         0       0       0       0       0       0       0       0       0       0       0       0       
      +0       0       0       0       0
  1815 ;;      Locals:         0       0       0       0       0       0       0       0       0       0       0       0       
      +0       0       0       0       0
  1816 ;;      Temps:          0       0       0       0       0       0       0       0       0       0       0       0       
      +0       0       0       0       0
  1817 ;;      Totals:         0       0       0       0       0       0       0       0       0       0       0       0       
      +0       0       0       0       0
  1818 ;;Total ram usage:        0 bytes
  1819 ;; Hardware stack levels used:    1
  1820 ;; Hardware stack levels required when called:    3
  1821 ;; This function calls:
  1822 ;;		Nothing
  1823 ;; This function is called by:
  1824 ;;		_main
  1825 ;; This function uses a non-reentrant model
  1826 ;;
  1827                           
  1828                           	psect	text10
  1829  0016DE                     __ptext10:
  1830                           	callstack 0
  1831  0016DE                     _interruptIlkle:
  1832                           	callstack 27
  1833                           
  1834                           ;interrupt.c: 34:     RCONbits.IPEN = 0;
  1835                           
  1836                           ;incstack = 0
  1837  0016DE  9ED0               	bcf	208,7,c	;volatile
  1838  0016E0  0012               	return		;funcret
  1839  0016E2                     __end_of_interruptIlkle:
  1840                           	callstack 0
  1841                           
  1842 ;; *************** function _interruptYonetici *****************
  1843 ;; Defined at:
  1844 ;;		line 50 in file "interrupt.c"
  1845 ;; Parameters:    Size  Location     Type
  1846 ;;		None
  1847 ;; Auto vars:     Size  Location     Type
  1848 ;;		None
  1849 ;; Return value:  Size  Location     Type
  1850 ;;                  1    wreg      void 
  1851 ;; Registers used:
  1852 ;;		wreg, fsr0l, fsr0h, fsr1l, fsr1h, fsr1l, fsr1h, fsr2l, fsr2h, status,2, status,0, pclath, btemp, btemp+1, btemp+2, b
      +temp+3, btemp+4, btemp+5, btemp+6, btemp+7, btemp+8, btemp+9, btemp+10, btemp+11, btemp+12, btemp+13, btemp+14, btemp+15
      +, btemp+16, btemp+17, btemp+18, btemp+19, btemp+20, btemp+21, btemp+22, btemp+23, btemp+24, btemp+25, btemp+26, btemp+27
      +, btemp+28, btemp+29, btemp+30, btemp+31, tosl, structret, tblptrl, tblptrh, tblptru, prodl, prodh, bsr, cstack
  1853 ;; Tracked objects:
  1854 ;;		On entry : 0/0
  1855 ;;		On exit  : 0/0
  1856 ;;		Unchanged: 0/0
  1857 ;; Data sizes:     COMRAM   BANK0   BANK1   BANK2   BANK3   BANK4   BANK5   BANK6   BANK7   BANK8   BANK9  BANK10  BANK1
      +1  BANK12  BANK13  BANK14  BANK15
  1858 ;;      Params:         0       0       0       0       0       0       0       0       0       0       0       0       
      +0       0       0       0       0
  1859 ;;      Locals:         0       0       0       0       0       0       0       0       0       0       0       0       
      +0       0       0       0       0
  1860 ;;      Temps:         14       0       0       0       0       0       0       0       0       0       0       0       
      +0       0       0       0       0
  1861 ;;      Totals:        14       0       0       0       0       0       0       0       0       0       0       0       
      +0       0       0       0       0
  1862 ;;Total ram usage:       14 bytes
  1863 ;; Hardware stack levels used:    1
  1864 ;; Hardware stack levels required when called:    2
  1865 ;; This function calls:
  1866 ;;		Absolute function
  1867 ;;		_sisTimerKesmeIsleyici
  1868 ;; This function is called by:
  1869 ;;		Interrupt level 2
  1870 ;; This function uses a non-reentrant model
  1871 ;;
  1872                           
  1873                           	psect	intcode
  1874  000008                     __pintcode:
  1875                           	callstack 0
  1876  000008                     _interruptYonetici:
  1877                           	callstack 26
  1878                           
  1879                           ;incstack = 0
  1880  000008  8245               	bsf	btemp,1,c	;set compiler interrupt flag (level 2)
  1881  00000A  CFFA F001          	movff	pclath,??_interruptYonetici
  1882  00000E  CFFB F002          	movff	pclatu,??_interruptYonetici+1
  1883  000012  CFE9 F003          	movff	fsr0l,??_interruptYonetici+2
  1884  000016  CFEA F004          	movff	fsr0h,??_interruptYonetici+3
  1885  00001A  CFE1 F005          	movff	fsr1l,??_interruptYonetici+4
  1886  00001E  CFE2 F006          	movff	fsr1h,??_interruptYonetici+5
  1887  000022  CFD9 F007          	movff	fsr2l,??_interruptYonetici+6
  1888  000026  CFDA F008          	movff	fsr2h,??_interruptYonetici+7
  1889  00002A  CFF3 F009          	movff	prodl,??_interruptYonetici+8
  1890  00002E  CFF4 F00A          	movff	prodh,??_interruptYonetici+9
  1891  000032  CFF6 F00B          	movff	tblptrl,??_interruptYonetici+10
  1892  000036  CFF7 F00C          	movff	tblptrh,??_interruptYonetici+11
  1893  00003A  CFF8 F00D          	movff	tblptru,??_interruptYonetici+12
  1894  00003E  CFF5 F00E          	movff	tablat,??_interruptYonetici+13
  1895                           
  1896                           ;interrupt.c: 52:     if(INTCONbits.TMR0IF == 1 && INTCONbits.TMR0IF == 1){
  1897  000042  B4F2               	btfsc	242,2,c	;volatile
  1898  000044  A4F2               	btfss	242,2,c	;volatile
  1899  000046  D00C               	goto	i2l39
  1900                           
  1901                           ;interrupt.c: 53:         TMR0IF = 0;
  1902  000048  94F2               	bcf	4082,2,c	;volatile
  1903                           
  1904                           ;interrupt.c: 54:         (*timer0KesmeIsleyici)();
  1905  00004A  D801               	call	i2u44_48
  1906  00004C  D014               	goto	i2l46
  1907  00004E                     i2u44_48:
  1908  00004E  0005               	push	
  1909  000050  6EFA               	movwf	pclath,c
  1910  000052  503C               	movf	_timer0KesmeIsleyici^0,w,c
  1911  000054  6EFD               	movwf	tosl,c
  1912  000056  503D               	movf	(_timer0KesmeIsleyici+1)^0,w,c
  1913  000058  6EFE               	movwf	tosh,c
  1914  00005A  6AFF               	clrf	tosu,c
  1915  00005C  50FA               	movf	pclath,w,c
  1916  00005E  0012               	return		;indir
  1917  000060                     i2l39:
  1918  000060  ACF2               	btfss	242,6,c	;volatile
  1919  000062  D009               	goto	i2l46
  1920                           
  1921                           ;interrupt.c: 57:         if(PIE1bits.RCIE == 1 && PIR1bits.RCIF == 1){
  1922  000064  BA9D               	btfsc	157,5,c	;volatile
  1923  000066  AA9E               	btfss	158,5,c	;volatile
  1924  000068  D002               	goto	i2l42
  1925                           
  1926                           ;interrupt.c: 58:             RCIF = 0;
  1927  00006A  9A9E               	bcf	3998,5,c	;volatile
  1928                           
  1929                           ;interrupt.c: 59:         }
  1930  00006C  D004               	goto	i2l46
  1931  00006E                     i2l42:
  1932  00006E  B89D               	btfsc	3997,4,c	;volatile
  1933  000070  A89E               	btfss	3998,4,c	;volatile
  1934  000072  D001               	goto	i2l46
  1935                           
  1936                           ;interrupt.c: 61:             TXIF = 0;
  1937  000074  989E               	bcf	3998,4,c	;volatile
  1938  000076                     i2l46:
  1939  000076  C00E  FFF5         	movff	??_interruptYonetici+13,tablat
  1940  00007A  C00D  FFF8         	movff	??_interruptYonetici+12,tblptru
  1941  00007E  C00C  FFF7         	movff	??_interruptYonetici+11,tblptrh
  1942  000082  C00B  FFF6         	movff	??_interruptYonetici+10,tblptrl
  1943  000086  C00A  FFF4         	movff	??_interruptYonetici+9,prodh
  1944  00008A  C009  FFF3         	movff	??_interruptYonetici+8,prodl
  1945  00008E  C008  FFDA         	movff	??_interruptYonetici+7,fsr2h
  1946  000092  C007  FFD9         	movff	??_interruptYonetici+6,fsr2l
  1947  000096  C006  FFE2         	movff	??_interruptYonetici+5,fsr1h
  1948  00009A  C005  FFE1         	movff	??_interruptYonetici+4,fsr1l
  1949  00009E  C004  FFEA         	movff	??_interruptYonetici+3,fsr0h
  1950  0000A2  C003  FFE9         	movff	??_interruptYonetici+2,fsr0l
  1951  0000A6  C002  FFFB         	movff	??_interruptYonetici+1,pclatu
  1952  0000AA  C001  FFFA         	movff	??_interruptYonetici,pclath
  1953  0000AE  9245               	bcf	btemp,1,c	;clear compiler interrupt flag (level 2)
  1954  0000B0  0011               	retfie		f
  1955  0000B2                     __end_of_interruptYonetici:
  1956                           	callstack 0
  1957                           
  1958 ;; *************** function _sisTimerKesmeIsleyici *****************
  1959 ;; Defined at:
  1960 ;;		line 125 in file "sistimer.c"
  1961 ;; Parameters:    Size  Location     Type
  1962 ;;		None
  1963 ;; Auto vars:     Size  Location     Type
  1964 ;;		None
  1965 ;; Return value:  Size  Location     Type
  1966 ;;                  1    wreg      void 
  1967 ;; Registers used:
  1968 ;;		wreg, fsr0l, fsr0h, fsr1l, fsr1h, fsr1l, fsr1h, fsr2l, fsr2h, status,2, status,0, pclath, btemp, btemp+1, btemp+2, b
      +temp+3, btemp+4, btemp+5, btemp+6, btemp+7, btemp+8, btemp+9, btemp+10, btemp+11, btemp+12, btemp+13, btemp+14, btemp+15
      +, btemp+16, btemp+17, btemp+18, btemp+19, btemp+20, btemp+21, btemp+22, btemp+23, btemp+24, btemp+25, btemp+26, btemp+27
      +, btemp+28, btemp+29, btemp+30, btemp+31, tosl, structret, tblptrl, tblptrh, tblptru, prodl, prodh, bsr, cstack
  1969 ;; Tracked objects:
  1970 ;;		On entry : 0/0
  1971 ;;		On exit  : 0/0
  1972 ;;		Unchanged: 0/0
  1973 ;; Data sizes:     COMRAM   BANK0   BANK1   BANK2   BANK3   BANK4   BANK5   BANK6   BANK7   BANK8   BANK9  BANK10  BANK1
      +1  BANK12  BANK13  BANK14  BANK15
  1974 ;;      Params:         0       0       0       0       0       0       0       0       0       0       0       0       
      +0       0       0       0       0
  1975 ;;      Locals:         0       0       0       0       0       0       0       0       0       0       0       0       
      +0       0       0       0       0
  1976 ;;      Temps:          0       0       0       0       0       0       0       0       0       0       0       0       
      +0       0       0       0       0
  1977 ;;      Totals:         0       0       0       0       0       0       0       0       0       0       0       0       
      +0       0       0       0       0
  1978 ;;Total ram usage:        0 bytes
  1979 ;; Hardware stack levels used:    1
  1980 ;; Hardware stack levels required when called:    1
  1981 ;; This function calls:
  1982 ;;		Absolute function
  1983 ;;		_grvTikKesmeIsleyici
  1984 ;;		_sisTimerIsleyiciVarsayilan
  1985 ;; This function is called by:
  1986 ;;		_sisTimerIlkle
  1987 ;;		_interruptYonetici
  1988 ;; This function uses a non-reentrant model
  1989 ;;
  1990                           
  1991                           	psect	text12
  1992  00166A                     __ptext12:
  1993                           	callstack 0
  1994  00166A                     _sisTimerKesmeIsleyici:
  1995                           	callstack 26
  1996                           
  1997                           ;sistimer.c: 127:     TMR0 = (uint16_t) ((uint16_t)((65536)-((( (1000) - ( ( ( 52 ) * ( 
      +                          ( 1 * ( 100 ) ) / ( (16000000 / 4 ) / 1000000 ) ) ) / ( 100 ) ) )* (16000000/1000000))/(
      +                          4*(1)))-1));
  1998                           
  1999                           ;incstack = 0
  2000  00166A  0EF0               	movlw	240
  2001  00166C  6ED7               	movwf	215,c	;volatile
  2002  00166E  0E93               	movlw	147
  2003  001670  6ED6               	movwf	214,c	;volatile
  2004                           
  2005                           ;sistimer.c: 131:     (*sisTimerDisIsleyici)();
  2006  001672  D801               	call	i2u5_48
  2007  001674  0012               	return	
  2008  001676                     i2u5_48:
  2009  001676  0005               	push	
  2010  001678  6EFA               	movwf	pclath,c
  2011  00167A  5038               	movf	_sisTimerDisIsleyici^0,w,c
  2012  00167C  6EFD               	movwf	tosl,c
  2013  00167E  5039               	movf	(_sisTimerDisIsleyici+1)^0,w,c
  2014  001680  6EFE               	movwf	tosh,c
  2015  001682  6AFF               	clrf	tosu,c
  2016  001684  50FA               	movf	pclath,w,c
  2017  001686  0012               	return		;indir
  2018  001688                     __end_of_sisTimerKesmeIsleyici:
  2019                           	callstack 0
  2020                           
  2021 ;; *************** function _grvTikKesmeIsleyici *****************
  2022 ;; Defined at:
  2023 ;;		line 122 in file "../../../../../kaynak/gorev.c"
  2024 ;; Parameters:    Size  Location     Type
  2025 ;;		None
  2026 ;; Auto vars:     Size  Location     Type
  2027 ;;		None
  2028 ;; Return value:  Size  Location     Type
  2029 ;;                  1    wreg      void 
  2030 ;; Registers used:
  2031 ;;		status,2, status,0
  2032 ;; Tracked objects:
  2033 ;;		On entry : 0/0
  2034 ;;		On exit  : 0/0
  2035 ;;		Unchanged: 0/0
  2036 ;; Data sizes:     COMRAM   BANK0   BANK1   BANK2   BANK3   BANK4   BANK5   BANK6   BANK7   BANK8   BANK9  BANK10  BANK1
      +1  BANK12  BANK13  BANK14  BANK15
  2037 ;;      Params:         0       0       0       0       0       0       0       0       0       0       0       0       
      +0       0       0       0       0
  2038 ;;      Locals:         0       0       0       0       0       0       0       0       0       0       0       0       
      +0       0       0       0       0
  2039 ;;      Temps:          0       0       0       0       0       0       0       0       0       0       0       0       
      +0       0       0       0       0
  2040 ;;      Totals:         0       0       0       0       0       0       0       0       0       0       0       0       
      +0       0       0       0       0
  2041 ;;Total ram usage:        0 bytes
  2042 ;; Hardware stack levels used:    1
  2043 ;; This function calls:
  2044 ;;		Nothing
  2045 ;; This function is called by:
  2046 ;;		_main
  2047 ;;		_sisTimerKesmeIsleyici
  2048 ;; This function uses a non-reentrant model
  2049 ;;
  2050                           
  2051                           	psect	text13
  2052  0016D8                     __ptext13:
  2053                           	callstack 0
  2054  0016D8                     _grvTikKesmeIsleyici:
  2055                           	callstack 26
  2056                           
  2057                           ;../../../../../kaynak/gorev.c: 123:  tikSayimi++;
  2058                           
  2059                           ;incstack = 0
  2060  0016D8  4A36               	infsnz	_tikSayimi^0,f,c
  2061  0016DA  2A37               	incf	(_tikSayimi+1)^0,f,c
  2062  0016DC  0012               	return		;funcret
  2063  0016DE                     __end_of_grvTikKesmeIsleyici:
  2064                           	callstack 0
  2065                           
  2066 ;; *************** function _sisTimerIsleyiciVarsayilan *****************
  2067 ;; Defined at:
  2068 ;;		line 121 in file "sistimer.c"
  2069 ;; Parameters:    Size  Location     Type
  2070 ;;		None
  2071 ;; Auto vars:     Size  Location     Type
  2072 ;;		None
  2073 ;; Return value:  Size  Location     Type
  2074 ;;                  1    wreg      void 
  2075 ;; Registers used:
  2076 ;;		None
  2077 ;; Tracked objects:
  2078 ;;		On entry : 0/0
  2079 ;;		On exit  : 0/0
  2080 ;;		Unchanged: 0/0
  2081 ;; Data sizes:     COMRAM   BANK0   BANK1   BANK2   BANK3   BANK4   BANK5   BANK6   BANK7   BANK8   BANK9  BANK10  BANK1
      +1  BANK12  BANK13  BANK14  BANK15
  2082 ;;      Params:         0       0       0       0       0       0       0       0       0       0       0       0       
      +0       0       0       0       0
  2083 ;;      Locals:         0       0       0       0       0       0       0       0       0       0       0       0       
      +0       0       0       0       0
  2084 ;;      Temps:          0       0       0       0       0       0       0       0       0       0       0       0       
      +0       0       0       0       0
  2085 ;;      Totals:         0       0       0       0       0       0       0       0       0       0       0       0       
      +0       0       0       0       0
  2086 ;;Total ram usage:        0 bytes
  2087 ;; Hardware stack levels used:    1
  2088 ;; This function calls:
  2089 ;;		Nothing
  2090 ;; This function is called by:
  2091 ;;		_sisTimerIlkle
  2092 ;;		_sisTimerKesmeIsleyici
  2093 ;; This function uses a non-reentrant model
  2094 ;;
  2095                           
  2096                           	psect	text14
  2097  0016E2                     __ptext14:
  2098                           	callstack 0
  2099  0016E2                     _sisTimerIsleyiciVarsayilan:
  2100                           	callstack 26
  2101                           
  2102                           ;incstack = 0
  2103  0016E2  0012               	return		;funcret
  2104  0016E4                     __end_of_sisTimerIsleyiciVarsayilan:
  2105                           	callstack 0
  2106                           
  2107                           	psect	text15
  2108  000000                     __ptext15:
  2109                           	callstack 0
  2110                           
  2111                           	psect	rparam
  2112  0000                     
  2113                           	psect	temp
  2114  000045                     btemp:
  2115                           	callstack 0
  2116  000045                     	ds	1
  2117  0000                     int$flags	set	btemp
  2118  0000                     wtemp8	set	btemp+1
  2119  0000                     ttemp5	set	btemp+1
  2120  0000                     ttemp6	set	btemp+4
  2121  0000                     ttemp7	set	btemp+8
  2122                           
  2123                           	psect	idloc
  2124                           
  2125                           ;Config register IDLOC0 @ 0x200000
  2126                           ;	unspecified, using default values
  2127  200000                     	org	2097152
  2128  200000  FF                 	db	255
  2129                           
  2130                           ;Config register IDLOC1 @ 0x200001
  2131                           ;	unspecified, using default values
  2132  200001                     	org	2097153
  2133  200001  FF                 	db	255
  2134                           
  2135                           ;Config register IDLOC2 @ 0x200002
  2136                           ;	unspecified, using default values
  2137  200002                     	org	2097154
  2138  200002  FF                 	db	255
  2139                           
  2140                           ;Config register IDLOC3 @ 0x200003
  2141                           ;	unspecified, using default values
  2142  200003                     	org	2097155
  2143  200003  FF                 	db	255
  2144                           
  2145                           ;Config register IDLOC4 @ 0x200004
  2146                           ;	unspecified, using default values
  2147  200004                     	org	2097156
  2148  200004  FF                 	db	255
  2149                           
  2150                           ;Config register IDLOC5 @ 0x200005
  2151                           ;	unspecified, using default values
  2152  200005                     	org	2097157
  2153  200005  FF                 	db	255
  2154                           
  2155                           ;Config register IDLOC6 @ 0x200006
  2156                           ;	unspecified, using default values
  2157  200006                     	org	2097158
  2158  200006  FF                 	db	255
  2159                           
  2160                           ;Config register IDLOC7 @ 0x200007
  2161                           ;	unspecified, using default values
  2162  200007                     	org	2097159
  2163  200007  FF                 	db	255
  2164                           
  2165                           	psect	config
  2166                           
  2167                           ; Padding undefined space
  2168  300000                     	org	3145728
  2169  300000  FF                 	db	255
  2170                           
  2171                           ;Config register CONFIG1H @ 0x300001
  2172                           ;	Oscillator Selection bits
  2173                           ;	FOSC = INTIO67, Internal oscillator block
  2174                           ;	4X PLL Enable
  2175                           ;	PLLCFG = ON, Oscillator multiplied by 4
  2176                           ;	Primary clock enable bit
  2177                           ;	PRICLKEN = ON, Primary clock is always enabled
  2178                           ;	Fail-Safe Clock Monitor Enable bit
  2179                           ;	FCMEN = OFF, Fail-Safe Clock Monitor disabled
  2180                           ;	Internal/External Oscillator Switchover bit
  2181                           ;	IESO = OFF, Oscillator Switchover mode disabled
  2182  300001                     	org	3145729
  2183  300001  38                 	db	56
  2184                           
  2185                           ;Config register CONFIG2L @ 0x300002
  2186                           ;	Power-up Timer Enable bit
  2187                           ;	PWRTEN = ON, Power up timer enabled
  2188                           ;	Brown-out Reset Enable bits
  2189                           ;	BOREN = SBORDIS, Brown-out Reset enabled in hardware only (SBOREN is disabled)
  2190                           ;	Brown Out Reset Voltage bits
  2191                           ;	BORV = 250, VBOR set to 2.50 V nominal
  2192  300002                     	org	3145730
  2193  300002  0E                 	db	14
  2194                           
  2195                           ;Config register CONFIG2H @ 0x300003
  2196                           ;	Watchdog Timer Enable bits
  2197                           ;	WDTEN = OFF, Watch dog timer is always disabled. SWDTEN has no effect.
  2198                           ;	Watchdog Timer Postscale Select bits
  2199                           ;	WDTPS = 32768, 1:32768
  2200  300003                     	org	3145731
  2201  300003  3C                 	db	60
  2202                           
  2203                           ; Padding undefined space
  2204  300004                     	org	3145732
  2205  300004  FF                 	db	255
  2206                           
  2207                           ;Config register CONFIG3H @ 0x300005
  2208                           ;	CCP2 MUX bit
  2209                           ;	CCP2MX = PORTC1, CCP2 input/output is multiplexed with RC1
  2210                           ;	PORTB A/D Enable bit
  2211                           ;	PBADEN = OFF, PORTB<5:0> pins are configured as digital I/O on Reset
  2212                           ;	P3A/CCP3 Mux bit
  2213                           ;	CCP3MX = PORTB5, P3A/CCP3 input/output is multiplexed with RB5
  2214                           ;	HFINTOSC Fast Start-up
  2215                           ;	HFOFST = ON, HFINTOSC output and ready status are not delayed by the oscillator stable
      +                           status
  2216                           ;	Timer3 Clock input mux bit
  2217                           ;	T3CMX = PORTC0, T3CKI is on RC0
  2218                           ;	ECCP2 B output mux bit
  2219                           ;	P2BMX = PORTD2, P2B is on RD2
  2220                           ;	MCLR Pin Enable bit
  2221                           ;	MCLRE = INTMCLR, RE3 input pin enabled; MCLR disabled
  2222  300005                     	org	3145733
  2223  300005  3D                 	db	61
  2224                           
  2225                           ;Config register CONFIG4L @ 0x300006
  2226                           ;	Stack Full/Underflow Reset Enable bit
  2227                           ;	STVREN = ON, Stack full/underflow will cause Reset
  2228                           ;	Single-Supply ICSP Enable bit
  2229                           ;	LVP = ON, Single-Supply ICSP enabled if MCLRE is also 1
  2230                           ;	Extended Instruction Set Enable bit
  2231                           ;	XINST = OFF, Instruction set extension and Indexed Addressing mode disabled (Legacy mo
      +                          de)
  2232                           ;	Background Debug
  2233                           ;	DEBUG = OFF, Disabled
  2234  300006                     	org	3145734
  2235  300006  85                 	db	133
  2236                           
  2237                           ; Padding undefined space
  2238  300007                     	org	3145735
  2239  300007  FF                 	db	255
  2240                           
  2241                           ;Config register CONFIG5L @ 0x300008
  2242                           ;	Code Protection Block 0
  2243                           ;	CP0 = OFF, Block 0 (000800-003FFFh) not code-protected
  2244                           ;	Code Protection Block 1
  2245                           ;	CP1 = OFF, Block 1 (004000-007FFFh) not code-protected
  2246                           ;	Code Protection Block 2
  2247                           ;	CP2 = OFF, Block 2 (008000-00BFFFh) not code-protected
  2248                           ;	Code Protection Block 3
  2249                           ;	CP3 = OFF, Block 3 (00C000-00FFFFh) not code-protected
  2250  300008                     	org	3145736
  2251  300008  0F                 	db	15
  2252                           
  2253                           ;Config register CONFIG5H @ 0x300009
  2254                           ;	Boot Block Code Protection bit
  2255                           ;	CPB = OFF, Boot block (000000-0007FFh) not code-protected
  2256                           ;	Data EEPROM Code Protection bit
  2257                           ;	CPD = OFF, Data EEPROM not code-protected
  2258  300009                     	org	3145737
  2259  300009  C0                 	db	192
  2260                           
  2261                           ;Config register CONFIG6L @ 0x30000A
  2262                           ;	Write Protection Block 0
  2263                           ;	WRT0 = OFF, Block 0 (000800-003FFFh) not write-protected
  2264                           ;	Write Protection Block 1
  2265                           ;	WRT1 = OFF, Block 1 (004000-007FFFh) not write-protected
  2266                           ;	Write Protection Block 2
  2267                           ;	WRT2 = OFF, Block 2 (008000-00BFFFh) not write-protected
  2268                           ;	Write Protection Block 3
  2269                           ;	WRT3 = OFF, Block 3 (00C000-00FFFFh) not write-protected
  2270  30000A                     	org	3145738
  2271  30000A  0F                 	db	15
  2272                           
  2273                           ;Config register CONFIG6H @ 0x30000B
  2274                           ;	Configuration Register Write Protection bit
  2275                           ;	WRTC = OFF, Configuration registers (300000-3000FFh) not write-protected
  2276                           ;	Boot Block Write Protection bit
  2277                           ;	WRTB = OFF, Boot Block (000000-0007FFh) not write-protected
  2278                           ;	Data EEPROM Write Protection bit
  2279                           ;	WRTD = OFF, Data EEPROM not write-protected
  2280  30000B                     	org	3145739
  2281  30000B  E0                 	db	224
  2282                           
  2283                           ;Config register CONFIG7L @ 0x30000C
  2284                           ;	Table Read Protection Block 0
  2285                           ;	EBTR0 = OFF, Block 0 (000800-003FFFh) not protected from table reads executed in other
      +                           blocks
  2286                           ;	Table Read Protection Block 1
  2287                           ;	EBTR1 = OFF, Block 1 (004000-007FFFh) not protected from table reads executed in other
      +                           blocks
  2288                           ;	Table Read Protection Block 2
  2289                           ;	EBTR2 = OFF, Block 2 (008000-00BFFFh) not protected from table reads executed in other
      +                           blocks
  2290                           ;	Table Read Protection Block 3
  2291                           ;	EBTR3 = OFF, Block 3 (00C000-00FFFFh) not protected from table reads executed in other
      +                           blocks
  2292  30000C                     	org	3145740
  2293  30000C  0F                 	db	15
  2294                           
  2295                           ;Config register CONFIG7H @ 0x30000D
  2296                           ;	Boot Block Table Read Protection bit
  2297                           ;	EBTRB = OFF, Boot Block (000000-0007FFh) not protected from table reads executed in ot
      +                          her blocks
  2298  30000D                     	org	3145741
  2299  30000D  40                 	db	64
  2300                           tosu	equ	0xFFF
  2301                           tosh	equ	0xFFE
  2302                           tosl	equ	0xFFD
  2303                           stkptr	equ	0xFFC
  2304                           pclatu	equ	0xFFB
  2305                           pclath	equ	0xFFA
  2306                           pcl	equ	0xFF9
  2307                           tblptru	equ	0xFF8
  2308                           tblptrh	equ	0xFF7
  2309                           tblptrl	equ	0xFF6
  2310                           tablat	equ	0xFF5
  2311                           prodh	equ	0xFF4
  2312                           prodl	equ	0xFF3
  2313                           indf0	equ	0xFEF
  2314                           postinc0	equ	0xFEE
  2315                           postdec0	equ	0xFED
  2316                           preinc0	equ	0xFEC
  2317                           plusw0	equ	0xFEB
  2318                           fsr0h	equ	0xFEA
  2319                           fsr0l	equ	0xFE9
  2320                           wreg	equ	0xFE8
  2321                           indf1	equ	0xFE7
  2322                           postinc1	equ	0xFE6
  2323                           postdec1	equ	0xFE5
  2324                           preinc1	equ	0xFE4
  2325                           plusw1	equ	0xFE3
  2326                           fsr1h	equ	0xFE2
  2327                           fsr1l	equ	0xFE1
  2328                           bsr	equ	0xFE0
  2329                           indf2	equ	0xFDF
  2330                           postinc2	equ	0xFDE
  2331                           postdec2	equ	0xFDD
  2332                           preinc2	equ	0xFDC
  2333                           plusw2	equ	0xFDB
  2334                           fsr2h	equ	0xFDA
  2335                           fsr2l	equ	0xFD9
  2336                           status	equ	0xFD8

Data Sizes:
    Strings     0
    Constant    30
    Data        0
    BSS         35
    Persistent  0
    Stack       0

Auto Spaces:
    Space          Size  Autos    Used
    COMRAM           94     35      68
    BANK0           160     32      34
    BANK1           256      0       0
    BANK2           256      0       0
    BANK3           256      0       0
    BANK4           256      0       0
    BANK5           256      0       0
    BANK6           256      0       0
    BANK7           256      0       0
    BANK8           256      0       0
    BANK9           256      0       0
    BANK10          256      0       0
    BANK11          256      0       0
    BANK12          256      0       0
    BANK13          256      0       0
    BANK14          256      0       0
    BANK15           56      0       0

Pointer List with Targets:

    karaSimsekHiziOkuma@tutucu	PTR void  size(1) Largest target is 2
		 -> main@kho(COMRAM[2]), 

    karaSimsek@tutucu	PTR void  size(1) Largest target is 2
		 -> main@ksmsk(COMRAM[2]), 

    ledCakarlama2@tutucu	PTR void  size(1) Largest target is 2
		 -> main@lc2(COMRAM[2]), 

    ledCakarlama1@tutucu	PTR void  size(1) Largest target is 2
		 -> main@lc1(COMRAM[2]), 

    sisTimerIlkle@isleyici	PTR FTN()void  size(2) Largest target is 1
		 -> grvTikKesmeIsleyici(), 

    sisTimerDisIsleyici	PTR FTN()void  size(2) Largest target is 2
		 -> Absolute function(), grvTikKesmeIsleyici(), sisTimerIlkle@isleyici(COMRAM[2]), sisTimerIsleyiciVarsayilan(), 

    uartRxKesmeIsleyici	PTR FTN()void  size(2) Largest target is 1
		 -> Absolute function(), 

    uartTxKesmeIsleyici	PTR FTN()void  size(2) Largest target is 1
		 -> Absolute function(), 

    timer0KesmeIsleyiciKur@isleyici	PTR FTN()void  size(2) Largest target is 1
		 -> sisTimerKesmeIsleyici(), 

    timer0KesmeIsleyici	PTR FTN()void  size(2) Largest target is 1
		 -> Absolute function(), sisTimerKesmeIsleyici(), 


Critical Paths under _main in COMRAM

    _main->_karaSimsekHiziOkuma
    _sisTimerIlkle->_timer0KesmeIsleyiciKur
    _ledCakarlama2->_grvTikSayiminiAl
    _ledCakarlama1->_grvTikSayiminiAl
    _karaSimsekHiziOkuma->___lwdiv
    _karaSimsek->_grvTikSayiminiAl

Critical Paths under _interruptYonetici in COMRAM

    None.

Critical Paths under _main in BANK0

    _main->_ledCakarlama1

Critical Paths under _interruptYonetici in BANK0

    None.

Critical Paths under _main in BANK1

    None.

Critical Paths under _interruptYonetici in BANK1

    None.

Critical Paths under _main in BANK2

    None.

Critical Paths under _interruptYonetici in BANK2

    None.

Critical Paths under _main in BANK3

    None.

Critical Paths under _interruptYonetici in BANK3

    None.

Critical Paths under _main in BANK4

    None.

Critical Paths under _interruptYonetici in BANK4

    None.

Critical Paths under _main in BANK5

    None.

Critical Paths under _interruptYonetici in BANK5

    None.

Critical Paths under _main in BANK6

    None.

Critical Paths under _interruptYonetici in BANK6

    None.

Critical Paths under _main in BANK7

    None.

Critical Paths under _interruptYonetici in BANK7

    None.

Critical Paths under _main in BANK8

    None.

Critical Paths under _interruptYonetici in BANK8

    None.

Critical Paths under _main in BANK9

    None.

Critical Paths under _interruptYonetici in BANK9

    None.

Critical Paths under _main in BANK10

    None.

Critical Paths under _interruptYonetici in BANK10

    None.

Critical Paths under _main in BANK11

    None.

Critical Paths under _interruptYonetici in BANK11

    None.

Critical Paths under _main in BANK12

    None.

Critical Paths under _interruptYonetici in BANK12

    None.

Critical Paths under _main in BANK13

    None.

Critical Paths under _interruptYonetici in BANK13

    None.

Critical Paths under _main in BANK14

    None.

Critical Paths under _interruptYonetici in BANK14

    None.

Critical Paths under _main in BANK15

    None.

Critical Paths under _interruptYonetici in BANK15

    None.

Call Graph Tables:

 ---------------------------------------------------------------------------------
 (Depth) Function   	        Calls       Base Space   Used Autos Params    Refs
 ---------------------------------------------------------------------------------
 (0) _main                                                 8     8      0    2211
                                             27 COMRAM     8     8      0
                     _interruptIlkle
                         _karaSimsek
                _karaSimsekHiziOkuma
                      _ledCakarlama1
                      _ledCakarlama2
                   _sisOsilatorIlkle
                      _sisTimerIlkle
 ---------------------------------------------------------------------------------
 (1) _sisTimerIlkle                                        2     0      2     220
                                             16 COMRAM     2     0      2
             _timer0KesmeIsleyiciKur
 ---------------------------------------------------------------------------------
 (2) _timer0KesmeIsleyiciKur                               2     0      2      98
                                             14 COMRAM     2     0      2
 ---------------------------------------------------------------------------------
 (1) _sisOsilatorIlkle                                     0     0      0       0
 ---------------------------------------------------------------------------------
 (1) _ledCakarlama2                                        4     3      1     409
                                             18 COMRAM     4     3      1
                   _grvTikSayiminiAl
 ---------------------------------------------------------------------------------
 (1) _ledCakarlama1                                       35    34      1     390
                                             18 COMRAM     3     2      1
                                              0 BANK0     32    32      0
                   _grvTikSayiminiAl
 ---------------------------------------------------------------------------------
 (1) _karaSimsekHiziOkuma                                  6     5      1     664
                                             21 COMRAM     6     5      1
                            ___lwdiv
                   _grvTikSayiminiAl
 ---------------------------------------------------------------------------------
 (2) ___lwdiv                                              7     3      4     314
                                             14 COMRAM     7     3      4
 ---------------------------------------------------------------------------------
 (1) _karaSimsek                                           4     3      1     254
                                             18 COMRAM     4     3      1
                   _grvTikSayiminiAl
 ---------------------------------------------------------------------------------
 (2) _grvTikSayiminiAl                                     4     2      2      34
                                             14 COMRAM     4     2      2
 ---------------------------------------------------------------------------------
 (1) _interruptIlkle                                       0     0      0       0
 ---------------------------------------------------------------------------------
 Estimated maximum stack depth 2
 ---------------------------------------------------------------------------------
 (Depth) Function   	        Calls       Base Space   Used Autos Params    Refs
 ---------------------------------------------------------------------------------
 (3) _interruptYonetici                                   14    14      0       0
                                              0 COMRAM    14    14      0
                   Absolute function *
              _sisTimerKesmeIsleyici *
 ---------------------------------------------------------------------------------
 (4) _sisTimerKesmeIsleyici                                0     0      0       0
                   Absolute function *
                _grvTikKesmeIsleyici *
         _sisTimerIsleyiciVarsayilan *
 ---------------------------------------------------------------------------------
 (5) _sisTimerIsleyiciVarsayilan                           0     0      0       0
 ---------------------------------------------------------------------------------
 (5) _grvTikKesmeIsleyici                                  0     0      0       0
 ---------------------------------------------------------------------------------
 (5) Absolute function(Fake)                               0     0      0       0
 ---------------------------------------------------------------------------------
 Estimated maximum stack depth 5
 ---------------------------------------------------------------------------------

 Call Graph Graphs:

 _main (ROOT)
   _interruptIlkle
   _karaSimsek
     _grvTikSayiminiAl
   _karaSimsekHiziOkuma
     ___lwdiv
     _grvTikSayiminiAl
   _ledCakarlama1
     _grvTikSayiminiAl
   _ledCakarlama2
     _grvTikSayiminiAl
   _sisOsilatorIlkle
   _sisTimerIlkle
     _timer0KesmeIsleyiciKur

 _interruptYonetici (ROOT)
   Absolute function(Fake) *
   _sisTimerKesmeIsleyici *
     Absolute function(Fake) *
     _grvTikKesmeIsleyici *
     _sisTimerIsleyiciVarsayilan *

 Address spaces:
Name               Size   Autos  Total    Cost      Usage
BIGRAM             F37      0       0      37        0.0%
EEDATA             400      0       0       0        0.0%
BITBANK14          100      0       0      33        0.0%
BANK14             100      0       0      34        0.0%
BITBANK13          100      0       0      31        0.0%
BANK13             100      0       0      32        0.0%
BITBANK12          100      0       0      29        0.0%
BANK12             100      0       0      30        0.0%
BITBANK11          100      0       0      27        0.0%
BANK11             100      0       0      28        0.0%
BITBANK10          100      0       0      25        0.0%
BANK10             100      0       0      26        0.0%
BITBANK9           100      0       0      23        0.0%
BANK9              100      0       0      24        0.0%
BITBANK8           100      0       0      21        0.0%
BANK8              100      0       0      22        0.0%
BITBANK7           100      0       0      19        0.0%
BANK7              100      0       0      20        0.0%
BITBANK6           100      0       0      17        0.0%
BANK6              100      0       0      18        0.0%
BITBANK5           100      0       0      15        0.0%
BANK5              100      0       0      16        0.0%
BITBANK4           100      0       0      13        0.0%
BANK4              100      0       0      14        0.0%
BITBANK3           100      0       0      10        0.0%
BANK3              100      0       0      11        0.0%
BITBANK2           100      0       0       8        0.0%
BANK2              100      0       0       9        0.0%
BITBANK1           100      0       0       6        0.0%
BANK1              100      0       0       7        0.0%
BITBANK0            A0      0       0       4        0.0%
BANK0               A0     20      22       5       21.2%
BITCOMRAM           5E      0       0       0        0.0%
COMRAM              5E     23      44       1       72.3%
BITBANK15           38      0       0      35        0.0%
BANK15              38      0       0      36        0.0%
BITSFR_1             0      0       0     200        0.0%
SFR_1                0      0       0     200        0.0%
BITSFR               0      0       0     200        0.0%
SFR                  0      0       0     200        0.0%
STACK                0      0       0       2        0.0%
NULL                 0      0       0       0        0.0%
ABS                  0      0      66      12        0.0%
DATA                 0      0      66       3        0.0%
CODE                 0      0       0       0        0.0%


Microchip Technology PIC18 Macro Assembler V2.31 build 20201012212115 
Symbol Table                                                                                   Sun Jun 13 17:23:23 2021

             __end_of_interruptIlkle 16E2            __size_of_grvTikSayiminiAl 001C  
        __end_of_karaSimsekHiziOkuma 14C4                                  l224 13DA  
                                l209 14E4                                  l180 1022  
                                l740 1620                                  u520 15FA  
                                u910 1292                                  u950 12E2  
                                u980 1340                                  u968 12E4  
                                u998 1342                                  tosl 000FFD  
                                wreg 000FE8                     _sisOsilatorIlkle 16C0  
                               l2002 1468                                 l2012 1482  
                               l1400 1656                                 l2040 15B6  
                               l2018 1492                                 l1370 15EE  
                               l1372 15F6                                 l1382 1616  
                               l1800 12D8                                 l1820 137C  
                               l1900 11B6                                 l1830 1396  
                               l1398 164E                                 l1808 131E  
                               l1912 120A                                 l1922 1224  
                               l1772 1280                                 l1836 13A6  
                               l1852 1066                                 l1844 102A  
                               l1942 14FA                                 l1952 152A  
                               l1936 14C6                                 l1792 12C6  
                               l1864 10BA                                 l1928 1234  
                               l1962 1544                                 l1946 1508  
                               l1794 12CA                                 l1786 12B2  
                               l1876 110E                                 l1982 13EA  
                               l1798 12D6                                 l1968 1554  
                               l1888 1162                                 l1994 142A  
                               l1986 13FA                                 l1996 1446  
                               u1010 1034                                 u1100 1130  
                               u1040 1088                                 u1130 1184  
                               u1028 1036                                 u1118 1132  
                               u1070 10DC                                 u1160 11D8  
                               u1058 108A                                 u1148 1186  
                               u1088 10DE                                 _LATD 000F8C  
                               u1178 11DA                                 _RCIF 007CF5  
                               i2l42 006E                                 i2l46 0076  
                               i2l39 0060                                 _TMR0 000FD6  
                               _TXIE 007CEC                                 _TXIF 007CF4  
                               _main 1580                                 fsr0h 000FEA  
                               fsr1h 000FE2                                 fsr2h 000FDA  
                               fsr0l 000FE9                                 fsr1l 000FE1  
                               fsr2l 000FD9                                 btemp 0045  
                               prodh 000FF4                                 prodl 000FF3  
                               start 00B2                         ___param_bank 000000  
                _uartTxKesmeIsleyici 003A                         karaSimsek@s3 0028  
                    ?_interruptIlkle 0001                                ?_main 0001  
                              _T0CON 000FD5                      __end_of___lwdiv 162A  
                              _PORTD 000F83                                _TRISD 000F95  
             ?_sisTimerKesmeIsleyici 0001                   ledCakarlama1@F6039 1001  
                              pclath 000FFA                  _sisTimerDisIsleyici 0038  
                              tablat 000FF5      __size_of_timer0KesmeIsleyiciKur 000A  
                              ttemp5 0046                                ttemp6 0049  
                              ttemp7 004D                                status 000FD8  
                              wtemp8 0046                   ledCakarlama1@artir 003F  
                    __initialization 1688                         __end_of_main 15D8  
                             ??_main 001C                        __activetblptr 000003  
                _grvTikKesmeIsleyici 16D8                               _ADCON1 000FC1  
                             _ADCON2 000FC0                               _ADRESH 000FC4  
                             _ADRESL 000FC3                               _ANSELD 000F3B  
                             _INTCON 000FF2                               _OSCCON 000FD3  
                             _TMR0IF 007F92                               i2u5_48 1676  
               ?_grvTikKesmeIsleyici 0001          ?_sisTimerIsleyiciVarsayilan 0001  
                          ??___lwdiv 0013                               clear_0 1694  
                   _grvTikSayiminiAl 16A4               _timer0KesmeIsleyiciKur 16CE  
                       __mediumconst 0000                               tblptrh 000FF7  
                             tblptrl 000FF6                               tblptru 000FF8  
              __end_of_ledCakarlama1 13D8                __end_of_ledCakarlama2 127E  
                         __accesstop 0060              __end_of__initialization 169A  
              ??_grvTikKesmeIsleyici 0001                        ___rparam_used 000001  
                ledCakarlama1@secici 0040                  ledCakarlama1@tutucu 0013  
                     __pcstackCOMRAM 0001                  ledCakarlama2@tutucu 0013  
           __end_of_sisOsilatorIlkle 16CE                __end_of_sisTimerIlkle 166A  
         _intconYedek@portmacro$F371 0042           _intconYedek@portmacro$F786 0041  
                   karaSimsek@tutucu 0013                           __pbssBANK0 0080  
                     karaSimsek@sola 003E                     ??_interruptIlkle 000F  
            ??_sisTimerKesmeIsleyici 0001                              _OSCCON2 000FD2  
                            i2u44_48 004E                              _OSCTUNE 000F9B  
                         _karaSimsek 14C4         __size_of_karaSimsekHiziOkuma 00EC  
                            __Hparam 0000                              __Lparam 0000  
                            ___lwdiv 15D8                         __psmallconst 1000  
                            __pcinit 1688                              __ramtop 1000  
                            __ptext0 1580                              __ptext1 162A  
                            __ptext2 16CE                              __ptext3 16C0  
                            __ptext4 1020                              __ptext5 127E  
                            __ptext6 13D8                              __ptext7 15D8  
                            __ptext8 14C4                              __ptext9 16A4  
                          _T0CONbits 000FD5       timer0KesmeIsleyiciKur@isleyici 000F  
                            main@lc1 001E                              main@lc2 0022  
                            main@kho 0020                 end_of_initialization 169A  
          karaSimsekHiziOkuma@tutucu 0016             __end_of_grvTikSayiminiAl 16C0  
                            postdec2 000FDD              ?_timer0KesmeIsleyiciKur 000F  
                            postinc0 000FEE                              postinc2 000FDE  
                          _PORTBbits 000F81                            _TRISAbits 000F92  
                          _TRISBbits 000F93                          ?_karaSimsek 0013  
               ledCakarlama1@sonSira 007F                  _uartRxKesmeIsleyici 0080  
     __end_of_timer0KesmeIsleyiciKur 16D8                 ledCakarlama1@sureler 0060  
                  ?_sisOsilatorIlkle 0001                   ??_sisOsilatorIlkle 000F  
                start_initialization 1688          __end_of_grvTikKesmeIsleyici 16DE  
                __size_of_karaSimsek 00BC                  _karaSimsekHiziOkuma 13D8  
             __size_of_ledCakarlama1 015A               __size_of_ledCakarlama2 025E  
                        __pbssCOMRAM 0024       __size_of_sisTimerKesmeIsleyici 001E  
                      __pcstackBANK0 0060        __end_of_sisTimerKesmeIsleyici 1688  
               ?_karaSimsekHiziOkuma 0016               __size_of_sisTimerIlkle 0040  
                   ___lwdiv@dividend 000F                            __pintcode 0008  
                           ?___lwdiv 000F                    _interruptYonetici 0008  
                        __smallconst 1000                   ?_interruptYonetici 0001  
              ??_karaSimsekHiziOkuma 0017                     ___lwdiv@quotient 0013  
                      _ledCakarlama1 127E                        _ledCakarlama2 1020  
                ??_interruptYonetici 0001                    ?_grvTikSayiminiAl 000F  
                           _LATBbits 000F8A                             _PIE1bits 000F9D  
                 ??_grvTikSayiminiAl 0011                            _tikSayimi 0036  
                           _PIR1bits 000F9E         ??_sisTimerIsleyiciVarsayilan 0001  
                           _RCONbits 000FD0            __end_of_interruptYonetici 00B2  
                         _ADCON0bits 000FC2                        _sisTimerIlkle 162A  
            __size_of_interruptIlkle 0004                            main@ksmsk 001C  
                    ledCakarlama1@s1 0030                      ledCakarlama2@s2 002C  
                       ??_karaSimsek 0014                       ?_ledCakarlama1 0013  
                     ?_ledCakarlama2 0013  __size_of_sisTimerIsleyiciVarsayilan 0002  
                           __Hrparam 0000                             __Lrparam 0000  
                 __end_of_karaSimsek 1580           __end_ofledCakarlama1@F6039 101F  
                   __size_of___lwdiv 0052                       ?_sisTimerIlkle 0011  
                         _ANSELBbits 000F39                      ___lwdiv@divisor 0011  
                    ___lwdiv@counter 0015                             __ptext10 16DE  
                           __ptext12 166A                             __ptext13 16D8  
                           __ptext14 16E2                             __ptext15 0000  
          __size_of_sisOsilatorIlkle 000E                          _intconYedek 0043  
                      __size_of_main 0058                          _tmr0OnDeger 0044  
                           int$flags 0045                grvTikSayiminiAl@sayim 0011  
         __size_of_interruptYonetici 00AA                       _karaSimsekHizi 0034  
                         _INTCONbits 000FF2                      ??_ledCakarlama1 0014  
                    ??_ledCakarlama2 0014                  _timer0KesmeIsleyici 003C  
                           intlevel2 0000             karaSimsekHiziOkuma@sonuc 001A  
 __end_of_sisTimerIsleyiciVarsayilan 16E4           _sisTimerIsleyiciVarsayilan 16E2  
       __size_of_grvTikKesmeIsleyici 0006                      ??_sisTimerIlkle 0013  
              sisTimerIlkle@isleyici 0011                       _interruptIlkle 16DE  
              _sisTimerKesmeIsleyici 166A             ??_timer0KesmeIsleyiciKur 0011  
              karaSimsekHiziOkuma@s4 0024  
