

Microchip MPLAB XC8 Assembler V2.31 build 20201012212115 
                                                                                               Sun May  9 19:29:58 2021

Microchip MPLAB XC8 C Compiler v2.31 (Free license) build 20201012212115 Og9 
     1                           	processor	18F46K22
     2                           	fnconf	rparam,??,?,0
     3                           	pagewidth 120
     4                           	opt	flic
     5                           	psect	smallconst,global,reloc=2,class=SMALLCONST,delta=1,noexec
     6                           	psect	cinit,global,reloc=2,class=CODE,delta=1
     7                           	psect	bssCOMRAM,global,class=COMRAM,space=1,delta=1,lowdata,noexec
     8                           	psect	bssBANK0,global,class=BANK0,space=1,delta=1,lowdata,noexec
     9                           	psect	cstackBANK0,global,class=BANK0,space=1,delta=1,lowdata,noexec
    10                           	psect	cstackCOMRAM,global,class=COMRAM,space=1,delta=1,lowdata,noexec
    11                           	psect	text0,global,reloc=2,class=CODE,delta=1
    12                           	psect	text1,global,reloc=2,class=CODE,delta=1
    13                           	psect	text2,global,reloc=2,class=CODE,delta=1
    14                           	psect	text3,global,reloc=2,class=CODE,delta=1
    15                           	psect	text4,global,reloc=2,class=CODE,delta=1
    16                           	psect	text5,global,reloc=2,class=CODE,delta=1
    17                           	psect	text6,global,reloc=2,class=CODE,delta=1
    18                           	psect	text7,global,reloc=2,class=CODE,delta=1
    19                           	psect	text8,global,reloc=2,class=CODE,delta=1
    20                           	psect	text9,global,reloc=2,class=CODE,delta=1
    21                           	psect	text10,global,reloc=2,class=CODE,delta=1
    22                           	psect	text11,global,reloc=2,class=CODE,delta=1
    23                           	psect	text12,global,reloc=2,class=CODE,delta=1
    24                           	psect	text13,global,reloc=2,class=CODE,delta=1
    25                           	psect	text14,global,reloc=2,class=CODE,delta=1
    26                           	psect	text15,global,reloc=2,class=CODE,delta=1
    27                           	psect	text16,global,reloc=2,class=CODE,delta=1
    28                           	psect	text17,global,reloc=2,class=CODE,delta=1
    29                           	psect	text18,global,reloc=2,class=CODE,delta=1
    30                           	psect	text19,global,reloc=2,class=CODE,delta=1
    31                           	psect	text20,global,reloc=2,class=CODE,delta=1
    32                           	psect	text21,global,reloc=2,class=CODE,delta=1
    33                           	psect	text22,global,reloc=2,class=CODE,delta=1
    34                           	psect	intcode,global,reloc=2,class=CODE,delta=1
    35                           	psect	text24,global,reloc=2,class=CODE,delta=1
    36                           	psect	text25,global,reloc=2,class=CODE,delta=1
    37                           	psect	text26,global,reloc=2,class=CODE,delta=1
    38                           	psect	intsave_regs,global,class=BIGRAM,space=1,delta=1,noexec
    39                           	psect	text27,global,reloc=2,class=CODE,delta=1
    40                           	psect	rparam,global,class=COMRAM,space=1,delta=1,noexec
    41                           	psect	temp,global,ovrld,common,class=COMRAM,space=1,delta=1
    42                           	psect	idloc,global,abs,ovrld,class=IDLOC,space=5,delta=1,noexec
    43                           	psect	config,global,abs,ovrld,class=CONFIG,space=4,delta=1,noexec
    44  0000                     
    45                           ; Version 2.20
    46                           ; Generated 05/05/2020 GMT
    47                           ; 
    48                           ; Copyright © 2020, Microchip Technology Inc. and its subsidiaries ("Microchip")
    49                           ; All rights reserved.
    50                           ; 
    51                           ; This software is developed by Microchip Technology Inc. and its subsidiaries ("Microch
      +                          ip").
    52                           ; 
    53                           ; Redistribution and use in source and binary forms, with or without modification, are
    54                           ; permitted provided that the following conditions are met:
    55                           ; 
    56                           ;     1. Redistributions of source code must retain the above copyright notice, this lis
      +                          t of
    57                           ;        conditions and the following disclaimer.
    58                           ; 
    59                           ;     2. Redistributions in binary form must reproduce the above copyright notice, this 
      +                          list
    60                           ;        of conditions and the following disclaimer in the documentation and/or other
    61                           ;        materials provided with the distribution.
    62                           ; 
    63                           ;     3. Microchip's name may not be used to endorse or promote products derived from th
      +                          is
    64                           ;        software without specific prior written permission.
    65                           ; 
    66                           ; THIS SOFTWARE IS PROVIDED BY MICROCHIP "AS IS" AND ANY EXPRESS OR IMPLIED WARRANTIES,
    67                           ; INCLUDING, BUT NOT LIMITED TO, THE IMPLIED WARRANTIES OF MERCHANTABILITY AND FITNESS F
      +                          OR
    68                           ; PURPOSE ARE DISCLAIMED.  IN NO EVENT SHALL MICROCHIP BE LIABLE FOR ANY DIRECT, INDIREC
      +                          T,
    69                           ; INCIDENTAL, SPECIAL, EXEMPLARY, OR CONSEQUENTIAL DAMAGES (INCLUDING BUT NOT LIMITED TO
    70                           ; PROCUREMENT OF SUBSTITUTE GOODS OR SERVICES; LOSS OF USE, DATA OR PROFITS; OR BUSINESS
    71                           ; INTERRUPTION) HOWSOEVER CAUSED AND ON ANY THEORY OF LIABILITY, WHETHER IN CONTRACT, ST
      +                          RICT
    72                           ; LIABILITY, OR TORT (INCLUDING NEGLIGENCE OR OTHERWISE) ARISING IN ANY WAY OUT OF THE U
      +                          SE OF
    73                           ; THIS SOFTWARE, EVEN IF ADVISED OF THE POSSIBILITY OF SUCH DAMAGE.
    74                           ; 
    75                           ; 
    76                           ; Code-generator required, PIC18F46K22 Definitions
    77                           ; 
    78                           ; SFR Addresses
    79  0000                     
    80                           	psect	smallconst
    81  001000                     __psmallconst:
    82                           	callstack 0
    83  001000  00                 	db	0
    84  001001                     gostergeTara@BCDdenOrtakAnoda:
    85                           	callstack 0
    86  001001  C0                 	db	192
    87  001002  F9                 	db	249
    88  001003  A4                 	db	164
    89  001004  B0                 	db	176
    90  001005  99                 	db	153
    91  001006  92                 	db	146
    92  001007  82                 	db	130
    93  001008  F8                 	db	248
    94  001009  80                 	db	128
    95  00100A  90                 	db	144
    96  00100B  88                 	db	136
    97  00100C  83                 	db	131
    98  00100D  C6                 	db	198
    99  00100E  A1                 	db	161
   100  00100F  86                 	db	134
   101  001010  8E                 	db	142
   102  001011  BF                 	db	191
   103  001012                     __end_ofgostergeTara@BCDdenOrtakAnoda:
   104                           	callstack 0
   105  001012                     uretici1@F6092:
   106                           	callstack 0
   107  001012  17                 	db	23
   108  001013  22                 	db	34
   109  001014  36                 	db	54
   110  001015  57                 	db	87
   111  001016                     __end_ofuretici1@F6092:
   112                           	callstack 0
   113  0000                     _ANSELB	set	3897
   114  0000                     _ANSELC	set	3898
   115  0000                     _TMR0	set	4054
   116  0000                     _LATBbits	set	3978
   117  0000                     _TRISB	set	3987
   118  0000                     _LATB	set	3978
   119  0000                     _TRISC	set	3988
   120  0000                     _LATC	set	3979
   121  0000                     _INTCON	set	4082
   122  0000                     _OSCTUNE	set	3995
   123  0000                     _OSCCON2	set	4050
   124  0000                     _OSCCON	set	4051
   125  0000                     _T0CONbits	set	4053
   126  0000                     _T0CON	set	4053
   127  0000                     _PIR1bits	set	3998
   128  0000                     _PIE1bits	set	3997
   129  0000                     _INTCONbits	set	4082
   130  0000                     _RCONbits	set	4048
   131  0000                     _TXIF	set	31988
   132  0000                     _TXIE	set	31980
   133  0000                     _RCIF	set	31989
   134  0000                     _TMR0IF	set	32658
   135  001016  00                 	db	0	; dummy byte at the end
   136  0000                     
   137                           ; #config settings
   138                           
   139                           	psect	cinit
   140  0019FE                     __pcinit:
   141                           	callstack 0
   142  0019FE                     start_initialization:
   143                           	callstack 0
   144  0019FE                     __initialization:
   145                           	callstack 0
   146                           
   147                           ; Clear objects allocated to BANK0 (52 bytes)
   148  0019FE  EE00  F060         	lfsr	0,__pbssBANK0
   149  001A02  0E34               	movlw	52
   150  001A04                     clear_0:
   151  001A04  6AEE               	clrf	postinc0,c
   152  001A06  06E8               	decf	wreg,f,c
   153  001A08  E1FD               	bnz	clear_0
   154                           
   155                           ; Clear objects allocated to COMRAM (42 bytes)
   156  001A0A  EE00  F001         	lfsr	0,__pbssCOMRAM
   157  001A0E  0E2A               	movlw	42
   158  001A10                     clear_1:
   159  001A10  6AEE               	clrf	postinc0,c
   160  001A12  06E8               	decf	wreg,f,c
   161  001A14  E1FD               	bnz	clear_1
   162  001A16                     end_of_initialization:
   163                           	callstack 0
   164  001A16                     __end_of__initialization:
   165                           	callstack 0
   166  001A16  9050               	bcf	int$flags,0,c	;clear compiler interrupt flag (level 1)
   167  001A18  9250               	bcf	int$flags,1,c	;clear compiler interrupt flag (level 2)
   168  001A1A  0100               	movlb	0
   169  001A1C  EF57  F00C         	goto	_main	;jump to C main() function
   170                           
   171                           	psect	bssCOMRAM
   172  000001                     __pbssCOMRAM:
   173                           	callstack 0
   174  000001                     gostergeTara@s5:
   175                           	callstack 0
   176  000001                     	ds	4
   177  000005                     gostergeDegerleriGuncelle@s2:
   178                           	callstack 0
   179  000005                     	ds	4
   180  000009                     _gosterge:
   181                           	callstack 0
   182  000009                     	ds	4
   183  00000D                     _tikSayimi:
   184                           	callstack 0
   185  00000D                     	ds	2
   186  00000F                     _sisTimerDisIsleyici:
   187                           	callstack 0
   188  00000F                     	ds	2
   189  000011                     _uartRxKesmeIsleyici:
   190                           	callstack 0
   191  000011                     	ds	2
   192  000013                     _uartTxKesmeIsleyici:
   193                           	callstack 0
   194  000013                     	ds	2
   195  000015                     _timer0KesmeIsleyici:
   196                           	callstack 0
   197  000015                     	ds	2
   198  000017                     _kuyruk2Erisim:
   199                           	callstack 0
   200  000017                     	ds	1
   201  000018                     	ds	1
   202  000019                     _gorevSayimi:
   203                           	callstack 0
   204  000019                     	ds	1
   205  00001A                     _intconYedek@portmacro$F427:
   206                           	callstack 0
   207  00001A                     	ds	1
   208  00001B                     	ds	1
   209  00001C                     	ds	1
   210  00001D                     _kuyruk2:
   211                           	callstack 0
   212  00001D                     	ds	4
   213  000021                     _kuyruk1:
   214                           	callstack 0
   215  000021                     	ds	4
   216  000025                     _cikanListesi:
   217                           	callstack 0
   218  000025                     	ds	4
   219  000029                     _cikanSayimi:
   220                           	callstack 0
   221  000029                     	ds	1
   222  00002A                     _calisanSayimi:
   223                           	callstack 0
   224  00002A                     	ds	1
   225                           
   226                           	psect	bssBANK0
   227  000060                     __pbssBANK0:
   228                           	callstack 0
   229  000060                     _gorevHeap:
   230                           	callstack 0
   231  000060                     	ds	24
   232  000078                     _calisanListesi:
   233                           	callstack 0
   234  000078                     	ds	12
   235  000084                     _k2:
   236                           	callstack 0
   237  000084                     	ds	8
   238  00008C                     _k1:
   239                           	callstack 0
   240  00008C                     	ds	8
   241                           
   242                           	psect	cstackBANK0
   243  000094                     __pcstackBANK0:
   244                           	callstack 0
   245  000094                     uretici2@veri2:
   246                           	callstack 0
   247                           
   248                           ; 4 bytes @ 0x0
   249  000094                     	ds	4
   250  000098                     uretici2@VAZGECIS_BAYRAGI:
   251                           	callstack 0
   252                           
   253                           ; 1 bytes @ 0x4
   254  000098                     	ds	1
   255  000099                     uretici2@s:
   256                           	callstack 0
   257                           
   258                           ; 2 bytes @ 0x5
   259  000099                     	ds	2
   260  00009B                     ??_gorevciyiBaslat:
   261                           
   262                           ; 1 bytes @ 0x7
   263  00009B                     	ds	2
   264  00009D                     gorevciyiBaslat@glo:
   265                           	callstack 0
   266                           
   267                           ; 2 bytes @ 0x9
   268  00009D                     	ds	2
   269  00009F                     gorevciyiBaslat@donus:
   270                           	callstack 0
   271                           
   272                           ; 1 bytes @ 0xB
   273  00009F                     	ds	1
   274  0000A0                     gorevciyiBaslat@s:
   275                           	callstack 0
   276                           
   277                           ; 1 bytes @ 0xC
   278  0000A0                     	ds	1
   279                           
   280                           	psect	cstackCOMRAM
   281  00002B                     __pcstackCOMRAM:
   282                           	callstack 0
   283  00002B                     ??_interruptYonetici:
   284  00002B                     
   285                           ; 1 bytes @ 0x0
   286  00002B                     	ds	14
   287  000039                     ?_tikSayiminiAl:
   288                           	callstack 0
   289  000039                     listeyeEkle@liste:
   290                           	callstack 0
   291  000039                     listedenSil@liste:
   292                           	callstack 0
   293  000039                     uckuyrukIlkle@kuyruk:
   294                           	callstack 0
   295  000039                     uckuyrukKacOgeVar@kuyruk:
   296                           	callstack 0
   297  000039                     uckuyrukDolu@kuyruk:
   298                           	callstack 0
   299  000039                     uckuyrukBos@kuyruk:
   300                           	callstack 0
   301  000039                     uckuyrukKalanKapasite@kuyruk:
   302                           	callstack 0
   303  000039                     timer0KesmeIsleyiciKur@isleyici:
   304                           	callstack 0
   305                           
   306                           ; 2 bytes @ 0xE
   307  000039                     	ds	1
   308  00003A                     ??_uckuyrukKalanKapasite:
   309  00003A                     listeyeEkle@sayim:
   310                           	callstack 0
   311  00003A                     listedenSil@sayim:
   312                           	callstack 0
   313  00003A                     uckuyrukIlkle@veri:
   314                           	callstack 0
   315  00003A                     uckuyrukKuyruktanAl@kuyruk:
   316                           	callstack 0
   317  00003A                     uckuyrukCokluAl@kuyruk:
   318                           	callstack 0
   319                           
   320                           ; 1 bytes @ 0xF
   321  00003A                     	ds	1
   322  00003B                     listeyeEkle@max:
   323                           	callstack 0
   324  00003B                     listedenSil@konum:
   325                           	callstack 0
   326  00003B                     uckuyrukIlkle@kap:
   327                           	callstack 0
   328  00003B                     uckuyrukCokluAl@v:
   329                           	callstack 0
   330  00003B                     sisTimerIlkle@isleyici:
   331                           	callstack 0
   332  00003B                     tikSayiminiAl@sayim:
   333                           	callstack 0
   334                           
   335                           ; 2 bytes @ 0x10
   336  00003B                     	ds	1
   337  00003C                     ??_listedenSil:
   338  00003C                     uckuyrukCokluKuyrukla@kuyruk:
   339                           	callstack 0
   340  00003C                     uckuyrukKuyruktanAl@b:
   341                           	callstack 0
   342  00003C                     uckuyrukCokluAl@kac:
   343                           	callstack 0
   344  00003C                     listeyeEkle@glo:
   345                           	callstack 0
   346                           
   347                           ; 2 bytes @ 0x11
   348  00003C                     	ds	1
   349  00003D                     ??_uckuyrukCokluAl:
   350  00003D                     uckuyrukCokluKuyrukla@v:
   351                           	callstack 0
   352  00003D                     uckuyrukKuyruktanAl@bas:
   353                           	callstack 0
   354                           
   355                           ; 1 bytes @ 0x12
   356  00003D                     	ds	1
   357  00003E                     listeyeEkle@cSayim:
   358                           	callstack 0
   359  00003E                     uckuyrukCokluKuyrukla@kac:
   360                           	callstack 0
   361                           
   362                           ; 1 bytes @ 0x13
   363  00003E                     	ds	1
   364  00003F                     ??_uckuyrukCokluKuyrukla:
   365  00003F                     gorevOlustur@is:
   366                           	callstack 0
   367                           
   368                           ; 2 bytes @ 0x14
   369  00003F                     	ds	1
   370  000040                     uckuyrukCokluAl@sayac:
   371                           	callstack 0
   372                           
   373                           ; 1 bytes @ 0x15
   374  000040                     	ds	1
   375  000041                     gorevOlustur@gkb:
   376                           	callstack 0
   377  000041                     uckuyrukCokluKuyrukla@veri:
   378                           	callstack 0
   379  000041                     uckuyrukCokluAl@kap:
   380                           	callstack 0
   381                           
   382                           ; 1 bytes @ 0x16
   383  000041                     	ds	1
   384  000042                     listedenSil@cSayim:
   385                           	callstack 0
   386  000042                     uckuyrukCokluKuyrukla@sayim:
   387                           	callstack 0
   388  000042                     uckuyrukCokluAl@veri:
   389                           	callstack 0
   390                           
   391                           ; 1 bytes @ 0x17
   392  000042                     	ds	1
   393  000043                     listedenSil@k:
   394                           	callstack 0
   395  000043                     uckuyrukCokluKuyrukla@kap:
   396                           	callstack 0
   397  000043                     uckuyrukCokluAl@sayim:
   398                           	callstack 0
   399                           
   400                           ; 1 bytes @ 0x18
   401  000043                     	ds	1
   402  000044                     uckuyrukCokluKuyrukla@sayac:
   403                           	callstack 0
   404  000044                     uckuyrukCokluAl@sayac_734:
   405                           	callstack 0
   406                           
   407                           ; 2 bytes @ 0x19
   408  000044                     	ds	1
   409  000045                     uckuyrukCokluKuyrukla@konum:
   410                           	callstack 0
   411                           
   412                           ; 1 bytes @ 0x1A
   413  000045                     	ds	1
   414  000046                     uckuyrukCokluAl@bas:
   415                           	callstack 0
   416                           
   417                           ; 1 bytes @ 0x1B
   418  000046                     	ds	1
   419  000047                     uretici1@tutucu:
   420                           	callstack 0
   421  000047                     uretici2@tutucu:
   422                           	callstack 0
   423  000047                     gostergeDegerleriGuncelle@tutucu:
   424                           	callstack 0
   425  000047                     gostergeTara@tutucu:
   426                           	callstack 0
   427                           
   428                           ; 2 bytes @ 0x1C
   429  000047                     	ds	2
   430  000049                     ??_uretici1:
   431  000049                     ??_uretici2:
   432  000049                     ??_gostergeDegerleriGuncelle:
   433  000049                     ??_gostergeTara:
   434                           
   435                           ; 1 bytes @ 0x1E
   436  000049                     	ds	2
   437  00004B                     uretici1@veri1:
   438                           	callstack 0
   439                           
   440                           ; 4 bytes @ 0x20
   441  00004B                     	ds	1
   442  00004C                     gostergeDegerleriGuncelle@b:
   443                           	callstack 0
   444                           
   445                           ; 2 bytes @ 0x21
   446  00004C                     	ds	3
   447  00004F                     uretici1@VAZGECIS_BAYRAGI:
   448                           	callstack 0
   449                           
   450                           ; 1 bytes @ 0x24
   451  00004F                     	ds	1
   452  000050                     
   453                           ; 1 bytes @ 0x25
   454 ;;
   455 ;;Main: autosize = 0, tempsize = 0, incstack = 0, save=0
   456 ;;
   457 ;; *************** function _main *****************
   458 ;; Defined at:
   459 ;;		line 209 in file "dummy.c"
   460 ;; Parameters:    Size  Location     Type
   461 ;;		None
   462 ;; Auto vars:     Size  Location     Type
   463 ;;		None
   464 ;; Return value:  Size  Location     Type
   465 ;;                  1    wreg      void 
   466 ;; Registers used:
   467 ;;		wreg, fsr1l, fsr1h, fsr2l, fsr2h, status,2, status,0, pclath, tosl, tblptrl, tblptrh, tblptru, prodl, prodh, cstack
   468 ;; Tracked objects:
   469 ;;		On entry : 0/0
   470 ;;		On exit  : 3F/0
   471 ;;		Unchanged: 0/0
   472 ;; Data sizes:     COMRAM   BANK0   BANK1   BANK2   BANK3   BANK4   BANK5   BANK6   BANK7   BANK8   BANK9  BANK10  BANK1
      +1  BANK12  BANK13  BANK14  BANK15
   473 ;;      Params:         0       0       0       0       0       0       0       0       0       0       0       0       
      +0       0       0       0       0
   474 ;;      Locals:         0       0       0       0       0       0       0       0       0       0       0       0       
      +0       0       0       0       0
   475 ;;      Temps:          0       0       0       0       0       0       0       0       0       0       0       0       
      +0       0       0       0       0
   476 ;;      Totals:         0       0       0       0       0       0       0       0       0       0       0       0       
      +0       0       0       0       0
   477 ;;Total ram usage:        0 bytes
   478 ;; Hardware stack levels required when called:    8
   479 ;; This function calls:
   480 ;;		_gorevOlustur
   481 ;;		_portGorevciyiBaslat
   482 ;;		_sisOsilatorIlkle
   483 ;;		_uckuyrukIlkle
   484 ;; This function is called by:
   485 ;;		Startup code after reset
   486 ;; This function uses a non-reentrant model
   487 ;;
   488                           
   489                           	psect	text0
   490  0018AE                     __ptext0:
   491                           	callstack 0
   492  0018AE                     _main:
   493                           	callstack 23
   494                           
   495                           ;dummy.c: 211:     sisOsilatorIlkle();
   496                           
   497                           ;incstack = 0
   498  0018AE  EC64  F00D         	call	_sisOsilatorIlkle	;wreg free
   499                           
   500                           ;dummy.c: 213:     uckuyrukIlkle((unsigned char)sizeof(k1), &kuyruk1, k1);
   501  0018B2  0E21               	movlw	low _kuyruk1
   502  0018B4  6E39               	movwf	uckuyrukIlkle@kuyruk^0,c
   503  0018B6  0E8C               	movlw	low _k1
   504  0018B8  6E3A               	movwf	uckuyrukIlkle@veri^0,c
   505  0018BA  0E08               	movlw	8
   506  0018BC  ECCB  F00C         	call	_uckuyrukIlkle
   507                           
   508                           ;dummy.c: 214:     uckuyrukIlkle((unsigned char)sizeof(k2), &kuyruk2, k2);
   509  0018C0  0E1D               	movlw	low _kuyruk2
   510  0018C2  6E39               	movwf	uckuyrukIlkle@kuyruk^0,c
   511  0018C4  0E84               	movlw	low _k2
   512  0018C6  6E3A               	movwf	uckuyrukIlkle@veri^0,c
   513  0018C8  0E08               	movlw	8
   514  0018CA  ECCB  F00C         	call	_uckuyrukIlkle
   515                           
   516                           ;dummy.c: 218:     (&kuyruk2Erisim)->sayim = 1;
   517  0018CE  0E01               	movlw	1
   518  0018D0  6E17               	movwf	_kuyruk2Erisim^0,c
   519                           
   520                           ;dummy.c: 226:     gorevOlustur(uretici1);
   521  0018D2  0E56               	movlw	low _uretici1
   522  0018D4  6E3F               	movwf	gorevOlustur@is^0,c
   523  0018D6  0E13               	movlw	high _uretici1
   524  0018D8  6E40               	movwf	(gorevOlustur@is+1)^0,c
   525  0018DA  EC85  F00C         	call	_gorevOlustur	;wreg free
   526                           
   527                           ;dummy.c: 227:     gorevOlustur(uretici2);
   528  0018DE  0E04               	movlw	low _uretici2
   529  0018E0  6E3F               	movwf	gorevOlustur@is^0,c
   530  0018E2  0E12               	movlw	high _uretici2
   531  0018E4  6E40               	movwf	(gorevOlustur@is+1)^0,c
   532  0018E6  EC85  F00C         	call	_gorevOlustur	;wreg free
   533                           
   534                           ;dummy.c: 228:     gorevOlustur(gostergeDegerleriGuncelle);
   535  0018EA  0E96               	movlw	low _gostergeDegerleriGuncelle
   536  0018EC  6E3F               	movwf	gorevOlustur@is^0,c
   537  0018EE  0E14               	movlw	high _gostergeDegerleriGuncelle
   538  0018F0  6E40               	movwf	(gorevOlustur@is+1)^0,c
   539  0018F2  EC85  F00C         	call	_gorevOlustur	;wreg free
   540                           
   541                           ;dummy.c: 229:     gorevOlustur(gostergeTara);
   542  0018F6  0E18               	movlw	low _gostergeTara
   543  0018F8  6E3F               	movwf	gorevOlustur@is^0,c
   544  0018FA  0E10               	movlw	high _gostergeTara
   545  0018FC  6E40               	movwf	(gorevOlustur@is+1)^0,c
   546  0018FE  EC85  F00C         	call	_gorevOlustur	;wreg free
   547                           
   548                           ;dummy.c: 232:     portGorevciyiBaslat();
   549  001902  EC4C  F00D         	call	_portGorevciyiBaslat	;wreg free
   550                           
   551                           ; BSR set to: 0
   552  001906  EF59  F000         	goto	start
   553  00190A                     __end_of_main:
   554                           	callstack 0
   555                           
   556 ;; *************** function _uckuyrukIlkle *****************
   557 ;; Defined at:
   558 ;;		line 31 in file "../../../../../kaynak/uckuyruk.c"
   559 ;; Parameters:    Size  Location     Type
   560 ;;  kap             1    wreg     const unsigned char 
   561 ;;  kuyruk          1   14[COMRAM] PTR struct .
   562 ;;		 -> kuyruk2(4), kuyruk1(4), 
   563 ;;  veri            1   15[COMRAM] PTR unsigned char 
   564 ;;		 -> k2(8), k1(8), 
   565 ;; Auto vars:     Size  Location     Type
   566 ;;  kap             1   16[COMRAM] const unsigned char 
   567 ;; Return value:  Size  Location     Type
   568 ;;                  1    wreg      void 
   569 ;; Registers used:
   570 ;;		wreg, fsr2l, fsr2h, status,2, status,0
   571 ;; Tracked objects:
   572 ;;		On entry : 0/0
   573 ;;		On exit  : 0/0
   574 ;;		Unchanged: 0/0
   575 ;; Data sizes:     COMRAM   BANK0   BANK1   BANK2   BANK3   BANK4   BANK5   BANK6   BANK7   BANK8   BANK9  BANK10  BANK1
      +1  BANK12  BANK13  BANK14  BANK15
   576 ;;      Params:         2       0       0       0       0       0       0       0       0       0       0       0       
      +0       0       0       0       0
   577 ;;      Locals:         1       0       0       0       0       0       0       0       0       0       0       0       
      +0       0       0       0       0
   578 ;;      Temps:          0       0       0       0       0       0       0       0       0       0       0       0       
      +0       0       0       0       0
   579 ;;      Totals:         3       0       0       0       0       0       0       0       0       0       0       0       
      +0       0       0       0       0
   580 ;;Total ram usage:        3 bytes
   581 ;; Hardware stack levels used:    1
   582 ;; Hardware stack levels required when called:    3
   583 ;; This function calls:
   584 ;;		Nothing
   585 ;; This function is called by:
   586 ;;		_main
   587 ;; This function uses a non-reentrant model
   588 ;;
   589                           
   590                           	psect	text1
   591  001996                     __ptext1:
   592                           	callstack 0
   593  001996                     _uckuyrukIlkle:
   594                           	callstack 27
   595                           
   596                           ; BSR set to: 0
   597                           ;incstack = 0
   598                           ;uckuyrukIlkle@kap stored from wreg
   599  001996  6E3B               	movwf	uckuyrukIlkle@kap^0,c
   600                           
   601                           ;../../../../../kaynak/uckuyruk.c: 31: void uckuyrukIlkle(const unsigned char kap,;../..
      +                          /../../../kaynak/uckuyruk.c: 32:         uckuyruk_t *kuyruk, unsigned char *veri) {;../.
      +                          ./../../../kaynak/uckuyruk.c: 33:  kuyruk->kapasite = kap;
   602  001998  5039               	movf	uckuyrukIlkle@kuyruk^0,w,c
   603  00199A  6ED9               	movwf	fsr2l,c
   604  00199C  6ADA               	clrf	fsr2h,c
   605  00199E  C03B  FFDF         	movff	uckuyrukIlkle@kap,indf2
   606                           
   607                           ;../../../../../kaynak/uckuyruk.c: 34:  kuyruk->bas = 0;
   608  0019A2  5039               	movf	uckuyrukIlkle@kuyruk^0,w,c
   609  0019A4  6ED9               	movwf	fsr2l,c
   610  0019A6  6ADA               	clrf	fsr2h,c
   611  0019A8  0E02               	movlw	2
   612  0019AA  26D9               	addwf	fsr2l,f,c
   613  0019AC  0E00               	movlw	0
   614  0019AE  6EDF               	movwf	indf2,c
   615                           
   616                           ;../../../../../kaynak/uckuyruk.c: 35:  kuyruk->sayim = 0;
   617  0019B0  5039               	movf	uckuyrukIlkle@kuyruk^0,w,c
   618  0019B2  6ED9               	movwf	fsr2l,c
   619  0019B4  6ADA               	clrf	fsr2h,c
   620  0019B6  0E01               	movlw	1
   621  0019B8  26D9               	addwf	fsr2l,f,c
   622  0019BA  0E00               	movlw	0
   623  0019BC  6EDF               	movwf	indf2,c
   624                           
   625                           ;../../../../../kaynak/uckuyruk.c: 36:  kuyruk->veri = veri;
   626  0019BE  5039               	movf	uckuyrukIlkle@kuyruk^0,w,c
   627  0019C0  6ED9               	movwf	fsr2l,c
   628  0019C2  6ADA               	clrf	fsr2h,c
   629  0019C4  0E03               	movlw	3
   630  0019C6  26D9               	addwf	fsr2l,f,c
   631  0019C8  C03A  FFDF         	movff	uckuyrukIlkle@veri,indf2
   632  0019CC  0012               	return		;funcret
   633  0019CE                     __end_of_uckuyrukIlkle:
   634                           	callstack 0
   635                           
   636 ;; *************** function _sisOsilatorIlkle *****************
   637 ;; Defined at:
   638 ;;		line 27 in file "osilator.c"
   639 ;; Parameters:    Size  Location     Type
   640 ;;		None
   641 ;; Auto vars:     Size  Location     Type
   642 ;;		None
   643 ;; Return value:  Size  Location     Type
   644 ;;                  1    wreg      void 
   645 ;; Registers used:
   646 ;;		wreg, status,2
   647 ;; Tracked objects:
   648 ;;		On entry : 0/0
   649 ;;		On exit  : 0/0
   650 ;;		Unchanged: 0/0
   651 ;; Data sizes:     COMRAM   BANK0   BANK1   BANK2   BANK3   BANK4   BANK5   BANK6   BANK7   BANK8   BANK9  BANK10  BANK1
      +1  BANK12  BANK13  BANK14  BANK15
   652 ;;      Params:         0       0       0       0       0       0       0       0       0       0       0       0       
      +0       0       0       0       0
   653 ;;      Locals:         0       0       0       0       0       0       0       0       0       0       0       0       
      +0       0       0       0       0
   654 ;;      Temps:          0       0       0       0       0       0       0       0       0       0       0       0       
      +0       0       0       0       0
   655 ;;      Totals:         0       0       0       0       0       0       0       0       0       0       0       0       
      +0       0       0       0       0
   656 ;;Total ram usage:        0 bytes
   657 ;; Hardware stack levels used:    1
   658 ;; Hardware stack levels required when called:    3
   659 ;; This function calls:
   660 ;;		Nothing
   661 ;; This function is called by:
   662 ;;		_main
   663 ;; This function uses a non-reentrant model
   664 ;;
   665                           
   666                           	psect	text2
   667  001AC8                     __ptext2:
   668                           	callstack 0
   669  001AC8                     _sisOsilatorIlkle:
   670                           	callstack 27
   671                           
   672                           ;osilator.c: 29:     OSCCON = 0b01110011;
   673                           
   674                           ;incstack = 0
   675  001AC8  0E73               	movlw	115
   676  001ACA  6ED3               	movwf	211,c	;volatile
   677                           
   678                           ;osilator.c: 31:     OSCCON2 = 0x04;
   679  001ACC  0E04               	movlw	4
   680  001ACE  6ED2               	movwf	210,c	;volatile
   681                           
   682                           ;osilator.c: 33:     OSCTUNE = 0x00;
   683  001AD0  0E00               	movlw	0
   684  001AD2  6E9B               	movwf	155,c	;volatile
   685  001AD4  0012               	return		;funcret
   686  001AD6                     __end_of_sisOsilatorIlkle:
   687                           	callstack 0
   688                           
   689 ;; *************** function _portGorevciyiBaslat *****************
   690 ;; Defined at:
   691 ;;		line 47 in file "../../../../../kaynak/portlar/mplabx/xc8/pic18/port.c"
   692 ;; Parameters:    Size  Location     Type
   693 ;;		None
   694 ;; Auto vars:     Size  Location     Type
   695 ;;		None
   696 ;; Return value:  Size  Location     Type
   697 ;;                  1    wreg      void 
   698 ;; Registers used:
   699 ;;		wreg, fsr1l, fsr1h, fsr2l, fsr2h, status,2, status,0, pclath, tosl, tblptrl, tblptrh, tblptru, prodl, prodh, cstack
   700 ;; Tracked objects:
   701 ;;		On entry : 0/0
   702 ;;		On exit  : 3F/0
   703 ;;		Unchanged: 0/0
   704 ;; Data sizes:     COMRAM   BANK0   BANK1   BANK2   BANK3   BANK4   BANK5   BANK6   BANK7   BANK8   BANK9  BANK10  BANK1
      +1  BANK12  BANK13  BANK14  BANK15
   705 ;;      Params:         0       0       0       0       0       0       0       0       0       0       0       0       
      +0       0       0       0       0
   706 ;;      Locals:         0       0       0       0       0       0       0       0       0       0       0       0       
      +0       0       0       0       0
   707 ;;      Temps:          0       0       0       0       0       0       0       0       0       0       0       0       
      +0       0       0       0       0
   708 ;;      Totals:         0       0       0       0       0       0       0       0       0       0       0       0       
      +0       0       0       0       0
   709 ;;Total ram usage:        0 bytes
   710 ;; Hardware stack levels used:    1
   711 ;; Hardware stack levels required when called:    7
   712 ;; This function calls:
   713 ;;		_gorevciyiBaslat
   714 ;;		_interruptIlkle
   715 ;;		_sisTimerIlkle
   716 ;; This function is called by:
   717 ;;		_main
   718 ;; This function uses a non-reentrant model
   719 ;;
   720                           
   721                           	psect	text3
   722  001A98                     __ptext3:
   723                           	callstack 0
   724  001A98                     _portGorevciyiBaslat:
   725                           	callstack 23
   726                           
   727                           ;../../../../../kaynak/portlar/mplabx/xc8/pic18/port.c: 49:  interruptIlkle();
   728                           
   729                           ;incstack = 0
   730  001A98  EC7A  F00D         	call	_interruptIlkle	;wreg free
   731                           
   732                           ;../../../../../kaynak/portlar/mplabx/xc8/pic18/port.c: 52:  sisTimerIlkle(sisTikKesmeIs
      +                          leyici);
   733  001A9C  0EEE               	movlw	low _sisTikKesmeIsleyici
   734  001A9E  6E3B               	movwf	sisTimerIlkle@isleyici^0,c
   735  001AA0  0E1A               	movlw	high _sisTikKesmeIsleyici
   736  001AA2  6E3C               	movwf	(sisTimerIlkle@isleyici+1)^0,c
   737  001AA4  ECAB  F00C         	call	_sisTimerIlkle	;wreg free
   738                           
   739                           ;../../../../../kaynak/portlar/mplabx/xc8/pic18/port.c: 55:  INTCONbits.GIEH = 1;;
   740  001AA8  8EF2               	bsf	242,7,c	;volatile
   741                           
   742                           ;../../../../../kaynak/portlar/mplabx/xc8/pic18/port.c: 58:  gorevciyiBaslat();
   743  001AAA  EC7F  F00B         	call	_gorevciyiBaslat	;wreg free
   744                           
   745                           ; BSR set to: 0
   746  001AAE  0012               	return		;funcret
   747  001AB0                     __end_of_portGorevciyiBaslat:
   748                           	callstack 0
   749                           
   750 ;; *************** function _sisTimerIlkle *****************
   751 ;; Defined at:
   752 ;;		line 134 in file "sistimer.c"
   753 ;; Parameters:    Size  Location     Type
   754 ;;  isleyici        2   16[COMRAM] PTR FTN()void 
   755 ;;		 -> sisTikKesmeIsleyici(1), 
   756 ;; Auto vars:     Size  Location     Type
   757 ;;		None
   758 ;; Return value:  Size  Location     Type
   759 ;;                  1    wreg      void 
   760 ;; Registers used:
   761 ;;		wreg, status,2, status,0, cstack
   762 ;; Tracked objects:
   763 ;;		On entry : 0/0
   764 ;;		On exit  : 0/0
   765 ;;		Unchanged: 0/0
   766 ;; Data sizes:     COMRAM   BANK0   BANK1   BANK2   BANK3   BANK4   BANK5   BANK6   BANK7   BANK8   BANK9  BANK10  BANK1
      +1  BANK12  BANK13  BANK14  BANK15
   767 ;;      Params:         2       0       0       0       0       0       0       0       0       0       0       0       
      +0       0       0       0       0
   768 ;;      Locals:         0       0       0       0       0       0       0       0       0       0       0       0       
      +0       0       0       0       0
   769 ;;      Temps:          0       0       0       0       0       0       0       0       0       0       0       0       
      +0       0       0       0       0
   770 ;;      Totals:         2       0       0       0       0       0       0       0       0       0       0       0       
      +0       0       0       0       0
   771 ;;Total ram usage:        2 bytes
   772 ;; Hardware stack levels used:    1
   773 ;; Hardware stack levels required when called:    4
   774 ;; This function calls:
   775 ;;		_timer0KesmeIsleyiciKur
   776 ;; This function is called by:
   777 ;;		_portGorevciyiBaslat
   778 ;; This function uses a non-reentrant model
   779 ;;
   780                           
   781                           	psect	text4
   782  001956                     __ptext4:
   783                           	callstack 0
   784  001956                     _sisTimerIlkle:
   785                           	callstack 25
   786                           
   787                           ;sistimer.c: 135:     T0CON = 0;
   788                           
   789                           ; BSR set to: 0
   790                           ;incstack = 0
   791  001956  0E00               	movlw	0
   792  001958  6ED5               	movwf	213,c	;volatile
   793                           
   794                           ;sistimer.c: 137:     T0CONbits.T08BIT = 0;
   795  00195A  9CD5               	bcf	213,6,c	;volatile
   796                           
   797                           ;sistimer.c: 142:     T0CONbits.T0CS = 0;
   798  00195C  9AD5               	bcf	213,5,c	;volatile
   799                           
   800                           ;sistimer.c: 145:     T0CONbits.PSA = 1;
   801  00195E  86D5               	bsf	213,3,c	;volatile
   802                           
   803                           ;sistimer.c: 154:     TMR0 = (uint16_t) ((uint16_t)((65536)-((( (1000) - ( ( ( 52 ) * ( 
      +                          ( 1 * ( 100 ) ) / ( (16000000 / 4 ) / 1000000 ) ) ) / ( 100 ) ) )* (16000000/1000000))/(
      +                          4*(1)))-1));
   804  001960  0EF0               	movlw	240
   805  001962  6ED7               	movwf	215,c	;volatile
   806  001964  0E93               	movlw	147
   807  001966  6ED6               	movwf	214,c	;volatile
   808                           
   809                           ;sistimer.c: 160:     sisTimerDisIsleyici = isleyici == ((void*)0) ? sisTimerIsleyiciVar
      +                          sayilan : isleyici;
   810  001968  503B               	movf	sisTimerIlkle@isleyici^0,w,c
   811  00196A  103C               	iorwf	(sisTimerIlkle@isleyici+1)^0,w,c
   812  00196C  B4D8               	btfsc	status,2,c
   813  00196E  D005               	goto	l2258
   814  001970  C03B  F00F         	movff	sisTimerIlkle@isleyici,_sisTimerDisIsleyici
   815  001974  C03C  F010         	movff	sisTimerIlkle@isleyici+1,_sisTimerDisIsleyici+1
   816  001978  D004               	goto	l2260
   817  00197A                     l2258:
   818  00197A  0EF8               	movlw	low _sisTimerIsleyiciVarsayilan
   819  00197C  6E0F               	movwf	_sisTimerDisIsleyici^0,c
   820  00197E  0E1A               	movlw	high _sisTimerIsleyiciVarsayilan
   821  001980  6E10               	movwf	(_sisTimerDisIsleyici+1)^0,c
   822  001982                     l2260:
   823                           
   824                           ;sistimer.c: 162:     timer0KesmeIsleyiciKur(sisTimerKesmeIsleyici);
   825  001982  0E5E               	movlw	low _sisTimerKesmeIsleyici
   826  001984  6E39               	movwf	timer0KesmeIsleyiciKur@isleyici^0,c
   827  001986  0E1A               	movlw	high _sisTimerKesmeIsleyici
   828  001988  6E3A               	movwf	(timer0KesmeIsleyiciKur@isleyici+1)^0,c
   829  00198A  EC72  F00D         	call	_timer0KesmeIsleyiciKur	;wreg free
   830                           
   831                           ;sistimer.c: 165:     INTCONbits.TMR0IF = 0;
   832  00198E  94F2               	bcf	242,2,c	;volatile
   833                           
   834                           ;sistimer.c: 166:     INTCONbits.TMR0IE = 1;
   835  001990  8AF2               	bsf	242,5,c	;volatile
   836                           
   837                           ;sistimer.c: 169:     T0CONbits.TMR0ON = 1;
   838  001992  8ED5               	bsf	213,7,c	;volatile
   839  001994  0012               	return		;funcret
   840  001996                     __end_of_sisTimerIlkle:
   841                           	callstack 0
   842                           
   843 ;; *************** function _timer0KesmeIsleyiciKur *****************
   844 ;; Defined at:
   845 ;;		line 38 in file "interrupt.c"
   846 ;; Parameters:    Size  Location     Type
   847 ;;  isleyici        2   14[COMRAM] PTR FTN()void 
   848 ;;		 -> sisTimerKesmeIsleyici(1), 
   849 ;; Auto vars:     Size  Location     Type
   850 ;;		None
   851 ;; Return value:  Size  Location     Type
   852 ;;                  1    wreg      void 
   853 ;; Registers used:
   854 ;;		wreg, status,2, status,0
   855 ;; Tracked objects:
   856 ;;		On entry : 0/0
   857 ;;		On exit  : 0/0
   858 ;;		Unchanged: 0/0
   859 ;; Data sizes:     COMRAM   BANK0   BANK1   BANK2   BANK3   BANK4   BANK5   BANK6   BANK7   BANK8   BANK9  BANK10  BANK1
      +1  BANK12  BANK13  BANK14  BANK15
   860 ;;      Params:         2       0       0       0       0       0       0       0       0       0       0       0       
      +0       0       0       0       0
   861 ;;      Locals:         0       0       0       0       0       0       0       0       0       0       0       0       
      +0       0       0       0       0
   862 ;;      Temps:          0       0       0       0       0       0       0       0       0       0       0       0       
      +0       0       0       0       0
   863 ;;      Totals:         2       0       0       0       0       0       0       0       0       0       0       0       
      +0       0       0       0       0
   864 ;;Total ram usage:        2 bytes
   865 ;; Hardware stack levels used:    1
   866 ;; Hardware stack levels required when called:    3
   867 ;; This function calls:
   868 ;;		Nothing
   869 ;; This function is called by:
   870 ;;		_sisTimerIlkle
   871 ;; This function uses a non-reentrant model
   872 ;;
   873                           
   874                           	psect	text5
   875  001AE4                     __ptext5:
   876                           	callstack 0
   877  001AE4                     _timer0KesmeIsleyiciKur:
   878                           	callstack 25
   879                           
   880                           ;interrupt.c: 39:     timer0KesmeIsleyici = isleyici;
   881                           
   882                           ;incstack = 0
   883  001AE4  C039  F015         	movff	timer0KesmeIsleyiciKur@isleyici,_timer0KesmeIsleyici
   884  001AE8  C03A  F016         	movff	timer0KesmeIsleyiciKur@isleyici+1,_timer0KesmeIsleyici+1
   885  001AEC  0012               	return		;funcret
   886  001AEE                     __end_of_timer0KesmeIsleyiciKur:
   887                           	callstack 0
   888                           
   889 ;; *************** function _interruptIlkle *****************
   890 ;; Defined at:
   891 ;;		line 31 in file "interrupt.c"
   892 ;; Parameters:    Size  Location     Type
   893 ;;		None
   894 ;; Auto vars:     Size  Location     Type
   895 ;;		None
   896 ;; Return value:  Size  Location     Type
   897 ;;                  1    wreg      void 
   898 ;; Registers used:
   899 ;;		None
   900 ;; Tracked objects:
   901 ;;		On entry : 0/0
   902 ;;		On exit  : 0/0
   903 ;;		Unchanged: 0/0
   904 ;; Data sizes:     COMRAM   BANK0   BANK1   BANK2   BANK3   BANK4   BANK5   BANK6   BANK7   BANK8   BANK9  BANK10  BANK1
      +1  BANK12  BANK13  BANK14  BANK15
   905 ;;      Params:         0       0       0       0       0       0       0       0       0       0       0       0       
      +0       0       0       0       0
   906 ;;      Locals:         0       0       0       0       0       0       0       0       0       0       0       0       
      +0       0       0       0       0
   907 ;;      Temps:          0       0       0       0       0       0       0       0       0       0       0       0       
      +0       0       0       0       0
   908 ;;      Totals:         0       0       0       0       0       0       0       0       0       0       0       0       
      +0       0       0       0       0
   909 ;;Total ram usage:        0 bytes
   910 ;; Hardware stack levels used:    1
   911 ;; Hardware stack levels required when called:    3
   912 ;; This function calls:
   913 ;;		Nothing
   914 ;; This function is called by:
   915 ;;		_portGorevciyiBaslat
   916 ;; This function uses a non-reentrant model
   917 ;;
   918                           
   919                           	psect	text6
   920  001AF4                     __ptext6:
   921                           	callstack 0
   922  001AF4                     _interruptIlkle:
   923                           	callstack 26
   924                           
   925                           ;interrupt.c: 34:     RCONbits.IPEN = 0;
   926                           
   927                           ;incstack = 0
   928  001AF4  9ED0               	bcf	208,7,c	;volatile
   929  001AF6  0012               	return		;funcret
   930  001AF8                     __end_of_interruptIlkle:
   931                           	callstack 0
   932                           
   933 ;; *************** function _gorevciyiBaslat *****************
   934 ;; Defined at:
   935 ;;		line 120 in file "../../../../../kaynak/gorev.c"
   936 ;; Parameters:    Size  Location     Type
   937 ;;		None
   938 ;; Auto vars:     Size  Location     Type
   939 ;;  glo             2    9[BANK0 ] PTR struct .
   940 ;;		 -> gorevHeap(24), NULL(0), 
   941 ;;  donus           1   11[BANK0 ] unsigned char 
   942 ;;  s               1   12[BANK0 ] unsigned char 
   943 ;; Return value:  Size  Location     Type
   944 ;;                  1    wreg      void 
   945 ;; Registers used:
   946 ;;		wreg, fsr1l, fsr1h, fsr2l, fsr2h, status,2, status,0, pclath, tosl, tblptrl, tblptrh, tblptru, prodl, prodh, cstack
   947 ;; Tracked objects:
   948 ;;		On entry : 0/0
   949 ;;		On exit  : 3F/0
   950 ;;		Unchanged: 0/0
   951 ;; Data sizes:     COMRAM   BANK0   BANK1   BANK2   BANK3   BANK4   BANK5   BANK6   BANK7   BANK8   BANK9  BANK10  BANK1
      +1  BANK12  BANK13  BANK14  BANK15
   952 ;;      Params:         0       0       0       0       0       0       0       0       0       0       0       0       
      +0       0       0       0       0
   953 ;;      Locals:         0       4       0       0       0       0       0       0       0       0       0       0       
      +0       0       0       0       0
   954 ;;      Temps:          0       2       0       0       0       0       0       0       0       0       0       0       
      +0       0       0       0       0
   955 ;;      Totals:         0       6       0       0       0       0       0       0       0       0       0       0       
      +0       0       0       0       0
   956 ;;Total ram usage:        6 bytes
   957 ;; Hardware stack levels used:    1
   958 ;; Hardware stack levels required when called:    6
   959 ;; This function calls:
   960 ;;		_gostergeDegerleriGuncelle
   961 ;;		_gostergeTara
   962 ;;		_listedenSil
   963 ;;		_listeyeEkle
   964 ;;		_uretici1
   965 ;;		_uretici2
   966 ;; This function is called by:
   967 ;;		_portGorevciyiBaslat
   968 ;; This function uses a non-reentrant model
   969 ;;
   970                           
   971                           	psect	text7
   972  0016FE                     __ptext7:
   973                           	callstack 0
   974  0016FE                     _gorevciyiBaslat:
   975                           	callstack 23
   976                           
   977                           ;../../../../../kaynak/gorev.c: 122:   for(char s = 0; s < gorevSayimi; s++) {
   978                           
   979                           ;incstack = 0
   980                           ;../../../../../kaynak/gorev.c: 121:  while(1) {
   981  0016FE  0E00               	movlw	0
   982  001700  0100               	movlb	0	; () banked
   983  001702  6FA0               	movwf	gorevciyiBaslat@s& (0+255),b
   984  001704  D04A               	goto	l2932
   985  001706                     l2920:
   986                           
   987                           ; BSR set to: 0
   988                           ;../../../../../kaynak/gorev.c: 123:    char donus = calisanListesi[s]->is(calisanListes
      +                          i[s]);
   989  001706  51A0               	movf	gorevciyiBaslat@s& (0+255),w,b
   990  001708  0D02               	mullw	2
   991  00170A  50F3               	movf	243,w,c
   992  00170C  0F78               	addlw	low _calisanListesi
   993  00170E  6ED9               	movwf	fsr2l,c
   994  001710  6ADA               	clrf	fsr2h,c
   995  001712  CFDE F047          	movff	postinc2,gostergeTara@tutucu
   996  001716  CFDD F048          	movff	postdec2,gostergeTara@tutucu+1
   997  00171A  51A0               	movf	gorevciyiBaslat@s& (0+255),w,b
   998  00171C  0D02               	mullw	2
   999  00171E  50F3               	movf	243,w,c
  1000  001720  0F78               	addlw	low _calisanListesi
  1001  001722  6ED9               	movwf	fsr2l,c
  1002  001724  6ADA               	clrf	fsr2h,c
  1003  001726  EE10 F002          	lfsr	1,2
  1004  00172A  50DE               	movf	postinc2,w,c
  1005  00172C  26E1               	addwf	fsr1l,f,c
  1006  00172E  50DD               	movf	postdec2,w,c
  1007  001730  22E2               	addwfc	fsr1h,f,c
  1008  001732  CFE6 F09B          	movff	postinc1,??_gorevciyiBaslat
  1009  001736  CFE5 F09C          	movff	postdec1,??_gorevciyiBaslat+1
  1010  00173A  D801               	call	u1678
  1011  00173C  D009               	goto	u1679
  1012  00173E                     u1678:
  1013  00173E  0005               	push	
  1014  001740  6EFA               	movwf	pclath,c
  1015  001742  519B               	movf	??_gorevciyiBaslat& (0+255),w,b
  1016  001744  6EFD               	movwf	tosl,c
  1017  001746  519C               	movf	(??_gorevciyiBaslat+1)& (0+255),w,b
  1018  001748  6EFE               	movwf	tosh,c
  1019  00174A  6AFF               	clrf	tosu,c
  1020  00174C  50FA               	movf	pclath,w,c
  1021  00174E  0012               	return		;indir
  1022  001750                     u1679:
  1023  001750  0100               	movlb	0	; () banked
  1024  001752  6F9F               	movwf	gorevciyiBaslat@donus& (0+255),b
  1025                           
  1026                           ; BSR set to: 0
  1027                           ;../../../../../kaynak/gorev.c: 124:             if(donus == 1) {
  1028  001754  059F               	decf	gorevciyiBaslat@donus& (0+255),w,b
  1029  001756  A4D8               	btfss	status,2,c
  1030  001758  D01E               	goto	l2930
  1031                           
  1032                           ; BSR set to: 0
  1033                           ;../../../../../kaynak/gorev.c: 128:                 gorevListeOgesi_t glo = calisanList
      +                          esi[s];
  1034  00175A  51A0               	movf	gorevciyiBaslat@s& (0+255),w,b
  1035  00175C  0D02               	mullw	2
  1036  00175E  50F3               	movf	243,w,c
  1037  001760  0F78               	addlw	low _calisanListesi
  1038  001762  6ED9               	movwf	fsr2l,c
  1039  001764  6ADA               	clrf	fsr2h,c
  1040  001766  CFDE F09D          	movff	postinc2,gorevciyiBaslat@glo
  1041  00176A  CFDD F09E          	movff	postdec2,gorevciyiBaslat@glo+1
  1042                           
  1043                           ; BSR set to: 0
  1044                           ;../../../../../kaynak/gorev.c: 131:                 listedenSil(calisanListesi, &calisa
      +                          nSayimi, s);
  1045  00176E  0E78               	movlw	low _calisanListesi
  1046  001770  6E39               	movwf	listedenSil@liste^0,c
  1047  001772  0E2A               	movlw	low _calisanSayimi
  1048  001774  6E3A               	movwf	listedenSil@sayim^0,c
  1049  001776  C0A0  F03B         	movff	gorevciyiBaslat@s,listedenSil@konum
  1050  00177A  EC2A  F00B         	call	_listedenSil	;wreg free
  1051                           
  1052                           ; BSR set to: 0
  1053                           ;../../../../../kaynak/gorev.c: 134:                 listeyeEkle(cikanListesi, &cikanSay
      +                          imi, 2, glo);
  1054  00177E  0E25               	movlw	low _cikanListesi
  1055  001780  6E39               	movwf	listeyeEkle@liste^0,c
  1056  001782  0E29               	movlw	low _cikanSayimi
  1057  001784  6E3A               	movwf	listeyeEkle@sayim^0,c
  1058  001786  0E02               	movlw	2
  1059  001788  6E3B               	movwf	listeyeEkle@max^0,c
  1060  00178A  C09D  F03C         	movff	gorevciyiBaslat@glo,listeyeEkle@glo
  1061  00178E  C09E  F03D         	movff	gorevciyiBaslat@glo+1,listeyeEkle@glo+1
  1062  001792  ECE7  F00C         	call	_listeyeEkle	;wreg free
  1063  001796                     l2930:
  1064                           
  1065                           ;../../../../../kaynak/gorev.c: 136:   }
  1066  001796  0100               	movlb	0	; () banked
  1067  001798  2BA0               	incf	gorevciyiBaslat@s& (0+255),f,b
  1068  00179A                     l2932:
  1069                           
  1070                           ; BSR set to: 0
  1071  00179A  5019               	movf	_gorevSayimi^0,w,c
  1072  00179C  5DA0               	subwf	gorevciyiBaslat@s& (0+255),w,b
  1073  00179E  B0D8               	btfsc	status,0,c
  1074  0017A0  D7AE               	goto	_gorevciyiBaslat
  1075  0017A2  D7B1               	goto	l2920
  1076  0017A4                     __end_of_gorevciyiBaslat:
  1077                           	callstack 0
  1078                           
  1079 ;; *************** function _gostergeTara *****************
  1080 ;; Defined at:
  1081 ;;		line 142 in file "dummy.c"
  1082 ;; Parameters:    Size  Location     Type
  1083 ;;  tutucu          2   28[COMRAM] PTR void 
  1084 ;;		 -> gorevHeap(24), NULL(0), 
  1085 ;; Auto vars:     Size  Location     Type
  1086 ;;  VAZGECIS_BAY    1    0        unsigned char 
  1087 ;; Return value:  Size  Location     Type
  1088 ;;                  1    wreg      unsigned char 
  1089 ;; Registers used:
  1090 ;;		wreg, fsr2l, fsr2h, status,2, status,0, tblptrl, tblptrh, tblptru, cstack
  1091 ;; Tracked objects:
  1092 ;;		On entry : 3F/0
  1093 ;;		On exit  : 0/0
  1094 ;;		Unchanged: 0/0
  1095 ;; Data sizes:     COMRAM   BANK0   BANK1   BANK2   BANK3   BANK4   BANK5   BANK6   BANK7   BANK8   BANK9  BANK10  BANK1
      +1  BANK12  BANK13  BANK14  BANK15
  1096 ;;      Params:         2       0       0       0       0       0       0       0       0       0       0       0       
      +0       0       0       0       0
  1097 ;;      Locals:         1       0       0       0       0       0       0       0       0       0       0       0       
      +0       0       0       0       0
  1098 ;;      Temps:          2       0       0       0       0       0       0       0       0       0       0       0       
      +0       0       0       0       0
  1099 ;;      Totals:         5       0       0       0       0       0       0       0       0       0       0       0       
      +0       0       0       0       0
  1100 ;;Total ram usage:        5 bytes
  1101 ;; Hardware stack levels used:    1
  1102 ;; Hardware stack levels required when called:    4
  1103 ;; This function calls:
  1104 ;;		_tikSayiminiAl
  1105 ;; This function is called by:
  1106 ;;		_main
  1107 ;;		_gorevciyiBaslat
  1108 ;; This function uses a non-reentrant model
  1109 ;;
  1110                           
  1111                           	psect	text8
  1112  001018                     __ptext8:
  1113                           	callstack 0
  1114  001018                     _gostergeTara:
  1115                           	callstack 24
  1116                           
  1117                           ; BSR set to: 0
  1118                           
  1119                           ; BSR set to: 0
  1120                           ;incstack = 0
  1121  001018  D0D4               	goto	l2908
  1122  00101A                     l2812:
  1123                           
  1124                           ; BSR set to: 0
  1125                           ;dummy.c: 162:     LATC = 0;
  1126  00101A  0E00               	movlw	0
  1127  00101C  6E8B               	movwf	139,c	;volatile
  1128                           
  1129                           ;dummy.c: 163:     ANSELC = 0;
  1130  00101E  0E00               	movlw	0
  1131  001020  010F               	movlb	15	; () banked
  1132  001022  6F3A               	movwf	58,b	;volatile
  1133                           
  1134                           ;dummy.c: 164:     TRISC = 0;
  1135  001024  0E00               	movlw	0
  1136  001026  6E94               	movwf	148,c	;volatile
  1137                           
  1138                           ;dummy.c: 167:     LATB = 0;
  1139  001028  0E00               	movlw	0
  1140  00102A  6E8A               	movwf	138,c	;volatile
  1141                           
  1142                           ;dummy.c: 168:     ANSELB = 0xF0;
  1143  00102C  0EF0               	movlw	240
  1144  00102E  6F39               	movwf	57,b	;volatile
  1145                           
  1146                           ;dummy.c: 169:     TRISB = 0xF0;
  1147  001030  0EF0               	movlw	240
  1148  001032  6E93               	movwf	147,c	;volatile
  1149  001034                     l2814:
  1150                           
  1151                           ;dummy.c: 174:         LATB &= 0xF0;
  1152  001034  0EF0               	movlw	240
  1153  001036  168A               	andwf	138,f,c	;volatile
  1154                           
  1155                           ;dummy.c: 175:         LATC = BCDdenOrtakAnoda[gosterge[0]];
  1156  001038  5009               	movf	_gosterge^0,w,c
  1157  00103A  0F01               	addlw	low gostergeTara@BCDdenOrtakAnoda
  1158  00103C  6E49               	movwf	??_gostergeTara^0,c
  1159  00103E  C049  FFF6         	movff	??_gostergeTara,tblptrl
  1160  001042                     	if	1	;There is more than 1 active tblptr byte
  1161  001042  0E10               	movlw	high __smallconst
  1162  001044  6EF7               	movwf	tblptrh,c
  1163  001046                     	endif
  1164  001046                     	if	1	;Program memory is < 0x10000, tblptru is always zero
  1165  001046  6AF8               	clrf	tblptru,c
  1166  001048                     	endif
  1167  001048                     	if	0	;tblptru may be non-zero
  1168  001048                     	endif
  1169  001048  0008               	tblrd		*
  1170  00104A  CFF5 FF8B          	movff	tablat,3979	;volatile
  1171                           
  1172                           ;dummy.c: 176:         LATBbits.LATB0 = 1;
  1173  00104E  808A               	bsf	138,0,c	;volatile
  1174                           
  1175                           ;dummy.c: 177:         ( (sure_t*) &s5 )->kacTik = (5u / (1000u / 1000u)); ( (sure_t*) &
      +                          s5 )->baslangic = tikSayiminiAl(); ( (gorev_t*) tutucu )->sn = 177; case 177:; if(!(( (t
      +                          ikSayiminiAl() - ( (sure_t*) &s5 )->baslangic) >= ( (sure_t*) &s5 )->kacTik ))){ return 
      +                          0; };
  1176  001050  0E00               	movlw	0
  1177  001052  6E04               	movwf	(gostergeTara@s5+3)^0,c
  1178  001054  0E05               	movlw	5
  1179  001056  6E03               	movwf	(gostergeTara@s5+2)^0,c
  1180  001058  EC3E  F00D         	call	_tikSayiminiAl	;wreg free
  1181  00105C  C039  F001         	movff	?_tikSayiminiAl,gostergeTara@s5
  1182  001060  C03A  F002         	movff	?_tikSayiminiAl+1,gostergeTara@s5+1
  1183  001064  C047  FFD9         	movff	gostergeTara@tutucu,fsr2l
  1184  001068  C048  FFDA         	movff	gostergeTara@tutucu+1,fsr2h
  1185  00106C  0EB1               	movlw	177
  1186  00106E  6EDE               	movwf	postinc2,c
  1187  001070  0E00               	movlw	0
  1188  001072  6EDD               	movwf	postdec2,c
  1189  001074                     l2826:
  1190  001074  EC3E  F00D         	call	_tikSayiminiAl	;wreg free
  1191  001078  5001               	movf	gostergeTara@s5^0,w,c
  1192  00107A  5E39               	subwf	?_tikSayiminiAl^0,f,c
  1193  00107C  5002               	movf	(gostergeTara@s5+1)^0,w,c
  1194  00107E  5A3A               	subwfb	(?_tikSayiminiAl+1)^0,f,c
  1195  001080  5003               	movf	(gostergeTara@s5+2)^0,w,c
  1196  001082  5C39               	subwf	?_tikSayiminiAl^0,w,c
  1197  001084  5004               	movf	(gostergeTara@s5+3)^0,w,c
  1198  001086  583A               	subwfb	(?_tikSayiminiAl+1)^0,w,c
  1199  001088  B0D8               	btfsc	status,0,c
  1200  00108A  D002               	goto	l2832
  1201  00108C                     u1570:
  1202  00108C  0E00               	movlw	0
  1203  00108E  0012               	return	
  1204  001090                     l2832:
  1205                           
  1206                           ;dummy.c: 180:         if( (gosterge[3] != 0 || gosterge[2] != 0) || gosterge[1] != 0){
  1207  001090  500C               	movf	(_gosterge+3)^0,w,c
  1208  001092  A4D8               	btfss	status,2,c
  1209  001094  D006               	goto	u1600
  1210  001096  500B               	movf	(_gosterge+2)^0,w,c
  1211  001098  A4D8               	btfss	status,2,c
  1212  00109A  D003               	goto	u1600
  1213  00109C  500A               	movf	(_gosterge+1)^0,w,c
  1214  00109E  B4D8               	btfsc	status,2,c
  1215  0010A0  D02C               	goto	l2856
  1216  0010A2                     u1600:
  1217                           
  1218                           ;dummy.c: 181:             LATB &= 0xF0;
  1219  0010A2  0EF0               	movlw	240
  1220  0010A4  168A               	andwf	138,f,c	;volatile
  1221                           
  1222                           ;dummy.c: 182:             LATC = BCDdenOrtakAnoda[gosterge[1]];
  1223  0010A6  500A               	movf	(_gosterge+1)^0,w,c
  1224  0010A8  0F01               	addlw	low gostergeTara@BCDdenOrtakAnoda
  1225  0010AA  6E49               	movwf	??_gostergeTara^0,c
  1226  0010AC  C049  FFF6         	movff	??_gostergeTara,tblptrl
  1227  0010B0                     	if	1	;There is more than 1 active tblptr byte
  1228  0010B0  0E10               	movlw	high __smallconst
  1229  0010B2  6EF7               	movwf	tblptrh,c
  1230  0010B4                     	endif
  1231  0010B4                     	if	1	;Program memory is < 0x10000, tblptru is always zero
  1232  0010B4  6AF8               	clrf	tblptru,c
  1233  0010B6                     	endif
  1234  0010B6                     	if	0	;tblptru may be non-zero
  1235  0010B6                     	endif
  1236  0010B6  0008               	tblrd		*
  1237  0010B8  CFF5 FF8B          	movff	tablat,3979	;volatile
  1238                           
  1239                           ;dummy.c: 183:             LATBbits.LATB1 = 1;
  1240  0010BC  828A               	bsf	138,1,c	;volatile
  1241                           
  1242                           ;dummy.c: 184:             ( (sure_t*) &s5 )->kacTik = (5u / (1000u / 1000u)); ( (sure_t
      +                          *) &s5 )->baslangic = tikSayiminiAl(); ( (gorev_t*) tutucu )->sn = 184; case 184:; if(!(
      +                          ( (tikSayiminiAl() - ( (sure_t*) &s5 )->baslangic) >= ( (sure_t*) &s5 )->kacTik ))){ ret
      +                          urn 0; };
  1243  0010BE  0E00               	movlw	0
  1244  0010C0  6E04               	movwf	(gostergeTara@s5+3)^0,c
  1245  0010C2  0E05               	movlw	5
  1246  0010C4  6E03               	movwf	(gostergeTara@s5+2)^0,c
  1247  0010C6  EC3E  F00D         	call	_tikSayiminiAl	;wreg free
  1248  0010CA  C039  F001         	movff	?_tikSayiminiAl,gostergeTara@s5
  1249  0010CE  C03A  F002         	movff	?_tikSayiminiAl+1,gostergeTara@s5+1
  1250  0010D2  C047  FFD9         	movff	gostergeTara@tutucu,fsr2l
  1251  0010D6  C048  FFDA         	movff	gostergeTara@tutucu+1,fsr2h
  1252  0010DA  0EB8               	movlw	184
  1253  0010DC  6EDE               	movwf	postinc2,c
  1254  0010DE  0E00               	movlw	0
  1255  0010E0  6EDD               	movwf	postdec2,c
  1256  0010E2                     l2850:
  1257  0010E2  EC3E  F00D         	call	_tikSayiminiAl	;wreg free
  1258  0010E6  5001               	movf	gostergeTara@s5^0,w,c
  1259  0010E8  5E39               	subwf	?_tikSayiminiAl^0,f,c
  1260  0010EA  5002               	movf	(gostergeTara@s5+1)^0,w,c
  1261  0010EC  5A3A               	subwfb	(?_tikSayiminiAl+1)^0,f,c
  1262  0010EE  5003               	movf	(gostergeTara@s5+2)^0,w,c
  1263  0010F0  5C39               	subwf	?_tikSayiminiAl^0,w,c
  1264  0010F2  5004               	movf	(gostergeTara@s5+3)^0,w,c
  1265  0010F4  583A               	subwfb	(?_tikSayiminiAl+1)^0,w,c
  1266  0010F6  A0D8               	btfss	status,0,c
  1267  0010F8  D7C9               	goto	u1570
  1268  0010FA                     l2856:
  1269                           
  1270                           ;dummy.c: 188:         if(gosterge[3] != 0 || gosterge[2] != 0){
  1271  0010FA  500C               	movf	(_gosterge+3)^0,w,c
  1272  0010FC  A4D8               	btfss	status,2,c
  1273  0010FE  D003               	goto	u1630
  1274  001100  500B               	movf	(_gosterge+2)^0,w,c
  1275  001102  B4D8               	btfsc	status,2,c
  1276  001104  D02C               	goto	l2878
  1277  001106                     u1630:
  1278                           
  1279                           ;dummy.c: 189:             LATB &= 0xF0;
  1280  001106  0EF0               	movlw	240
  1281  001108  168A               	andwf	138,f,c	;volatile
  1282                           
  1283                           ;dummy.c: 190:             LATC = BCDdenOrtakAnoda[gosterge[2]];
  1284  00110A  500B               	movf	(_gosterge+2)^0,w,c
  1285  00110C  0F01               	addlw	low gostergeTara@BCDdenOrtakAnoda
  1286  00110E  6E49               	movwf	??_gostergeTara^0,c
  1287  001110  C049  FFF6         	movff	??_gostergeTara,tblptrl
  1288  001114                     	if	1	;There is more than 1 active tblptr byte
  1289  001114  0E10               	movlw	high __smallconst
  1290  001116  6EF7               	movwf	tblptrh,c
  1291  001118                     	endif
  1292  001118                     	if	1	;Program memory is < 0x10000, tblptru is always zero
  1293  001118  6AF8               	clrf	tblptru,c
  1294  00111A                     	endif
  1295  00111A                     	if	0	;tblptru may be non-zero
  1296  00111A                     	endif
  1297  00111A  0008               	tblrd		*
  1298  00111C  CFF5 FF8B          	movff	tablat,3979	;volatile
  1299                           
  1300                           ;dummy.c: 191:             LATBbits.LATB2 = 1;
  1301  001120  848A               	bsf	138,2,c	;volatile
  1302                           
  1303                           ;dummy.c: 192:             ( (sure_t*) &s5 )->kacTik = (5u / (1000u / 1000u)); ( (sure_t
      +                          *) &s5 )->baslangic = tikSayiminiAl(); ( (gorev_t*) tutucu )->sn = 192; case 192:; if(!(
      +                          ( (tikSayiminiAl() - ( (sure_t*) &s5 )->baslangic) >= ( (sure_t*) &s5 )->kacTik ))){ ret
      +                          urn 0; };
  1304  001122  0E00               	movlw	0
  1305  001124  6E04               	movwf	(gostergeTara@s5+3)^0,c
  1306  001126  0E05               	movlw	5
  1307  001128  6E03               	movwf	(gostergeTara@s5+2)^0,c
  1308  00112A  EC3E  F00D         	call	_tikSayiminiAl	;wreg free
  1309  00112E  C039  F001         	movff	?_tikSayiminiAl,gostergeTara@s5
  1310  001132  C03A  F002         	movff	?_tikSayiminiAl+1,gostergeTara@s5+1
  1311  001136  C047  FFD9         	movff	gostergeTara@tutucu,fsr2l
  1312  00113A  C048  FFDA         	movff	gostergeTara@tutucu+1,fsr2h
  1313  00113E  0EC0               	movlw	192
  1314  001140  6EDE               	movwf	postinc2,c
  1315  001142  0E00               	movlw	0
  1316  001144  6EDD               	movwf	postdec2,c
  1317  001146                     l2872:
  1318  001146  EC3E  F00D         	call	_tikSayiminiAl	;wreg free
  1319  00114A  5001               	movf	gostergeTara@s5^0,w,c
  1320  00114C  5E39               	subwf	?_tikSayiminiAl^0,f,c
  1321  00114E  5002               	movf	(gostergeTara@s5+1)^0,w,c
  1322  001150  5A3A               	subwfb	(?_tikSayiminiAl+1)^0,f,c
  1323  001152  5003               	movf	(gostergeTara@s5+2)^0,w,c
  1324  001154  5C39               	subwf	?_tikSayiminiAl^0,w,c
  1325  001156  5004               	movf	(gostergeTara@s5+3)^0,w,c
  1326  001158  583A               	subwfb	(?_tikSayiminiAl+1)^0,w,c
  1327  00115A  A0D8               	btfss	status,0,c
  1328  00115C  D797               	goto	u1570
  1329  00115E                     l2878:
  1330                           
  1331                           ;dummy.c: 196:         if(gosterge[3] != 0){
  1332  00115E  500C               	movf	(_gosterge+3)^0,w,c
  1333  001160  B4D8               	btfsc	status,2,c
  1334  001162  D768               	goto	l2814
  1335                           
  1336                           ;dummy.c: 197:             LATB &= 0xF0;
  1337  001164  0EF0               	movlw	240
  1338  001166  168A               	andwf	138,f,c	;volatile
  1339                           
  1340                           ;dummy.c: 198:             LATC = BCDdenOrtakAnoda[gosterge[3]];
  1341  001168  500C               	movf	(_gosterge+3)^0,w,c
  1342  00116A  0F01               	addlw	low gostergeTara@BCDdenOrtakAnoda
  1343  00116C  6E49               	movwf	??_gostergeTara^0,c
  1344  00116E  C049  FFF6         	movff	??_gostergeTara,tblptrl
  1345  001172                     	if	1	;There is more than 1 active tblptr byte
  1346  001172  0E10               	movlw	high __smallconst
  1347  001174  6EF7               	movwf	tblptrh,c
  1348  001176                     	endif
  1349  001176                     	if	1	;Program memory is < 0x10000, tblptru is always zero
  1350  001176  6AF8               	clrf	tblptru,c
  1351  001178                     	endif
  1352  001178                     	if	0	;tblptru may be non-zero
  1353  001178                     	endif
  1354  001178  0008               	tblrd		*
  1355  00117A  CFF5 FF8B          	movff	tablat,3979	;volatile
  1356                           
  1357                           ;dummy.c: 199:             LATBbits.LATB3 = 1;
  1358  00117E  868A               	bsf	138,3,c	;volatile
  1359                           
  1360                           ;dummy.c: 200:             ( (sure_t*) &s5 )->kacTik = (5u / (1000u / 1000u)); ( (sure_t
      +                          *) &s5 )->baslangic = tikSayiminiAl(); ( (gorev_t*) tutucu )->sn = 200; case 200:; if(!(
      +                          ( (tikSayiminiAl() - ( (sure_t*) &s5 )->baslangic) >= ( (sure_t*) &s5 )->kacTik ))){ ret
      +                          urn 0; };
  1361  001180  0E00               	movlw	0
  1362  001182  6E04               	movwf	(gostergeTara@s5+3)^0,c
  1363  001184  0E05               	movlw	5
  1364  001186  6E03               	movwf	(gostergeTara@s5+2)^0,c
  1365  001188  EC3E  F00D         	call	_tikSayiminiAl	;wreg free
  1366  00118C  C039  F001         	movff	?_tikSayiminiAl,gostergeTara@s5
  1367  001190  C03A  F002         	movff	?_tikSayiminiAl+1,gostergeTara@s5+1
  1368  001194  C047  FFD9         	movff	gostergeTara@tutucu,fsr2l
  1369  001198  C048  FFDA         	movff	gostergeTara@tutucu+1,fsr2h
  1370  00119C  0EC8               	movlw	200
  1371  00119E  6EDE               	movwf	postinc2,c
  1372  0011A0  0E00               	movlw	0
  1373  0011A2  6EDD               	movwf	postdec2,c
  1374  0011A4                     l2892:
  1375  0011A4  EC3E  F00D         	call	_tikSayiminiAl	;wreg free
  1376  0011A8  5001               	movf	gostergeTara@s5^0,w,c
  1377  0011AA  5E39               	subwf	?_tikSayiminiAl^0,f,c
  1378  0011AC  5002               	movf	(gostergeTara@s5+1)^0,w,c
  1379  0011AE  5A3A               	subwfb	(?_tikSayiminiAl+1)^0,f,c
  1380  0011B0  5003               	movf	(gostergeTara@s5+2)^0,w,c
  1381  0011B2  5C39               	subwf	?_tikSayiminiAl^0,w,c
  1382  0011B4  5004               	movf	(gostergeTara@s5+3)^0,w,c
  1383  0011B6  583A               	subwfb	(?_tikSayiminiAl+1)^0,w,c
  1384  0011B8  A0D8               	btfss	status,0,c
  1385  0011BA  D768               	goto	u1570
  1386  0011BC  D73B               	goto	l2814
  1387  0011BE                     l2902:
  1388                           
  1389                           ; BSR set to: 0
  1390  0011BE  0E02               	movlw	2
  1391  0011C0  0012               	return	
  1392  0011C2                     l2908:
  1393                           
  1394                           ; BSR set to: 0
  1395  0011C2  C047  FFD9         	movff	gostergeTara@tutucu,fsr2l
  1396  0011C6  C048  FFDA         	movff	gostergeTara@tutucu+1,fsr2h
  1397  0011CA  CFDE F049          	movff	postinc2,??_gostergeTara
  1398  0011CE  CFDD F04A          	movff	postdec2,??_gostergeTara+1
  1399                           
  1400                           ; Switch on 2 bytes has been partitioned into a top level switch of size 1, and 1 sub-sw
      +                          itches
  1401                           ; Switch size 1, requested type "simple"
  1402                           ; Number of cases is 1, Range of values is 0 to 0
  1403                           ; switch strategies available:
  1404                           ; Name         Instructions Cycles
  1405                           ; simple_byte            4     3 (average)
  1406                           ;	Chosen strategy is simple_byte
  1407  0011D2  504A               	movf	(??_gostergeTara+1)^0,w,c
  1408  0011D4  0A00               	xorlw	0	; case 0
  1409  0011D6  A4D8               	btfss	status,2,c
  1410  0011D8  D013               	goto	l2910
  1411                           
  1412                           ; BSR set to: 0
  1413                           ; Switch size 1, requested type "simple"
  1414                           ; Number of cases is 6, Range of values is 0 to 205
  1415                           ; switch strategies available:
  1416                           ; Name         Instructions Cycles
  1417                           ; simple_byte           19    10 (average)
  1418                           ;	Chosen strategy is simple_byte
  1419  0011DA  5049               	movf	??_gostergeTara^0,w,c
  1420  0011DC  0A00               	xorlw	0	; case 0
  1421  0011DE  B4D8               	btfsc	status,2,c
  1422  0011E0  D71C               	goto	l2812
  1423  0011E2  0AB1               	xorlw	177	; case 177
  1424  0011E4  B4D8               	btfsc	status,2,c
  1425  0011E6  D746               	goto	l2826
  1426  0011E8  0A09               	xorlw	9	; case 184
  1427  0011EA  B4D8               	btfsc	status,2,c
  1428  0011EC  D77A               	goto	l2850
  1429  0011EE  0A78               	xorlw	120	; case 192
  1430  0011F0  B4D8               	btfsc	status,2,c
  1431  0011F2  D7A9               	goto	l2872
  1432  0011F4  0A08               	xorlw	8	; case 200
  1433  0011F6  B4D8               	btfsc	status,2,c
  1434  0011F8  D7D5               	goto	l2892
  1435  0011FA  0A05               	xorlw	5	; case 205
  1436  0011FC  B4D8               	btfsc	status,2,c
  1437  0011FE  D7DF               	goto	l2902
  1438  001200                     l2910:
  1439                           
  1440                           ; BSR set to: 0
  1441  001200  0E01               	movlw	1
  1442  001202  0012               	return		;funcret
  1443  001204                     __end_of_gostergeTara:
  1444                           	callstack 0
  1445                           
  1446 ;; *************** function _gostergeDegerleriGuncelle *****************
  1447 ;; Defined at:
  1448 ;;		line 110 in file "dummy.c"
  1449 ;; Parameters:    Size  Location     Type
  1450 ;;  tutucu          2   28[COMRAM] PTR void 
  1451 ;;		 -> gorevHeap(24), NULL(0), 
  1452 ;; Auto vars:     Size  Location     Type
  1453 ;;  b               2   33[COMRAM] unsigned int 
  1454 ;;  VAZGECIS_BAY    1    0        unsigned char 
  1455 ;; Return value:  Size  Location     Type
  1456 ;;                  1    wreg      unsigned char 
  1457 ;; Registers used:
  1458 ;;		wreg, fsr2l, fsr2h, status,2, status,0, cstack
  1459 ;; Tracked objects:
  1460 ;;		On entry : 3F/0
  1461 ;;		On exit  : 0/0
  1462 ;;		Unchanged: 0/0
  1463 ;; Data sizes:     COMRAM   BANK0   BANK1   BANK2   BANK3   BANK4   BANK5   BANK6   BANK7   BANK8   BANK9  BANK10  BANK1
      +1  BANK12  BANK13  BANK14  BANK15
  1464 ;;      Params:         2       0       0       0       0       0       0       0       0       0       0       0       
      +0       0       0       0       0
  1465 ;;      Locals:         3       0       0       0       0       0       0       0       0       0       0       0       
      +0       0       0       0       0
  1466 ;;      Temps:          2       0       0       0       0       0       0       0       0       0       0       0       
      +0       0       0       0       0
  1467 ;;      Totals:         7       0       0       0       0       0       0       0       0       0       0       0       
      +0       0       0       0       0
  1468 ;;Total ram usage:        7 bytes
  1469 ;; Hardware stack levels used:    1
  1470 ;; Hardware stack levels required when called:    5
  1471 ;; This function calls:
  1472 ;;		_tikSayiminiAl
  1473 ;;		_uckuyrukBos
  1474 ;;		_uckuyrukKuyruktanAl
  1475 ;; This function is called by:
  1476 ;;		_main
  1477 ;;		_gorevciyiBaslat
  1478 ;; This function uses a non-reentrant model
  1479 ;;
  1480                           
  1481                           	psect	text9
  1482  001496                     __ptext9:
  1483                           	callstack 0
  1484  001496                     _gostergeDegerleriGuncelle:
  1485                           	callstack 23
  1486                           
  1487                           ; BSR set to: 0
  1488                           
  1489                           ;incstack = 0
  1490  001496  D066               	goto	l2800
  1491  001498                     l2744:
  1492                           
  1493                           ;dummy.c: 116:         ( (gorev_t*) (tutucu) )->sn = 116; case 116:; if(!(!(uckuyrukBos(
      +                          &kuyruk2)))){ return 0; };
  1494  001498  C047  FFD9         	movff	gostergeDegerleriGuncelle@tutucu,fsr2l
  1495  00149C  C048  FFDA         	movff	gostergeDegerleriGuncelle@tutucu+1,fsr2h
  1496  0014A0  0E74               	movlw	116
  1497  0014A2  6EDE               	movwf	postinc2,c
  1498  0014A4  0E00               	movlw	0
  1499  0014A6  6EDD               	movwf	postdec2,c
  1500  0014A8                     l2746:
  1501  0014A8  0E1D               	movlw	low _kuyruk2
  1502  0014AA  6E39               	movwf	uckuyrukBos@kuyruk^0,c
  1503  0014AC  EC58  F00D         	call	_uckuyrukBos	;wreg free
  1504  0014B0  0900               	iorlw	0
  1505  0014B2  B4D8               	btfsc	status,2,c
  1506  0014B4  D002               	goto	l2752
  1507  0014B6                     u1520:
  1508  0014B6  0E00               	movlw	0
  1509  0014B8  0012               	return	
  1510  0014BA                     l2752:
  1511                           
  1512                           ;dummy.c: 118:         unsigned b = (unsigned) uckuyrukKuyruktanAl(&kuyruk2);
  1513  0014BA  0E1D               	movlw	low _kuyruk2
  1514  0014BC  6E3A               	movwf	uckuyrukKuyruktanAl@kuyruk^0,c
  1515  0014BE  EC23  F00C         	call	_uckuyrukKuyruktanAl	;wreg free
  1516  0014C2  6E49               	movwf	??_gostergeDegerleriGuncelle^0,c
  1517  0014C4  5049               	movf	??_gostergeDegerleriGuncelle^0,w,c
  1518  0014C6  6E4C               	movwf	gostergeDegerleriGuncelle@b^0,c
  1519  0014C8  6A4D               	clrf	(gostergeDegerleriGuncelle@b+1)^0,c
  1520                           
  1521                           ;dummy.c: 120:         gosterge[3] = 0;
  1522  0014CA  0E00               	movlw	0
  1523  0014CC  6E0C               	movwf	(_gosterge+3)^0,c
  1524                           
  1525                           ;dummy.c: 121:         while(b > 999){
  1526  0014CE  D005               	goto	l2760
  1527  0014D0                     l2756:
  1528                           
  1529                           ;dummy.c: 122:             b -= 1000;
  1530  0014D0  0EE8               	movlw	232
  1531  0014D2  5E4C               	subwf	gostergeDegerleriGuncelle@b^0,f,c
  1532  0014D4  0E03               	movlw	3
  1533  0014D6  5A4D               	subwfb	(gostergeDegerleriGuncelle@b+1)^0,f,c
  1534                           
  1535                           ;dummy.c: 123:             gosterge[3]++;
  1536  0014D8  2A0C               	incf	(_gosterge+3)^0,f,c
  1537  0014DA                     l2760:
  1538                           
  1539                           ;dummy.c: 121:         while(b > 999){
  1540  0014DA  0EE8               	movlw	232
  1541  0014DC  5C4C               	subwf	gostergeDegerleriGuncelle@b^0,w,c
  1542  0014DE  0E03               	movlw	3
  1543  0014E0  584D               	subwfb	(gostergeDegerleriGuncelle@b+1)^0,w,c
  1544  0014E2  B0D8               	btfsc	status,0,c
  1545  0014E4  D7F5               	goto	l2756
  1546                           
  1547                           ;dummy.c: 125:         gosterge[2] = 0;
  1548  0014E6  0E00               	movlw	0
  1549  0014E8  6E0B               	movwf	(_gosterge+2)^0,c
  1550                           
  1551                           ;dummy.c: 126:         while(b > 99){
  1552  0014EA  D005               	goto	l2768
  1553  0014EC                     l2764:
  1554                           
  1555                           ;dummy.c: 127:             b -= 100;
  1556  0014EC  0E64               	movlw	100
  1557  0014EE  5E4C               	subwf	gostergeDegerleriGuncelle@b^0,f,c
  1558  0014F0  0E00               	movlw	0
  1559  0014F2  5A4D               	subwfb	(gostergeDegerleriGuncelle@b+1)^0,f,c
  1560                           
  1561                           ;dummy.c: 128:             gosterge[2]++;
  1562  0014F4  2A0B               	incf	(_gosterge+2)^0,f,c
  1563  0014F6                     l2768:
  1564                           
  1565                           ;dummy.c: 126:         while(b > 99){
  1566  0014F6  504D               	movf	(gostergeDegerleriGuncelle@b+1)^0,w,c
  1567  0014F8  E1F9               	bnz	l2764
  1568  0014FA  0E64               	movlw	100
  1569  0014FC  5C4C               	subwf	gostergeDegerleriGuncelle@b^0,w,c
  1570  0014FE  B0D8               	btfsc	status,0,c
  1571  001500  D7F5               	goto	l2764
  1572                           
  1573                           ;dummy.c: 130:         gosterge[1] = 0;
  1574  001502  0E00               	movlw	0
  1575  001504  6E0A               	movwf	(_gosterge+1)^0,c
  1576                           
  1577                           ;dummy.c: 131:         while(b > 9){
  1578  001506  D005               	goto	l2776
  1579  001508                     l2772:
  1580                           
  1581                           ;dummy.c: 132:             b -= 10;
  1582  001508  0E0A               	movlw	10
  1583  00150A  5E4C               	subwf	gostergeDegerleriGuncelle@b^0,f,c
  1584  00150C  0E00               	movlw	0
  1585  00150E  5A4D               	subwfb	(gostergeDegerleriGuncelle@b+1)^0,f,c
  1586                           
  1587                           ;dummy.c: 133:             gosterge[1]++;
  1588  001510  2A0A               	incf	(_gosterge+1)^0,f,c
  1589  001512                     l2776:
  1590                           
  1591                           ;dummy.c: 131:         while(b > 9){
  1592  001512  504D               	movf	(gostergeDegerleriGuncelle@b+1)^0,w,c
  1593  001514  E1F9               	bnz	l2772
  1594  001516  0E0A               	movlw	10
  1595  001518  5C4C               	subwf	gostergeDegerleriGuncelle@b^0,w,c
  1596  00151A  B0D8               	btfsc	status,0,c
  1597  00151C  D7F5               	goto	l2772
  1598                           
  1599                           ;dummy.c: 135:         gosterge[0] = (char)(b & 0xFF);
  1600  00151E  C04C  F009         	movff	gostergeDegerleriGuncelle@b,_gosterge
  1601                           
  1602                           ;dummy.c: 137:         ( (sure_t*) &s2 )->kacTik = (1000 / (1000u / 1000u)); ( (sure_t*)
      +                           &s2 )->baslangic = tikSayiminiAl(); ( (gorev_t*) tutucu )->sn = 137; case 137:; if(!(( 
      +                          (tikSayiminiAl() - ( (sure_t*) &s2 )->baslangic) >= ( (sure_t*) &s2 )->kacTik ))){ retur
      +                          n 0; };
  1603  001522  0E03               	movlw	3
  1604  001524  6E08               	movwf	(gostergeDegerleriGuncelle@s2+3)^0,c
  1605  001526  0EE8               	movlw	232
  1606  001528  6E07               	movwf	(gostergeDegerleriGuncelle@s2+2)^0,c
  1607  00152A  EC3E  F00D         	call	_tikSayiminiAl	;wreg free
  1608  00152E  C039  F005         	movff	?_tikSayiminiAl,gostergeDegerleriGuncelle@s2
  1609  001532  C03A  F006         	movff	?_tikSayiminiAl+1,gostergeDegerleriGuncelle@s2+1
  1610  001536  C047  FFD9         	movff	gostergeDegerleriGuncelle@tutucu,fsr2l
  1611  00153A  C048  FFDA         	movff	gostergeDegerleriGuncelle@tutucu+1,fsr2h
  1612  00153E  0E89               	movlw	137
  1613  001540  6EDE               	movwf	postinc2,c
  1614  001542  0E00               	movlw	0
  1615  001544  6EDD               	movwf	postdec2,c
  1616  001546                     l2784:
  1617  001546  EC3E  F00D         	call	_tikSayiminiAl	;wreg free
  1618  00154A  5005               	movf	gostergeDegerleriGuncelle@s2^0,w,c
  1619  00154C  5E39               	subwf	?_tikSayiminiAl^0,f,c
  1620  00154E  5006               	movf	(gostergeDegerleriGuncelle@s2+1)^0,w,c
  1621  001550  5A3A               	subwfb	(?_tikSayiminiAl+1)^0,f,c
  1622  001552  5007               	movf	(gostergeDegerleriGuncelle@s2+2)^0,w,c
  1623  001554  5C39               	subwf	?_tikSayiminiAl^0,w,c
  1624  001556  5008               	movf	(gostergeDegerleriGuncelle@s2+3)^0,w,c
  1625  001558  583A               	subwfb	(?_tikSayiminiAl+1)^0,w,c
  1626  00155A  A0D8               	btfss	status,0,c
  1627  00155C  D7AC               	goto	u1520
  1628  00155E  D79C               	goto	l2744
  1629  001560                     l2794:
  1630                           
  1631                           ; BSR set to: 0
  1632  001560  0E02               	movlw	2
  1633  001562  0012               	return	
  1634  001564                     l2800:
  1635                           
  1636                           ; BSR set to: 0
  1637  001564  C047  FFD9         	movff	gostergeDegerleriGuncelle@tutucu,fsr2l
  1638  001568  C048  FFDA         	movff	gostergeDegerleriGuncelle@tutucu+1,fsr2h
  1639  00156C  CFDE F049          	movff	postinc2,??_gostergeDegerleriGuncelle
  1640  001570  CFDD F04A          	movff	postdec2,??_gostergeDegerleriGuncelle+1
  1641                           
  1642                           ; Switch on 2 bytes has been partitioned into a top level switch of size 1, and 1 sub-sw
      +                          itches
  1643                           ; Switch size 1, requested type "simple"
  1644                           ; Number of cases is 1, Range of values is 0 to 0
  1645                           ; switch strategies available:
  1646                           ; Name         Instructions Cycles
  1647                           ; simple_byte            4     3 (average)
  1648                           ;	Chosen strategy is simple_byte
  1649  001574  504A               	movf	(??_gostergeDegerleriGuncelle+1)^0,w,c
  1650  001576  0A00               	xorlw	0	; case 0
  1651  001578  A4D8               	btfss	status,2,c
  1652  00157A  D00D               	goto	l2802
  1653                           
  1654                           ; BSR set to: 0
  1655                           ; Switch size 1, requested type "simple"
  1656                           ; Number of cases is 4, Range of values is 0 to 139
  1657                           ; switch strategies available:
  1658                           ; Name         Instructions Cycles
  1659                           ; simple_byte           13     7 (average)
  1660                           ;	Chosen strategy is simple_byte
  1661  00157C  5049               	movf	??_gostergeDegerleriGuncelle^0,w,c
  1662  00157E  0A00               	xorlw	0	; case 0
  1663  001580  B4D8               	btfsc	status,2,c
  1664  001582  D78A               	goto	l2744
  1665  001584  0A74               	xorlw	116	; case 116
  1666  001586  B4D8               	btfsc	status,2,c
  1667  001588  D78F               	goto	l2746
  1668  00158A  0AFD               	xorlw	253	; case 137
  1669  00158C  B4D8               	btfsc	status,2,c
  1670  00158E  D7DB               	goto	l2784
  1671  001590  0A02               	xorlw	2	; case 139
  1672  001592  B4D8               	btfsc	status,2,c
  1673  001594  D7E5               	goto	l2794
  1674  001596                     l2802:
  1675                           
  1676                           ; BSR set to: 0
  1677  001596  0E01               	movlw	1
  1678  001598  0012               	return		;funcret
  1679  00159A                     __end_of_gostergeDegerleriGuncelle:
  1680                           	callstack 0
  1681                           
  1682 ;; *************** function _uretici1 *****************
  1683 ;; Defined at:
  1684 ;;		line 49 in file "dummy.c"
  1685 ;; Parameters:    Size  Location     Type
  1686 ;;  tutucu          2   28[COMRAM] PTR void 
  1687 ;;		 -> gorevHeap(24), NULL(0), 
  1688 ;; Auto vars:     Size  Location     Type
  1689 ;;  veri1           4   32[COMRAM] const unsigned char [4]
  1690 ;;  VAZGECIS_BAY    1   36[COMRAM] unsigned char 
  1691 ;; Return value:  Size  Location     Type
  1692 ;;                  1    wreg      unsigned char 
  1693 ;; Registers used:
  1694 ;;		wreg, fsr1l, fsr1h, fsr2l, fsr2h, status,2, status,0, tblptrl, tblptrh, tblptru, cstack
  1695 ;; Tracked objects:
  1696 ;;		On entry : 3F/0
  1697 ;;		On exit  : 0/0
  1698 ;;		Unchanged: 0/0
  1699 ;; Data sizes:     COMRAM   BANK0   BANK1   BANK2   BANK3   BANK4   BANK5   BANK6   BANK7   BANK8   BANK9  BANK10  BANK1
      +1  BANK12  BANK13  BANK14  BANK15
  1700 ;;      Params:         2       0       0       0       0       0       0       0       0       0       0       0       
      +0       0       0       0       0
  1701 ;;      Locals:         5       0       0       0       0       0       0       0       0       0       0       0       
      +0       0       0       0       0
  1702 ;;      Temps:          2       0       0       0       0       0       0       0       0       0       0       0       
      +0       0       0       0       0
  1703 ;;      Totals:         9       0       0       0       0       0       0       0       0       0       0       0       
      +0       0       0       0       0
  1704 ;;Total ram usage:        9 bytes
  1705 ;; Hardware stack levels used:    1
  1706 ;; Hardware stack levels required when called:    5
  1707 ;; This function calls:
  1708 ;;		_uckuyrukCokluKuyrukla
  1709 ;;		_uckuyrukDolu
  1710 ;; This function is called by:
  1711 ;;		_main
  1712 ;;		_gorevciyiBaslat
  1713 ;; This function uses a non-reentrant model
  1714 ;;
  1715                           
  1716                           	psect	text10
  1717  001356                     __ptext10:
  1718                           	callstack 0
  1719  001356                     _uretici1:
  1720                           	callstack 23
  1721                           
  1722                           ; BSR set to: 0
  1723                           ;dummy.c: 51:     const unsigned char veri1[] = { 23, 34, 54, 87 };
  1724                           
  1725                           ;incstack = 0
  1726  001356  0E12               	movlw	low uretici1@F6092
  1727  001358  6EF6               	movwf	tblptrl,c
  1728  00135A                     	if	1	;There is more than 1 active tblptr byte
  1729  00135A  0E10               	movlw	high uretici1@F6092
  1730  00135C  6EF7               	movwf	tblptrh,c
  1731  00135E                     	endif
  1732  00135E                     	if	1	;There are 3 active tblptr bytes
  1733  00135E  0E00               	movlw	low (uretici1@F6092 shr (0+16))
  1734  001360  6EF8               	movwf	tblptru,c
  1735  001362                     	endif
  1736  001362  0009               	tblrd		*+
  1737  001364  CFF5 F04B          	movff	tablat,uretici1@veri1
  1738  001368  0009               	tblrd		*+
  1739  00136A  CFF5 F04C          	movff	tablat,uretici1@veri1+1
  1740  00136E  0009               	tblrd		*+
  1741  001370  CFF5 F04D          	movff	tablat,uretici1@veri1+2
  1742  001374  000A               	tblrd		*-
  1743  001376  CFF5 F04E          	movff	tablat,uretici1@veri1+3
  1744                           
  1745                           ; BSR set to: 0
  1746                           ;dummy.c: 53:  char VAZGECIS_BAYRAGI = 1; switch(( (gorev_t*) tutucu )->sn) { case 0:;
  1747  00137A  0E01               	movlw	1
  1748  00137C  6E4F               	movwf	uretici1@VAZGECIS_BAYRAGI^0,c
  1749  00137E  D064               	goto	l2642
  1750  001380                     l2578:
  1751                           
  1752                           ;dummy.c: 57:         ( (gorev_t*) (tutucu) )->sn = 57; case 57:; if(!(!(uckuyrukDolu(&k
      +                          uyruk1)))){ return 0; };
  1753  001380  C047  FFD9         	movff	uretici1@tutucu,fsr2l
  1754  001384  C048  FFDA         	movff	uretici1@tutucu+1,fsr2h
  1755  001388  0E39               	movlw	57
  1756  00138A  6EDE               	movwf	postinc2,c
  1757  00138C  0E00               	movlw	0
  1758  00138E  6EDD               	movwf	postdec2,c
  1759  001390                     l2580:
  1760  001390  0E21               	movlw	low _kuyruk1
  1761  001392  6E39               	movwf	uckuyrukDolu@kuyruk^0,c
  1762  001394  EC10  F00D         	call	_uckuyrukDolu	;wreg free
  1763  001398  0900               	iorlw	0
  1764  00139A  B4D8               	btfsc	status,2,c
  1765  00139C  D002               	goto	l2586
  1766  00139E                     u1390:
  1767  00139E  0E00               	movlw	0
  1768  0013A0  0012               	return	
  1769  0013A2                     l2586:
  1770                           
  1771                           ;dummy.c: 59:         ( (gorev_t*) (tutucu) )->sn = 59; case 59:; if(!(!(uckuyrukCokluKu
      +                          yrukla(&kuyruk1, veri1, 4) == 0))){ return 0; };
  1772  0013A2  C047  FFD9         	movff	uretici1@tutucu,fsr2l
  1773  0013A6  C048  FFDA         	movff	uretici1@tutucu+1,fsr2h
  1774  0013AA  0E3B               	movlw	59
  1775  0013AC  6EDE               	movwf	postinc2,c
  1776  0013AE  0E00               	movlw	0
  1777  0013B0  6EDD               	movwf	postdec2,c
  1778  0013B2                     l2588:
  1779  0013B2  0E21               	movlw	low _kuyruk1
  1780  0013B4  6E3C               	movwf	uckuyrukCokluKuyrukla@kuyruk^0,c
  1781  0013B6  0E4B               	movlw	low uretici1@veri1
  1782  0013B8  6E3D               	movwf	uckuyrukCokluKuyrukla@v^0,c
  1783  0013BA  0E04               	movlw	4
  1784  0013BC  6E3E               	movwf	uckuyrukCokluKuyrukla@kac^0,c
  1785  0013BE  ECD2  F00B         	call	_uckuyrukCokluKuyrukla	;wreg free
  1786  0013C2  0900               	iorlw	0
  1787  0013C4  B4D8               	btfsc	status,2,c
  1788  0013C6  D7EB               	goto	u1390
  1789  0013C8  C047  FFD9         	movff	uretici1@tutucu,fsr2l
  1790  0013CC  C048  FFDA         	movff	uretici1@tutucu+1,fsr2h
  1791  0013D0  0E3E               	movlw	62
  1792  0013D2  6EDE               	movwf	postinc2,c
  1793  0013D4  0E00               	movlw	0
  1794  0013D6  6EDD               	movwf	postdec2,c
  1795  0013D8                     l2596:
  1796  0013D8  5017               	movf	_kuyruk2Erisim^0,w,c
  1797  0013DA  B4D8               	btfsc	status,2,c
  1798  0013DC  D7E0               	goto	u1390
  1799  0013DE  0617               	decf	_kuyruk2Erisim^0,f,c
  1800                           
  1801                           ;dummy.c: 64:         ( (gorev_t*) (tutucu) )->sn = 64; case 64:; if(!(!(uckuyrukDolu(&k
      +                          uyruk2)))){ return 0; };
  1802  0013E0  C047  FFD9         	movff	uretici1@tutucu,fsr2l
  1803  0013E4  C048  FFDA         	movff	uretici1@tutucu+1,fsr2h
  1804  0013E8  0E40               	movlw	64
  1805  0013EA  6EDE               	movwf	postinc2,c
  1806  0013EC  0E00               	movlw	0
  1807  0013EE  6EDD               	movwf	postdec2,c
  1808  0013F0                     l2606:
  1809  0013F0  0E1D               	movlw	low _kuyruk2
  1810  0013F2  6E39               	movwf	uckuyrukDolu@kuyruk^0,c
  1811  0013F4  EC10  F00D         	call	_uckuyrukDolu	;wreg free
  1812  0013F8  0900               	iorlw	0
  1813  0013FA  A4D8               	btfss	status,2,c
  1814  0013FC  D7D0               	goto	u1390
  1815                           
  1816                           ;dummy.c: 66:         ( (gorev_t*) (tutucu) )->sn = 66; case 66:; if(!(!(uckuyrukCokluKu
      +                          yrukla(&kuyruk2, veri1, 4) == 0))){ return 0; };
  1817  0013FE  C047  FFD9         	movff	uretici1@tutucu,fsr2l
  1818  001402  C048  FFDA         	movff	uretici1@tutucu+1,fsr2h
  1819  001406  0E42               	movlw	66
  1820  001408  6EDE               	movwf	postinc2,c
  1821  00140A  0E00               	movlw	0
  1822  00140C  6EDD               	movwf	postdec2,c
  1823  00140E                     l2614:
  1824  00140E  0E1D               	movlw	low _kuyruk2
  1825  001410  6E3C               	movwf	uckuyrukCokluKuyrukla@kuyruk^0,c
  1826  001412  0E4B               	movlw	low uretici1@veri1
  1827  001414  6E3D               	movwf	uckuyrukCokluKuyrukla@v^0,c
  1828  001416  0E04               	movlw	4
  1829  001418  6E3E               	movwf	uckuyrukCokluKuyrukla@kac^0,c
  1830  00141A  ECD2  F00B         	call	_uckuyrukCokluKuyrukla	;wreg free
  1831  00141E  0900               	iorlw	0
  1832  001420  B4D8               	btfsc	status,2,c
  1833  001422  D7BD               	goto	u1390
  1834                           
  1835                           ;dummy.c: 69:         ++(&kuyruk2Erisim)->sayim;;
  1836  001424  2A17               	incf	_kuyruk2Erisim^0,f,c
  1837                           
  1838                           ;dummy.c: 72:         VAZGECIS_BAYRAGI = 0; ( (gorev_t*) tutucu )->sn = 72; case 72:; if
      +                          (VAZGECIS_BAYRAGI == 0){ return 3; };
  1839  001426  0E00               	movlw	0
  1840  001428  6E4F               	movwf	uretici1@VAZGECIS_BAYRAGI^0,c
  1841  00142A  C047  FFD9         	movff	uretici1@tutucu,fsr2l
  1842  00142E  C048  FFDA         	movff	uretici1@tutucu+1,fsr2h
  1843  001432  0E48               	movlw	72
  1844  001434  6EDE               	movwf	postinc2,c
  1845  001436  0E00               	movlw	0
  1846  001438  6EDD               	movwf	postdec2,c
  1847  00143A                     l2626:
  1848  00143A  504F               	movf	uretici1@VAZGECIS_BAYRAGI^0,w,c
  1849  00143C  A4D8               	btfss	status,2,c
  1850  00143E  D7A0               	goto	l2578
  1851  001440  0E03               	movlw	3
  1852  001442  0012               	return	
  1853  001444                     l2636:
  1854                           
  1855                           ; BSR set to: 0
  1856  001444  0E02               	movlw	2
  1857  001446  0012               	return	
  1858  001448                     l2642:
  1859                           
  1860                           ; BSR set to: 0
  1861  001448  C047  FFD9         	movff	uretici1@tutucu,fsr2l
  1862  00144C  C048  FFDA         	movff	uretici1@tutucu+1,fsr2h
  1863  001450  CFDE F049          	movff	postinc2,??_uretici1
  1864  001454  CFDD F04A          	movff	postdec2,??_uretici1+1
  1865                           
  1866                           ; Switch on 2 bytes has been partitioned into a top level switch of size 1, and 1 sub-sw
      +                          itches
  1867                           ; Switch size 1, requested type "simple"
  1868                           ; Number of cases is 1, Range of values is 0 to 0
  1869                           ; switch strategies available:
  1870                           ; Name         Instructions Cycles
  1871                           ; simple_byte            4     3 (average)
  1872                           ;	Chosen strategy is simple_byte
  1873  001458  504A               	movf	(??_uretici1+1)^0,w,c
  1874  00145A  0A00               	xorlw	0	; case 0
  1875  00145C  A4D8               	btfss	status,2,c
  1876  00145E  D019               	goto	l2644
  1877                           
  1878                           ; BSR set to: 0
  1879                           ; Switch size 1, requested type "simple"
  1880                           ; Number of cases is 8, Range of values is 0 to 75
  1881                           ; switch strategies available:
  1882                           ; Name         Instructions Cycles
  1883                           ; simple_byte           25    13 (average)
  1884                           ;	Chosen strategy is simple_byte
  1885  001460  5049               	movf	??_uretici1^0,w,c
  1886  001462  0A00               	xorlw	0	; case 0
  1887  001464  B4D8               	btfsc	status,2,c
  1888  001466  D78C               	goto	l2578
  1889  001468  0A39               	xorlw	57	; case 57
  1890  00146A  B4D8               	btfsc	status,2,c
  1891  00146C  D791               	goto	l2580
  1892  00146E  0A02               	xorlw	2	; case 59
  1893  001470  B4D8               	btfsc	status,2,c
  1894  001472  D79F               	goto	l2588
  1895  001474  0A05               	xorlw	5	; case 62
  1896  001476  B4D8               	btfsc	status,2,c
  1897  001478  D7AF               	goto	l2596
  1898  00147A  0A7E               	xorlw	126	; case 64
  1899  00147C  B4D8               	btfsc	status,2,c
  1900  00147E  D7B8               	goto	l2606
  1901  001480  0A02               	xorlw	2	; case 66
  1902  001482  B4D8               	btfsc	status,2,c
  1903  001484  D7C4               	goto	l2614
  1904  001486  0A0A               	xorlw	10	; case 72
  1905  001488  B4D8               	btfsc	status,2,c
  1906  00148A  D7D7               	goto	l2626
  1907  00148C  0A03               	xorlw	3	; case 75
  1908  00148E  B4D8               	btfsc	status,2,c
  1909  001490  D7D9               	goto	l2636
  1910  001492                     l2644:
  1911                           
  1912                           ; BSR set to: 0
  1913  001492  0E01               	movlw	1
  1914  001494  0012               	return		;funcret
  1915  001496                     __end_of_uretici1:
  1916                           	callstack 0
  1917                           
  1918 ;; *************** function _uretici2 *****************
  1919 ;; Defined at:
  1920 ;;		line 78 in file "dummy.c"
  1921 ;; Parameters:    Size  Location     Type
  1922 ;;  tutucu          2   28[COMRAM] PTR void 
  1923 ;;		 -> gorevHeap(24), NULL(0), 
  1924 ;; Auto vars:     Size  Location     Type
  1925 ;;  s               2    5[BANK0 ] int 
  1926 ;;  veri2           4    0[BANK0 ] unsigned char [4]
  1927 ;;  VAZGECIS_BAY    1    4[BANK0 ] unsigned char 
  1928 ;; Return value:  Size  Location     Type
  1929 ;;                  1    wreg      unsigned char 
  1930 ;; Registers used:
  1931 ;;		wreg, fsr1l, fsr1h, fsr2l, fsr2h, status,2, status,0, cstack
  1932 ;; Tracked objects:
  1933 ;;		On entry : 3F/0
  1934 ;;		On exit  : 0/0
  1935 ;;		Unchanged: 0/0
  1936 ;; Data sizes:     COMRAM   BANK0   BANK1   BANK2   BANK3   BANK4   BANK5   BANK6   BANK7   BANK8   BANK9  BANK10  BANK1
      +1  BANK12  BANK13  BANK14  BANK15
  1937 ;;      Params:         2       0       0       0       0       0       0       0       0       0       0       0       
      +0       0       0       0       0
  1938 ;;      Locals:         0       7       0       0       0       0       0       0       0       0       0       0       
      +0       0       0       0       0
  1939 ;;      Temps:          2       0       0       0       0       0       0       0       0       0       0       0       
      +0       0       0       0       0
  1940 ;;      Totals:         4       7       0       0       0       0       0       0       0       0       0       0       
      +0       0       0       0       0
  1941 ;;Total ram usage:       11 bytes
  1942 ;; Hardware stack levels used:    1
  1943 ;; Hardware stack levels required when called:    5
  1944 ;; This function calls:
  1945 ;;		_uckuyrukBos
  1946 ;;		_uckuyrukCokluAl
  1947 ;;		_uckuyrukCokluKuyrukla
  1948 ;;		_uckuyrukDolu
  1949 ;; This function is called by:
  1950 ;;		_main
  1951 ;;		_gorevciyiBaslat
  1952 ;; This function uses a non-reentrant model
  1953 ;;
  1954                           
  1955                           	psect	text11
  1956  001204                     __ptext11:
  1957                           	callstack 0
  1958  001204                     _uretici2:
  1959                           	callstack 23
  1960                           
  1961                           ; BSR set to: 0
  1962                           ;dummy.c: 80:     unsigned char veri2[4];;dummy.c: 81:  char VAZGECIS_BAYRAGI = 1; switc
      +                          h(( (gorev_t*) tutucu )->sn) { case 0:;
  1963                           
  1964                           ;incstack = 0
  1965  001204  0E01               	movlw	1
  1966  001206  6F98               	movwf	uretici2@VAZGECIS_BAYRAGI& (0+255),b
  1967  001208  D07F               	goto	l2730
  1968  00120A                     l2654:
  1969                           
  1970                           ; BSR set to: 0
  1971                           ;dummy.c: 85:         ( (gorev_t*) (tutucu) )->sn = 85; case 85:; if(!(!(uckuyrukBos(&ku
      +                          yruk1)))){ return 0; };
  1972  00120A  C047  FFD9         	movff	uretici2@tutucu,fsr2l
  1973  00120E  C048  FFDA         	movff	uretici2@tutucu+1,fsr2h
  1974  001212  0E55               	movlw	85
  1975  001214  6EDE               	movwf	postinc2,c
  1976  001216  0E00               	movlw	0
  1977  001218  6EDD               	movwf	postdec2,c
  1978  00121A                     l2656:
  1979                           
  1980                           ; BSR set to: 0
  1981  00121A  0E21               	movlw	low _kuyruk1
  1982  00121C  6E39               	movwf	uckuyrukBos@kuyruk^0,c
  1983  00121E  EC58  F00D         	call	_uckuyrukBos	;wreg free
  1984  001222  0900               	iorlw	0
  1985  001224  B4D8               	btfsc	status,2,c
  1986  001226  D002               	goto	l2662
  1987  001228                     u1450:
  1988  001228  0E00               	movlw	0
  1989  00122A  0012               	return	
  1990  00122C                     l2662:
  1991                           
  1992                           ;dummy.c: 87:         ( (gorev_t*) (tutucu) )->sn = 87; case 87:; if(!(!(uckuyrukCokluAl
      +                          (&kuyruk1, veri2, 4) == 0))){ return 0; };
  1993  00122C  C047  FFD9         	movff	uretici2@tutucu,fsr2l
  1994  001230  C048  FFDA         	movff	uretici2@tutucu+1,fsr2h
  1995  001234  0E57               	movlw	87
  1996  001236  6EDE               	movwf	postinc2,c
  1997  001238  0E00               	movlw	0
  1998  00123A  6EDD               	movwf	postdec2,c
  1999  00123C                     l2664:
  2000  00123C  0E21               	movlw	low _kuyruk1
  2001  00123E  6E3A               	movwf	uckuyrukCokluAl@kuyruk^0,c
  2002  001240  0E94               	movlw	low uretici2@veri2
  2003  001242  6E3B               	movwf	uckuyrukCokluAl@v^0,c
  2004  001244  0E04               	movlw	4
  2005  001246  6E3C               	movwf	uckuyrukCokluAl@kac^0,c
  2006  001248  ECCD  F00A         	call	_uckuyrukCokluAl	;wreg free
  2007  00124C  0900               	iorlw	0
  2008  00124E  B4D8               	btfsc	status,2,c
  2009  001250  D7EB               	goto	u1450
  2010                           
  2011                           ;dummy.c: 89:         for(int s = 0; s < 4; s++) {
  2012  001252  0E00               	movlw	0
  2013  001254  0100               	movlb	0	; () banked
  2014  001256  6F9A               	movwf	(uretici2@s+1)& (0+255),b
  2015  001258  0E00               	movlw	0
  2016  00125A  6F99               	movwf	uretici2@s& (0+255),b
  2017  00125C                     l2676:
  2018                           
  2019                           ; BSR set to: 0
  2020                           ;dummy.c: 90:             veri2[s] = veri2[s] + 10;
  2021  00125C  5199               	movf	uretici2@s& (0+255),w,b
  2022  00125E  0F94               	addlw	low uretici2@veri2
  2023  001260  6ED9               	movwf	fsr2l,c
  2024  001262  6ADA               	clrf	fsr2h,c
  2025  001264  5199               	movf	uretici2@s& (0+255),w,b
  2026  001266  0F94               	addlw	low uretici2@veri2
  2027  001268  6EE1               	movwf	fsr1l,c
  2028  00126A  6AE2               	clrf	fsr1h,c
  2029  00126C  50E7               	movf	indf1,w,c
  2030  00126E  0F0A               	addlw	10
  2031  001270  6EDF               	movwf	indf2,c
  2032                           
  2033                           ; BSR set to: 0
  2034                           ;dummy.c: 91:         }
  2035  001272  4B99               	infsnz	uretici2@s& (0+255),f,b
  2036  001274  2B9A               	incf	(uretici2@s+1)& (0+255),f,b
  2037                           
  2038                           ; BSR set to: 0
  2039  001276  BF9A               	btfsc	(uretici2@s+1)& (0+255),7,b
  2040  001278  D7F1               	goto	l2676
  2041  00127A  519A               	movf	(uretici2@s+1)& (0+255),w,b
  2042  00127C  E104               	bnz	u1470
  2043  00127E  0E04               	movlw	4
  2044  001280  5D99               	subwf	uretici2@s& (0+255),w,b
  2045  001282  A0D8               	btfss	status,0,c
  2046  001284  D7EB               	goto	l2676
  2047  001286                     u1470:
  2048                           
  2049                           ; BSR set to: 0
  2050  001286  C047  FFD9         	movff	uretici2@tutucu,fsr2l
  2051  00128A  C048  FFDA         	movff	uretici2@tutucu+1,fsr2h
  2052  00128E  0E5E               	movlw	94
  2053  001290  6EDE               	movwf	postinc2,c
  2054  001292  0E00               	movlw	0
  2055  001294  6EDD               	movwf	postdec2,c
  2056  001296                     l2684:
  2057                           
  2058                           ; BSR set to: 0
  2059  001296  5017               	movf	_kuyruk2Erisim^0,w,c
  2060  001298  B4D8               	btfsc	status,2,c
  2061  00129A  D7C6               	goto	u1450
  2062                           
  2063                           ; BSR set to: 0
  2064  00129C  0617               	decf	_kuyruk2Erisim^0,f,c
  2065                           
  2066                           ; BSR set to: 0
  2067                           ;dummy.c: 96:         ( (gorev_t*) (tutucu) )->sn = 96; case 96:; if(!(!(uckuyrukDolu(&k
      +                          uyruk2)))){ return 0; };
  2068  00129E  C047  FFD9         	movff	uretici2@tutucu,fsr2l
  2069  0012A2  C048  FFDA         	movff	uretici2@tutucu+1,fsr2h
  2070  0012A6  0E60               	movlw	96
  2071  0012A8  6EDE               	movwf	postinc2,c
  2072  0012AA  0E00               	movlw	0
  2073  0012AC  6EDD               	movwf	postdec2,c
  2074  0012AE                     l2694:
  2075                           
  2076                           ; BSR set to: 0
  2077  0012AE  0E1D               	movlw	low _kuyruk2
  2078  0012B0  6E39               	movwf	uckuyrukDolu@kuyruk^0,c
  2079  0012B2  EC10  F00D         	call	_uckuyrukDolu	;wreg free
  2080  0012B6  0900               	iorlw	0
  2081  0012B8  A4D8               	btfss	status,2,c
  2082  0012BA  D7B6               	goto	u1450
  2083                           
  2084                           ;dummy.c: 98:         ( (gorev_t*) (tutucu) )->sn = 98; case 98:; if(!(!(uckuyrukCokluKu
      +                          yrukla(&kuyruk2, veri2, 4) == 0))){ return 0; };
  2085  0012BC  C047  FFD9         	movff	uretici2@tutucu,fsr2l
  2086  0012C0  C048  FFDA         	movff	uretici2@tutucu+1,fsr2h
  2087  0012C4  0E62               	movlw	98
  2088  0012C6  6EDE               	movwf	postinc2,c
  2089  0012C8  0E00               	movlw	0
  2090  0012CA  6EDD               	movwf	postdec2,c
  2091  0012CC                     l2702:
  2092  0012CC  0E1D               	movlw	low _kuyruk2
  2093  0012CE  6E3C               	movwf	uckuyrukCokluKuyrukla@kuyruk^0,c
  2094  0012D0  0E94               	movlw	low uretici2@veri2
  2095  0012D2  6E3D               	movwf	uckuyrukCokluKuyrukla@v^0,c
  2096  0012D4  0E04               	movlw	4
  2097  0012D6  6E3E               	movwf	uckuyrukCokluKuyrukla@kac^0,c
  2098  0012D8  ECD2  F00B         	call	_uckuyrukCokluKuyrukla	;wreg free
  2099  0012DC  0900               	iorlw	0
  2100  0012DE  B4D8               	btfsc	status,2,c
  2101  0012E0  D7A3               	goto	u1450
  2102                           
  2103                           ;dummy.c: 101:         ++(&kuyruk2Erisim)->sayim;;
  2104  0012E2  2A17               	incf	_kuyruk2Erisim^0,f,c
  2105                           
  2106                           ;dummy.c: 104:         VAZGECIS_BAYRAGI = 0; ( (gorev_t*) tutucu )->sn = 104; case 104:;
      +                           if(VAZGECIS_BAYRAGI == 0){ return 3; };
  2107  0012E4  0E00               	movlw	0
  2108  0012E6  0100               	movlb	0	; () banked
  2109  0012E8  6F98               	movwf	uretici2@VAZGECIS_BAYRAGI& (0+255),b
  2110                           
  2111                           ; BSR set to: 0
  2112  0012EA  C047  FFD9         	movff	uretici2@tutucu,fsr2l
  2113  0012EE  C048  FFDA         	movff	uretici2@tutucu+1,fsr2h
  2114  0012F2  0E68               	movlw	104
  2115  0012F4  6EDE               	movwf	postinc2,c
  2116  0012F6  0E00               	movlw	0
  2117  0012F8  6EDD               	movwf	postdec2,c
  2118  0012FA                     l2714:
  2119                           
  2120                           ; BSR set to: 0
  2121  0012FA  5198               	movf	uretici2@VAZGECIS_BAYRAGI& (0+255),w,b
  2122  0012FC  A4D8               	btfss	status,2,c
  2123  0012FE  D785               	goto	l2654
  2124                           
  2125                           ; BSR set to: 0
  2126  001300  0E03               	movlw	3
  2127  001302  0012               	return	
  2128  001304                     l2724:
  2129                           
  2130                           ; BSR set to: 0
  2131  001304  0E02               	movlw	2
  2132  001306  0012               	return	
  2133  001308                     l2730:
  2134                           
  2135                           ; BSR set to: 0
  2136  001308  C047  FFD9         	movff	uretici2@tutucu,fsr2l
  2137  00130C  C048  FFDA         	movff	uretici2@tutucu+1,fsr2h
  2138  001310  CFDE F049          	movff	postinc2,??_uretici2
  2139  001314  CFDD F04A          	movff	postdec2,??_uretici2+1
  2140                           
  2141                           ; Switch on 2 bytes has been partitioned into a top level switch of size 1, and 1 sub-sw
      +                          itches
  2142                           ; Switch size 1, requested type "simple"
  2143                           ; Number of cases is 1, Range of values is 0 to 0
  2144                           ; switch strategies available:
  2145                           ; Name         Instructions Cycles
  2146                           ; simple_byte            4     3 (average)
  2147                           ;	Chosen strategy is simple_byte
  2148  001318  504A               	movf	(??_uretici2+1)^0,w,c
  2149  00131A  0A00               	xorlw	0	; case 0
  2150  00131C  A4D8               	btfss	status,2,c
  2151  00131E  D019               	goto	l2732
  2152                           
  2153                           ; BSR set to: 0
  2154                           ; Switch size 1, requested type "simple"
  2155                           ; Number of cases is 8, Range of values is 0 to 107
  2156                           ; switch strategies available:
  2157                           ; Name         Instructions Cycles
  2158                           ; simple_byte           25    13 (average)
  2159                           ;	Chosen strategy is simple_byte
  2160  001320  5049               	movf	??_uretici2^0,w,c
  2161  001322  0A00               	xorlw	0	; case 0
  2162  001324  B4D8               	btfsc	status,2,c
  2163  001326  D771               	goto	l2654
  2164  001328  0A55               	xorlw	85	; case 85
  2165  00132A  B4D8               	btfsc	status,2,c
  2166  00132C  D776               	goto	l2656
  2167  00132E  0A02               	xorlw	2	; case 87
  2168  001330  B4D8               	btfsc	status,2,c
  2169  001332  D784               	goto	l2664
  2170  001334  0A09               	xorlw	9	; case 94
  2171  001336  B4D8               	btfsc	status,2,c
  2172  001338  D7AE               	goto	l2684
  2173  00133A  0A3E               	xorlw	62	; case 96
  2174  00133C  B4D8               	btfsc	status,2,c
  2175  00133E  D7B7               	goto	l2694
  2176  001340  0A02               	xorlw	2	; case 98
  2177  001342  B4D8               	btfsc	status,2,c
  2178  001344  D7C3               	goto	l2702
  2179  001346  0A0A               	xorlw	10	; case 104
  2180  001348  B4D8               	btfsc	status,2,c
  2181  00134A  D7D7               	goto	l2714
  2182  00134C  0A03               	xorlw	3	; case 107
  2183  00134E  B4D8               	btfsc	status,2,c
  2184  001350  D7D9               	goto	l2724
  2185  001352                     l2732:
  2186                           
  2187                           ; BSR set to: 0
  2188  001352  0E01               	movlw	1
  2189  001354  0012               	return		;funcret
  2190  001356                     __end_of_uretici2:
  2191                           	callstack 0
  2192                           
  2193 ;; *************** function _uckuyrukCokluAl *****************
  2194 ;; Defined at:
  2195 ;;		line 100 in file "../../../../../kaynak/uckuyruk.c"
  2196 ;; Parameters:    Size  Location     Type
  2197 ;;  kuyruk          1   15[COMRAM] PTR struct .
  2198 ;;		 -> kuyruk1(4), 
  2199 ;;  v               1   16[COMRAM] PTR unsigned char 
  2200 ;;		 -> uretici2@veri2(4), 
  2201 ;;  kac             1   17[COMRAM] const unsigned char 
  2202 ;; Auto vars:     Size  Location     Type
  2203 ;;  sayac           2   25[COMRAM] int 
  2204 ;;  bas             1   27[COMRAM] unsigned char 
  2205 ;;  sayim           1   24[COMRAM] unsigned char 
  2206 ;;  veri            1   23[COMRAM] PTR const unsigned char 
  2207 ;;		 -> k2(8), k1(8), 
  2208 ;;  kap             1   22[COMRAM] const unsigned char 
  2209 ;;  sayac           1   21[COMRAM] unsigned char 
  2210 ;; Return value:  Size  Location     Type
  2211 ;;                  1    wreg      unsigned char 
  2212 ;; Registers used:
  2213 ;;		wreg, fsr1l, fsr1h, fsr2l, fsr2h, status,2, status,0, cstack
  2214 ;; Tracked objects:
  2215 ;;		On entry : 0/0
  2216 ;;		On exit  : 0/0
  2217 ;;		Unchanged: 0/0
  2218 ;; Data sizes:     COMRAM   BANK0   BANK1   BANK2   BANK3   BANK4   BANK5   BANK6   BANK7   BANK8   BANK9  BANK10  BANK1
      +1  BANK12  BANK13  BANK14  BANK15
  2219 ;;      Params:         3       0       0       0       0       0       0       0       0       0       0       0       
      +0       0       0       0       0
  2220 ;;      Locals:         7       0       0       0       0       0       0       0       0       0       0       0       
      +0       0       0       0       0
  2221 ;;      Temps:          3       0       0       0       0       0       0       0       0       0       0       0       
      +0       0       0       0       0
  2222 ;;      Totals:        13       0       0       0       0       0       0       0       0       0       0       0       
      +0       0       0       0       0
  2223 ;;Total ram usage:       13 bytes
  2224 ;; Hardware stack levels used:    1
  2225 ;; Hardware stack levels required when called:    4
  2226 ;; This function calls:
  2227 ;;		_uckuyrukKacOgeVar
  2228 ;; This function is called by:
  2229 ;;		_uretici2
  2230 ;; This function uses a non-reentrant model
  2231 ;;
  2232                           
  2233                           	psect	text12
  2234  00159A                     __ptext12:
  2235                           	callstack 0
  2236  00159A                     _uckuyrukCokluAl:
  2237                           	callstack 23
  2238                           
  2239                           ;../../../../../kaynak/uckuyruk.c: 100: char uckuyrukCokluAl(uckuyruk_t *kuyruk,;../../.
      +                          ./../../kaynak/uckuyruk.c: 101:         unsigned char *v, const unsigned char kac) {;../
      +                          ../../../../kaynak/uckuyruk.c: 102:     unsigned char sayac;;../../../../../kaynak/uckuy
      +                          ruk.c: 104:     if(uckuyrukKacOgeVar(kuyruk) < kac) return 0;
  2240                           
  2241                           ;incstack = 0
  2242  00159A  C03A  F039         	movff	uckuyrukCokluAl@kuyruk,uckuyrukKacOgeVar@kuyruk
  2243  00159E  EC6B  F00D         	call	_uckuyrukKacOgeVar	;wreg free
  2244  0015A2  6E3D               	movwf	??_uckuyrukCokluAl^0,c
  2245  0015A4  503C               	movf	uckuyrukCokluAl@kac^0,w,c
  2246  0015A6  5C3D               	subwf	??_uckuyrukCokluAl^0,w,c
  2247  0015A8  B0D8               	btfsc	status,0,c
  2248  0015AA  D002               	goto	l2486
  2249  0015AC  0E00               	movlw	0
  2250  0015AE  0012               	return	
  2251  0015B0                     l2486:
  2252                           
  2253                           ;../../../../../kaynak/uckuyruk.c: 106:  const unsigned char kap = kuyruk->kapasite;
  2254  0015B0  503A               	movf	uckuyrukCokluAl@kuyruk^0,w,c
  2255  0015B2  6ED9               	movwf	fsr2l,c
  2256  0015B4  6ADA               	clrf	fsr2h,c
  2257  0015B6  50DF               	movf	indf2,w,c
  2258  0015B8  6E41               	movwf	uckuyrukCokluAl@kap^0,c
  2259                           
  2260                           ;../../../../../kaynak/uckuyruk.c: 107:  const unsigned char *veri = kuyruk->veri;
  2261  0015BA  503A               	movf	uckuyrukCokluAl@kuyruk^0,w,c
  2262  0015BC  6ED9               	movwf	fsr2l,c
  2263  0015BE  6ADA               	clrf	fsr2h,c
  2264  0015C0  0E03               	movlw	3
  2265  0015C2  26D9               	addwf	fsr2l,f,c
  2266  0015C4  50DF               	movf	indf2,w,c
  2267  0015C6  6E42               	movwf	uckuyrukCokluAl@veri^0,c
  2268                           
  2269                           ;../../../../../kaynak/uckuyruk.c: 108:  unsigned char bas = kuyruk->bas;
  2270  0015C8  503A               	movf	uckuyrukCokluAl@kuyruk^0,w,c
  2271  0015CA  6ED9               	movwf	fsr2l,c
  2272  0015CC  6ADA               	clrf	fsr2h,c
  2273  0015CE  0E02               	movlw	2
  2274  0015D0  26D9               	addwf	fsr2l,f,c
  2275  0015D2  50DF               	movf	indf2,w,c
  2276  0015D4  6E46               	movwf	uckuyrukCokluAl@bas^0,c
  2277                           
  2278                           ;../../../../../kaynak/uckuyruk.c: 109:  unsigned char sayim = kuyruk->sayim;
  2279  0015D6  503A               	movf	uckuyrukCokluAl@kuyruk^0,w,c
  2280  0015D8  6ED9               	movwf	fsr2l,c
  2281  0015DA  6ADA               	clrf	fsr2h,c
  2282  0015DC  0E01               	movlw	1
  2283  0015DE  26D9               	addwf	fsr2l,f,c
  2284  0015E0  50DF               	movf	indf2,w,c
  2285  0015E2  6E43               	movwf	uckuyrukCokluAl@sayim^0,c
  2286                           
  2287                           ;../../../../../kaynak/uckuyruk.c: 112:  for(int sayac = 0; sayac < kac; sayac++) {
  2288  0015E4  0E00               	movlw	0
  2289  0015E6  6E45               	movwf	(uckuyrukCokluAl@sayac_734+1)^0,c
  2290  0015E8  0E00               	movlw	0
  2291  0015EA  6E44               	movwf	uckuyrukCokluAl@sayac_734^0,c
  2292  0015EC  503C               	movf	uckuyrukCokluAl@kac^0,w,c
  2293  0015EE  B4D8               	btfsc	status,2,c
  2294  0015F0  D021               	goto	u1310
  2295  0015F2                     l2498:
  2296                           
  2297                           ;../../../../../kaynak/uckuyruk.c: 113:   *(v+sayac) = *(veri + bas);
  2298  0015F2  5042               	movf	uckuyrukCokluAl@veri^0,w,c
  2299  0015F4  2446               	addwf	uckuyrukCokluAl@bas^0,w,c
  2300  0015F6  6ED9               	movwf	fsr2l,c
  2301  0015F8  6ADA               	clrf	fsr2h,c
  2302  0015FA  503B               	movf	uckuyrukCokluAl@v^0,w,c
  2303  0015FC  2444               	addwf	uckuyrukCokluAl@sayac_734^0,w,c
  2304  0015FE  6EE1               	movwf	fsr1l,c
  2305  001600  6AE2               	clrf	fsr1h,c
  2306  001602  CFDF FFE7          	movff	indf2,indf1
  2307                           
  2308                           ;../../../../../kaynak/uckuyruk.c: 114:         bas++; sayim--;
  2309  001606  2A46               	incf	uckuyrukCokluAl@bas^0,f,c
  2310  001608  0643               	decf	uckuyrukCokluAl@sayim^0,f,c
  2311                           
  2312                           ;../../../../../kaynak/uckuyruk.c: 115:         if(bas >= kap) bas = 0;
  2313  00160A  5041               	movf	uckuyrukCokluAl@kap^0,w,c
  2314  00160C  5C46               	subwf	uckuyrukCokluAl@bas^0,w,c
  2315  00160E  A0D8               	btfss	status,0,c
  2316  001610  D002               	goto	l2508
  2317  001612  0E00               	movlw	0
  2318  001614  6E46               	movwf	uckuyrukCokluAl@bas^0,c
  2319  001616                     l2508:
  2320                           
  2321                           ;../../../../../kaynak/uckuyruk.c: 116:  }
  2322  001616  4A44               	infsnz	uckuyrukCokluAl@sayac_734^0,f,c
  2323  001618  2A45               	incf	(uckuyrukCokluAl@sayac_734+1)^0,f,c
  2324  00161A  503C               	movf	uckuyrukCokluAl@kac^0,w,c
  2325  00161C  6E3D               	movwf	??_uckuyrukCokluAl^0,c
  2326  00161E  6A3E               	clrf	(??_uckuyrukCokluAl+1)^0,c
  2327  001620  503D               	movf	??_uckuyrukCokluAl^0,w,c
  2328  001622  5C44               	subwf	uckuyrukCokluAl@sayac_734^0,w,c
  2329  001624  5045               	movf	(uckuyrukCokluAl@sayac_734+1)^0,w,c
  2330  001626  0A80               	xorlw	128
  2331  001628  6E3F               	movwf	(??_uckuyrukCokluAl+2)^0,c
  2332  00162A  503E               	movf	(??_uckuyrukCokluAl+1)^0,w,c
  2333  00162C  0A80               	xorlw	128
  2334  00162E  583F               	subwfb	(??_uckuyrukCokluAl+2)^0,w,c
  2335  001630  A0D8               	btfss	status,0,c
  2336  001632  D7DF               	goto	l2498
  2337  001634                     u1310:
  2338                           
  2339                           ;../../../../../kaynak/uckuyruk.c: 117:     kuyruk->bas = bas;
  2340  001634  503A               	movf	uckuyrukCokluAl@kuyruk^0,w,c
  2341  001636  6ED9               	movwf	fsr2l,c
  2342  001638  6ADA               	clrf	fsr2h,c
  2343  00163A  0E02               	movlw	2
  2344  00163C  26D9               	addwf	fsr2l,f,c
  2345  00163E  C046  FFDF         	movff	uckuyrukCokluAl@bas,indf2
  2346                           
  2347                           ;../../../../../kaynak/uckuyruk.c: 118:     kuyruk->sayim = sayim;
  2348  001642  503A               	movf	uckuyrukCokluAl@kuyruk^0,w,c
  2349  001644  6ED9               	movwf	fsr2l,c
  2350  001646  6ADA               	clrf	fsr2h,c
  2351  001648  0E01               	movlw	1
  2352  00164A  26D9               	addwf	fsr2l,f,c
  2353  00164C  C043  FFDF         	movff	uckuyrukCokluAl@sayim,indf2
  2354                           
  2355                           ;../../../../../kaynak/uckuyruk.c: 120:  return sayac;
  2356  001650  5040               	movf	uckuyrukCokluAl@sayac^0,w,c
  2357  001652  0012               	return		;funcret
  2358  001654                     __end_of_uckuyrukCokluAl:
  2359                           	callstack 0
  2360                           
  2361 ;; *************** function _uckuyrukKacOgeVar *****************
  2362 ;; Defined at:
  2363 ;;		line 123 in file "../../../../../kaynak/uckuyruk.c"
  2364 ;; Parameters:    Size  Location     Type
  2365 ;;  kuyruk          1   14[COMRAM] PTR struct .
  2366 ;;		 -> kuyruk1(4), 
  2367 ;; Auto vars:     Size  Location     Type
  2368 ;;		None
  2369 ;; Return value:  Size  Location     Type
  2370 ;;                  1    wreg      unsigned char 
  2371 ;; Registers used:
  2372 ;;		wreg, fsr2l, fsr2h, status,2, status,0
  2373 ;; Tracked objects:
  2374 ;;		On entry : 0/0
  2375 ;;		On exit  : 0/0
  2376 ;;		Unchanged: 0/0
  2377 ;; Data sizes:     COMRAM   BANK0   BANK1   BANK2   BANK3   BANK4   BANK5   BANK6   BANK7   BANK8   BANK9  BANK10  BANK1
      +1  BANK12  BANK13  BANK14  BANK15
  2378 ;;      Params:         1       0       0       0       0       0       0       0       0       0       0       0       
      +0       0       0       0       0
  2379 ;;      Locals:         0       0       0       0       0       0       0       0       0       0       0       0       
      +0       0       0       0       0
  2380 ;;      Temps:          0       0       0       0       0       0       0       0       0       0       0       0       
      +0       0       0       0       0
  2381 ;;      Totals:         1       0       0       0       0       0       0       0       0       0       0       0       
      +0       0       0       0       0
  2382 ;;Total ram usage:        1 bytes
  2383 ;; Hardware stack levels used:    1
  2384 ;; Hardware stack levels required when called:    3
  2385 ;; This function calls:
  2386 ;;		Nothing
  2387 ;; This function is called by:
  2388 ;;		_uckuyrukCokluAl
  2389 ;; This function uses a non-reentrant model
  2390 ;;
  2391                           
  2392                           	psect	text13
  2393  001AD6                     __ptext13:
  2394                           	callstack 0
  2395  001AD6                     _uckuyrukKacOgeVar:
  2396                           	callstack 23
  2397                           
  2398                           ;../../../../../kaynak/uckuyruk.c: 124:     return kuyruk->sayim;
  2399                           
  2400                           ;incstack = 0
  2401  001AD6  5039               	movf	uckuyrukKacOgeVar@kuyruk^0,w,c
  2402  001AD8  6ED9               	movwf	fsr2l,c
  2403  001ADA  6ADA               	clrf	fsr2h,c
  2404  001ADC  0E01               	movlw	1
  2405  001ADE  26D9               	addwf	fsr2l,f,c
  2406  001AE0  50DF               	movf	indf2,w,c
  2407  001AE2  0012               	return		;funcret
  2408  001AE4                     __end_of_uckuyrukKacOgeVar:
  2409                           	callstack 0
  2410                           
  2411 ;; *************** function _uckuyrukDolu *****************
  2412 ;; Defined at:
  2413 ;;		line 127 in file "../../../../../kaynak/uckuyruk.c"
  2414 ;; Parameters:    Size  Location     Type
  2415 ;;  kuyruk          1   14[COMRAM] PTR struct .
  2416 ;;		 -> kuyruk2(4), kuyruk1(4), 
  2417 ;; Auto vars:     Size  Location     Type
  2418 ;;		None
  2419 ;; Return value:  Size  Location     Type
  2420 ;;                  1    wreg      unsigned char 
  2421 ;; Registers used:
  2422 ;;		wreg, fsr1l, fsr1h, fsr2l, fsr2h, status,2, status,0
  2423 ;; Tracked objects:
  2424 ;;		On entry : 0/0
  2425 ;;		On exit  : 0/0
  2426 ;;		Unchanged: 0/0
  2427 ;; Data sizes:     COMRAM   BANK0   BANK1   BANK2   BANK3   BANK4   BANK5   BANK6   BANK7   BANK8   BANK9  BANK10  BANK1
      +1  BANK12  BANK13  BANK14  BANK15
  2428 ;;      Params:         1       0       0       0       0       0       0       0       0       0       0       0       
      +0       0       0       0       0
  2429 ;;      Locals:         0       0       0       0       0       0       0       0       0       0       0       0       
      +0       0       0       0       0
  2430 ;;      Temps:          2       0       0       0       0       0       0       0       0       0       0       0       
      +0       0       0       0       0
  2431 ;;      Totals:         3       0       0       0       0       0       0       0       0       0       0       0       
      +0       0       0       0       0
  2432 ;;Total ram usage:        3 bytes
  2433 ;; Hardware stack levels used:    1
  2434 ;; Hardware stack levels required when called:    3
  2435 ;; This function calls:
  2436 ;;		Nothing
  2437 ;; This function is called by:
  2438 ;;		_uretici1
  2439 ;;		_uretici2
  2440 ;; This function uses a non-reentrant model
  2441 ;;
  2442                           
  2443                           	psect	text14
  2444  001A20                     __ptext14:
  2445                           	callstack 0
  2446  001A20                     _uckuyrukDolu:
  2447                           	callstack 24
  2448                           
  2449                           ;../../../../../kaynak/uckuyruk.c: 128:  return kuyruk->sayim >= kuyruk->kapasite ? 1 : 
      +                          0;
  2450                           
  2451                           ;incstack = 0
  2452  001A20  5039               	movf	uckuyrukDolu@kuyruk^0,w,c
  2453  001A22  6ED9               	movwf	fsr2l,c
  2454  001A24  6ADA               	clrf	fsr2h,c
  2455  001A26  5039               	movf	uckuyrukDolu@kuyruk^0,w,c
  2456  001A28  6EE1               	movwf	fsr1l,c
  2457  001A2A  6AE2               	clrf	fsr1h,c
  2458  001A2C  0E01               	movlw	1
  2459  001A2E  26E1               	addwf	fsr1l,f,c
  2460  001A30  50DE               	movf	postinc2,w,c
  2461  001A32  5CE6               	subwf	postinc1,w,c
  2462  001A34  A0D8               	btfss	status,0,c
  2463  001A36  D002               	goto	u1210
  2464  001A38  0E01               	movlw	1
  2465  001A3A  0012               	return	
  2466  001A3C                     u1210:
  2467  001A3C  0E00               	movlw	0
  2468  001A3E  0012               	return		;funcret
  2469  001A40                     __end_of_uckuyrukDolu:
  2470                           	callstack 0
  2471                           
  2472 ;; *************** function _uckuyrukCokluKuyrukla *****************
  2473 ;; Defined at:
  2474 ;;		line 54 in file "../../../../../kaynak/uckuyruk.c"
  2475 ;; Parameters:    Size  Location     Type
  2476 ;;  kuyruk          1   17[COMRAM] PTR struct .
  2477 ;;		 -> kuyruk2(4), kuyruk1(4), 
  2478 ;;  v               1   18[COMRAM] PTR const unsigned char 
  2479 ;;		 -> uretici2@veri2(4), uretici1@veri1(4), 
  2480 ;;  kac             1   19[COMRAM] const unsigned char 
  2481 ;; Auto vars:     Size  Location     Type
  2482 ;;  konum           1   26[COMRAM] unsigned char 
  2483 ;;  sayac           1   25[COMRAM] unsigned char 
  2484 ;;  kap             1   24[COMRAM] unsigned char 
  2485 ;;  sayim           1   23[COMRAM] unsigned char 
  2486 ;;  veri            1   22[COMRAM] PTR unsigned char 
  2487 ;;		 -> k2(8), k1(8), 
  2488 ;;  baslangic       1    0        const unsigned char 
  2489 ;; Return value:  Size  Location     Type
  2490 ;;                  1    wreg      unsigned char 
  2491 ;; Registers used:
  2492 ;;		wreg, fsr1l, fsr1h, fsr2l, fsr2h, status,2, status,0, cstack
  2493 ;; Tracked objects:
  2494 ;;		On entry : 0/0
  2495 ;;		On exit  : 0/0
  2496 ;;		Unchanged: 0/0
  2497 ;; Data sizes:     COMRAM   BANK0   BANK1   BANK2   BANK3   BANK4   BANK5   BANK6   BANK7   BANK8   BANK9  BANK10  BANK1
      +1  BANK12  BANK13  BANK14  BANK15
  2498 ;;      Params:         3       0       0       0       0       0       0       0       0       0       0       0       
      +0       0       0       0       0
  2499 ;;      Locals:         6       0       0       0       0       0       0       0       0       0       0       0       
      +0       0       0       0       0
  2500 ;;      Temps:          1       0       0       0       0       0       0       0       0       0       0       0       
      +0       0       0       0       0
  2501 ;;      Totals:        10       0       0       0       0       0       0       0       0       0       0       0       
      +0       0       0       0       0
  2502 ;;Total ram usage:       10 bytes
  2503 ;; Hardware stack levels used:    1
  2504 ;; Hardware stack levels required when called:    4
  2505 ;; This function calls:
  2506 ;;		_uckuyrukKalanKapasite
  2507 ;; This function is called by:
  2508 ;;		_uretici1
  2509 ;;		_uretici2
  2510 ;; This function uses a non-reentrant model
  2511 ;;
  2512                           
  2513                           	psect	text15
  2514  0017A4                     __ptext15:
  2515                           	callstack 0
  2516  0017A4                     _uckuyrukCokluKuyrukla:
  2517                           	callstack 23
  2518                           
  2519                           ;../../../../../kaynak/uckuyruk.c: 54: char uckuyrukCokluKuyrukla(uckuyruk_t *kuyruk,;..
      +                          /../../../../kaynak/uckuyruk.c: 55:         const unsigned char *v, const unsigned char 
      +                          kac) {;../../../../../kaynak/uckuyruk.c: 56:     unsigned char sayac;;../../../../../kay
      +                          nak/uckuyruk.c: 58:     if(uckuyrukKalanKapasite(kuyruk) < kac) return 0;
  2520                           
  2521                           ;incstack = 0
  2522  0017A4  C03C  F039         	movff	uckuyrukCokluKuyrukla@kuyruk,uckuyrukKalanKapasite@kuyruk
  2523  0017A8  EC20  F00D         	call	_uckuyrukKalanKapasite	;wreg free
  2524  0017AC  6E3F               	movwf	??_uckuyrukCokluKuyrukla^0,c
  2525  0017AE  503E               	movf	uckuyrukCokluKuyrukla@kac^0,w,c
  2526  0017B0  5C3F               	subwf	??_uckuyrukCokluKuyrukla^0,w,c
  2527  0017B2  B0D8               	btfsc	status,0,c
  2528  0017B4  D002               	goto	l2442
  2529  0017B6  0E00               	movlw	0
  2530  0017B8  0012               	return	
  2531  0017BA                     l2442:
  2532                           
  2533                           ;../../../../../kaynak/uckuyruk.c: 60:  unsigned char kap = kuyruk->kapasite;
  2534  0017BA  503C               	movf	uckuyrukCokluKuyrukla@kuyruk^0,w,c
  2535  0017BC  6ED9               	movwf	fsr2l,c
  2536  0017BE  6ADA               	clrf	fsr2h,c
  2537  0017C0  50DF               	movf	indf2,w,c
  2538  0017C2  6E43               	movwf	uckuyrukCokluKuyrukla@kap^0,c
  2539                           
  2540                           ;../../../../../kaynak/uckuyruk.c: 61:  unsigned char *veri = kuyruk->veri;
  2541  0017C4  503C               	movf	uckuyrukCokluKuyrukla@kuyruk^0,w,c
  2542  0017C6  6ED9               	movwf	fsr2l,c
  2543  0017C8  6ADA               	clrf	fsr2h,c
  2544  0017CA  0E03               	movlw	3
  2545  0017CC  26D9               	addwf	fsr2l,f,c
  2546  0017CE  50DF               	movf	indf2,w,c
  2547  0017D0  6E41               	movwf	uckuyrukCokluKuyrukla@veri^0,c
  2548                           
  2549                           ;../../../../../kaynak/uckuyruk.c: 62:  unsigned char sayim = kuyruk->sayim;
  2550  0017D2  503C               	movf	uckuyrukCokluKuyrukla@kuyruk^0,w,c
  2551  0017D4  6ED9               	movwf	fsr2l,c
  2552  0017D6  6ADA               	clrf	fsr2h,c
  2553  0017D8  0E01               	movlw	1
  2554  0017DA  26D9               	addwf	fsr2l,f,c
  2555  0017DC  50DF               	movf	indf2,w,c
  2556  0017DE  6E42               	movwf	uckuyrukCokluKuyrukla@sayim^0,c
  2557                           
  2558                           ;../../../../../kaynak/uckuyruk.c: 64:     unsigned char konum = (kuyruk->bas + sayim);
  2559  0017E0  503C               	movf	uckuyrukCokluKuyrukla@kuyruk^0,w,c
  2560  0017E2  6ED9               	movwf	fsr2l,c
  2561  0017E4  6ADA               	clrf	fsr2h,c
  2562  0017E6  0E02               	movlw	2
  2563  0017E8  26D9               	addwf	fsr2l,f,c
  2564  0017EA  50DF               	movf	indf2,w,c
  2565  0017EC  2442               	addwf	uckuyrukCokluKuyrukla@sayim^0,w,c
  2566  0017EE  6E45               	movwf	uckuyrukCokluKuyrukla@konum^0,c
  2567                           
  2568                           ;../../../../../kaynak/uckuyruk.c: 65:     if(konum >= kap) konum -= kap;
  2569  0017F0  5043               	movf	uckuyrukCokluKuyrukla@kap^0,w,c
  2570  0017F2  5C45               	subwf	uckuyrukCokluKuyrukla@konum^0,w,c
  2571  0017F4  A0D8               	btfss	status,0,c
  2572  0017F6  D002               	goto	l2454
  2573  0017F8  5043               	movf	uckuyrukCokluKuyrukla@kap^0,w,c
  2574  0017FA  5E45               	subwf	uckuyrukCokluKuyrukla@konum^0,f,c
  2575  0017FC                     l2454:
  2576                           
  2577                           ;../../../../../kaynak/uckuyruk.c: 69:  for(sayac = 0; sayac < kac; sayac++) {
  2578  0017FC  0E00               	movlw	0
  2579  0017FE  6E44               	movwf	uckuyrukCokluKuyrukla@sayac^0,c
  2580  001800  503E               	movf	uckuyrukCokluKuyrukla@kac^0,w,c
  2581  001802  B4D8               	btfsc	status,2,c
  2582  001804  D017               	goto	u1270
  2583  001806                     l2462:
  2584                           
  2585                           ;../../../../../kaynak/uckuyruk.c: 70:   *(veri + konum) = *(v + sayac);
  2586  001806  503D               	movf	uckuyrukCokluKuyrukla@v^0,w,c
  2587  001808  2444               	addwf	uckuyrukCokluKuyrukla@sayac^0,w,c
  2588  00180A  6ED9               	movwf	fsr2l,c
  2589  00180C  6ADA               	clrf	fsr2h,c
  2590  00180E  5041               	movf	uckuyrukCokluKuyrukla@veri^0,w,c
  2591  001810  2445               	addwf	uckuyrukCokluKuyrukla@konum^0,w,c
  2592  001812  6EE1               	movwf	fsr1l,c
  2593  001814  6AE2               	clrf	fsr1h,c
  2594  001816  CFDF FFE7          	movff	indf2,indf1
  2595                           
  2596                           ;../../../../../kaynak/uckuyruk.c: 72:         konum++;
  2597  00181A  2A45               	incf	uckuyrukCokluKuyrukla@konum^0,f,c
  2598                           
  2599                           ;../../../../../kaynak/uckuyruk.c: 73:         if(konum >= kap) konum -= kap;
  2600  00181C  5043               	movf	uckuyrukCokluKuyrukla@kap^0,w,c
  2601  00181E  5C45               	subwf	uckuyrukCokluKuyrukla@konum^0,w,c
  2602  001820  A0D8               	btfss	status,0,c
  2603  001822  D002               	goto	l2470
  2604  001824  5043               	movf	uckuyrukCokluKuyrukla@kap^0,w,c
  2605  001826  5E45               	subwf	uckuyrukCokluKuyrukla@konum^0,f,c
  2606  001828                     l2470:
  2607                           
  2608                           ;../../../../../kaynak/uckuyruk.c: 74:         sayim++;
  2609  001828  2A42               	incf	uckuyrukCokluKuyrukla@sayim^0,f,c
  2610                           
  2611                           ;../../../../../kaynak/uckuyruk.c: 75:  }
  2612  00182A  2A44               	incf	uckuyrukCokluKuyrukla@sayac^0,f,c
  2613  00182C  503E               	movf	uckuyrukCokluKuyrukla@kac^0,w,c
  2614  00182E  5C44               	subwf	uckuyrukCokluKuyrukla@sayac^0,w,c
  2615  001830  A0D8               	btfss	status,0,c
  2616  001832  D7E9               	goto	l2462
  2617  001834                     u1270:
  2618                           
  2619                           ;../../../../../kaynak/uckuyruk.c: 76:     kuyruk->sayim = sayim;
  2620  001834  503C               	movf	uckuyrukCokluKuyrukla@kuyruk^0,w,c
  2621  001836  6ED9               	movwf	fsr2l,c
  2622  001838  6ADA               	clrf	fsr2h,c
  2623  00183A  0E01               	movlw	1
  2624  00183C  26D9               	addwf	fsr2l,f,c
  2625  00183E  C042  FFDF         	movff	uckuyrukCokluKuyrukla@sayim,indf2
  2626                           
  2627                           ;../../../../../kaynak/uckuyruk.c: 78:  return sayac;
  2628  001842  5044               	movf	uckuyrukCokluKuyrukla@sayac^0,w,c
  2629  001844  0012               	return		;funcret
  2630  001846                     __end_of_uckuyrukCokluKuyrukla:
  2631                           	callstack 0
  2632                           
  2633 ;; *************** function _uckuyrukKalanKapasite *****************
  2634 ;; Defined at:
  2635 ;;		line 135 in file "../../../../../kaynak/uckuyruk.c"
  2636 ;; Parameters:    Size  Location     Type
  2637 ;;  kuyruk          1   14[COMRAM] PTR struct .
  2638 ;;		 -> kuyruk2(4), kuyruk1(4), 
  2639 ;; Auto vars:     Size  Location     Type
  2640 ;;		None
  2641 ;; Return value:  Size  Location     Type
  2642 ;;                  1    wreg      unsigned char 
  2643 ;; Registers used:
  2644 ;;		wreg, fsr2l, fsr2h, status,2, status,0
  2645 ;; Tracked objects:
  2646 ;;		On entry : 0/0
  2647 ;;		On exit  : 0/0
  2648 ;;		Unchanged: 0/0
  2649 ;; Data sizes:     COMRAM   BANK0   BANK1   BANK2   BANK3   BANK4   BANK5   BANK6   BANK7   BANK8   BANK9  BANK10  BANK1
      +1  BANK12  BANK13  BANK14  BANK15
  2650 ;;      Params:         1       0       0       0       0       0       0       0       0       0       0       0       
      +0       0       0       0       0
  2651 ;;      Locals:         0       0       0       0       0       0       0       0       0       0       0       0       
      +0       0       0       0       0
  2652 ;;      Temps:          2       0       0       0       0       0       0       0       0       0       0       0       
      +0       0       0       0       0
  2653 ;;      Totals:         3       0       0       0       0       0       0       0       0       0       0       0       
      +0       0       0       0       0
  2654 ;;Total ram usage:        3 bytes
  2655 ;; Hardware stack levels used:    1
  2656 ;; Hardware stack levels required when called:    3
  2657 ;; This function calls:
  2658 ;;		Nothing
  2659 ;; This function is called by:
  2660 ;;		_uckuyrukCokluKuyrukla
  2661 ;; This function uses a non-reentrant model
  2662 ;;
  2663                           
  2664                           	psect	text16
  2665  001A40                     __ptext16:
  2666                           	callstack 0
  2667  001A40                     _uckuyrukKalanKapasite:
  2668                           	callstack 23
  2669                           
  2670                           ;../../../../../kaynak/uckuyruk.c: 136:  return kuyruk->kapasite - kuyruk->sayim;
  2671                           
  2672                           ;incstack = 0
  2673  001A40  5039               	movf	uckuyrukKalanKapasite@kuyruk^0,w,c
  2674  001A42  6ED9               	movwf	fsr2l,c
  2675  001A44  6ADA               	clrf	fsr2h,c
  2676  001A46  0E01               	movlw	1
  2677  001A48  26D9               	addwf	fsr2l,f,c
  2678  001A4A  50DF               	movf	indf2,w,c
  2679  001A4C  6E3A               	movwf	??_uckuyrukKalanKapasite^0,c
  2680  001A4E  5039               	movf	uckuyrukKalanKapasite@kuyruk^0,w,c
  2681  001A50  6ED9               	movwf	fsr2l,c
  2682  001A52  6ADA               	clrf	fsr2h,c
  2683  001A54  50DF               	movf	indf2,w,c
  2684  001A56  6E3B               	movwf	(??_uckuyrukKalanKapasite+1)^0,c
  2685  001A58  503A               	movf	??_uckuyrukKalanKapasite^0,w,c
  2686  001A5A  5C3B               	subwf	(??_uckuyrukKalanKapasite+1)^0,w,c
  2687  001A5C  0012               	return		;funcret
  2688  001A5E                     __end_of_uckuyrukKalanKapasite:
  2689                           	callstack 0
  2690                           
  2691 ;; *************** function _listedenSil *****************
  2692 ;; Defined at:
  2693 ;;		line 80 in file "../../../../../kaynak/gorev.c"
  2694 ;; Parameters:    Size  Location     Type
  2695 ;;  liste           1   14[COMRAM] PTR PTR struct .
  2696 ;;		 -> calisanListesi(12), 
  2697 ;;  sayim           1   15[COMRAM] PTR unsigned char 
  2698 ;;		 -> calisanSayimi(1), 
  2699 ;;  konum           1   16[COMRAM] const unsigned char 
  2700 ;; Auto vars:     Size  Location     Type
  2701 ;;  sonrakiOge      3    0        PTR struct .
  2702 ;;  k               1   24[COMRAM] unsigned char 
  2703 ;;  cSayim          1   23[COMRAM] const unsigned char 
  2704 ;; Return value:  Size  Location     Type
  2705 ;;                  1    wreg      void 
  2706 ;; Registers used:
  2707 ;;		wreg, fsr1l, fsr1h, fsr2l, fsr2h, status,2, status,0, prodl, prodh
  2708 ;; Tracked objects:
  2709 ;;		On entry : 3F/0
  2710 ;;		On exit  : 3F/0
  2711 ;;		Unchanged: 3F/0
  2712 ;; Data sizes:     COMRAM   BANK0   BANK1   BANK2   BANK3   BANK4   BANK5   BANK6   BANK7   BANK8   BANK9  BANK10  BANK1
      +1  BANK12  BANK13  BANK14  BANK15
  2713 ;;      Params:         3       0       0       0       0       0       0       0       0       0       0       0       
      +0       0       0       0       0
  2714 ;;      Locals:         2       0       0       0       0       0       0       0       0       0       0       0       
      +0       0       0       0       0
  2715 ;;      Temps:          6       0       0       0       0       0       0       0       0       0       0       0       
      +0       0       0       0       0
  2716 ;;      Totals:        11       0       0       0       0       0       0       0       0       0       0       0       
      +0       0       0       0       0
  2717 ;;Total ram usage:       11 bytes
  2718 ;; Hardware stack levels used:    1
  2719 ;; Hardware stack levels required when called:    3
  2720 ;; This function calls:
  2721 ;;		Nothing
  2722 ;; This function is called by:
  2723 ;;		_gorevciyiBaslat
  2724 ;; This function uses a non-reentrant model
  2725 ;;
  2726                           
  2727                           	psect	text17
  2728  001654                     __ptext17:
  2729                           	callstack 0
  2730  001654                     _listedenSil:
  2731                           	callstack 25
  2732                           
  2733                           ; BSR set to: 0
  2734                           ;../../../../../kaynak/gorev.c: 80: static void listedenSil(gorevListeOgesi_t liste[],;.
      +                          ./../../../../kaynak/gorev.c: 81:         char *sayim, const char konum) {;../../../../.
      +                          ./kaynak/gorev.c: 83:     const char cSayim = *sayim;
  2735                           
  2736                           ;incstack = 0
  2737  001654  503A               	movf	listedenSil@sayim^0,w,c
  2738  001656  6ED9               	movwf	fsr2l,c
  2739  001658  6ADA               	clrf	fsr2h,c
  2740  00165A  50DF               	movf	indf2,w,c
  2741  00165C  6E42               	movwf	listedenSil@cSayim^0,c
  2742                           
  2743                           ; BSR set to: 0
  2744                           ;../../../../../kaynak/gorev.c: 86:     if(konum >= cSayim || konum == 0) return;
  2745  00165E  5042               	movf	listedenSil@cSayim^0,w,c
  2746  001660  5C3B               	subwf	listedenSil@konum^0,w,c
  2747  001662  B0D8               	btfsc	status,0,c
  2748  001664  0012               	return	
  2749                           
  2750                           ; BSR set to: 0
  2751  001666  503B               	movf	listedenSil@konum^0,w,c
  2752  001668  B4D8               	btfsc	status,2,c
  2753  00166A  0012               	return	
  2754                           
  2755                           ; BSR set to: 0
  2756                           ;../../../../../kaynak/gorev.c: 88:     if(konum == (cSayim - 1)) {
  2757  00166C  503B               	movf	listedenSil@konum^0,w,c
  2758  00166E  6E3C               	movwf	??_listedenSil^0,c
  2759  001670  6A3D               	clrf	(??_listedenSil+1)^0,c
  2760  001672  0EFF               	movlw	255
  2761  001674  6E3E               	movwf	(??_listedenSil+2)^0,c
  2762  001676  0EFF               	movlw	255
  2763  001678  6E3F               	movwf	(??_listedenSil+3)^0,c
  2764  00167A  5042               	movf	listedenSil@cSayim^0,w,c
  2765  00167C  6E40               	movwf	(??_listedenSil+4)^0,c
  2766  00167E  6A41               	clrf	(??_listedenSil+5)^0,c
  2767  001680  503E               	movf	(??_listedenSil+2)^0,w,c
  2768  001682  2640               	addwf	(??_listedenSil+4)^0,f,c
  2769  001684  503F               	movf	(??_listedenSil+3)^0,w,c
  2770  001686  2241               	addwfc	(??_listedenSil+5)^0,f,c
  2771  001688  503C               	movf	??_listedenSil^0,w,c
  2772  00168A  1840               	xorwf	(??_listedenSil+4)^0,w,c
  2773  00168C  E113               	bnz	l129
  2774  00168E  503D               	movf	(??_listedenSil+1)^0,w,c
  2775  001690  1841               	xorwf	(??_listedenSil+5)^0,w,c
  2776  001692  A4D8               	btfss	status,2,c
  2777  001694  D00F               	goto	l129
  2778                           
  2779                           ; BSR set to: 0
  2780                           ;../../../../../kaynak/gorev.c: 91:         liste[konum] = ((void*)0);
  2781  001696  503B               	movf	listedenSil@konum^0,w,c
  2782  001698  0D02               	mullw	2
  2783  00169A  5039               	movf	listedenSil@liste^0,w,c
  2784  00169C  24F3               	addwf	243,w,c
  2785  00169E  6ED9               	movwf	fsr2l,c
  2786  0016A0  6ADA               	clrf	fsr2h,c
  2787  0016A2  0E00               	movlw	0
  2788  0016A4  6EDE               	movwf	postinc2,c
  2789  0016A6  0E00               	movlw	0
  2790  0016A8  6EDD               	movwf	postdec2,c
  2791  0016AA                     l2560:
  2792                           
  2793                           ; BSR set to: 0
  2794                           ;../../../../../kaynak/gorev.c: 92:         (*sayim)--;
  2795  0016AA  503A               	movf	listedenSil@sayim^0,w,c
  2796  0016AC  6ED9               	movwf	fsr2l,c
  2797  0016AE  6ADA               	clrf	fsr2h,c
  2798  0016B0  06DF               	decf	indf2,f,c
  2799  0016B2  0012               	return	
  2800  0016B4                     l129:
  2801                           
  2802                           ; BSR set to: 0
  2803                           ;../../../../../kaynak/gorev.c: 96:     gorevListeOgesi_t sonrakiOge;;../../../../../kay
      +                          nak/gorev.c: 97:     char k = konum;
  2804  0016B4  C03B  F043         	movff	listedenSil@konum,listedenSil@k
  2805                           
  2806                           ; BSR set to: 0
  2807                           ;../../../../../kaynak/gorev.c: 98:     liste[konum] = ((void*)0);
  2808  0016B8  503B               	movf	listedenSil@konum^0,w,c
  2809  0016BA  0D02               	mullw	2
  2810  0016BC  5039               	movf	listedenSil@liste^0,w,c
  2811  0016BE  24F3               	addwf	243,w,c
  2812  0016C0  6ED9               	movwf	fsr2l,c
  2813  0016C2  6ADA               	clrf	fsr2h,c
  2814  0016C4  0E00               	movlw	0
  2815  0016C6  6EDE               	movwf	postinc2,c
  2816  0016C8  0E00               	movlw	0
  2817  0016CA  6EDD               	movwf	postdec2,c
  2818                           
  2819                           ;../../../../../kaynak/gorev.c: 99:     while(k < cSayim) {
  2820  0016CC  D013               	goto	l2570
  2821  0016CE                     l2566:
  2822                           
  2823                           ; BSR set to: 0
  2824                           ;../../../../../kaynak/gorev.c: 101:         liste[k] = liste[k+1];
  2825  0016CE  5043               	movf	listedenSil@k^0,w,c
  2826  0016D0  0D02               	mullw	2
  2827  0016D2  5039               	movf	listedenSil@liste^0,w,c
  2828  0016D4  24F3               	addwf	243,w,c
  2829  0016D6  6ED9               	movwf	fsr2l,c
  2830  0016D8  6ADA               	clrf	fsr2h,c
  2831  0016DA  0E02               	movlw	2
  2832  0016DC  26D9               	addwf	fsr2l,f,c
  2833  0016DE  5043               	movf	listedenSil@k^0,w,c
  2834  0016E0  0D02               	mullw	2
  2835  0016E2  5039               	movf	listedenSil@liste^0,w,c
  2836  0016E4  24F3               	addwf	243,w,c
  2837  0016E6  6EE1               	movwf	fsr1l,c
  2838  0016E8  6AE2               	clrf	fsr1h,c
  2839  0016EA  CFDE FFE6          	movff	postinc2,postinc1
  2840  0016EE  CFDD FFE5          	movff	postdec2,postdec1
  2841                           
  2842                           ; BSR set to: 0
  2843                           ;../../../../../kaynak/gorev.c: 102:         k++;
  2844  0016F2  2A43               	incf	listedenSil@k^0,f,c
  2845  0016F4                     l2570:
  2846                           
  2847                           ; BSR set to: 0
  2848                           ;../../../../../kaynak/gorev.c: 99:     while(k < cSayim) {
  2849  0016F4  5042               	movf	listedenSil@cSayim^0,w,c
  2850  0016F6  5C43               	subwf	listedenSil@k^0,w,c
  2851  0016F8  B0D8               	btfsc	status,0,c
  2852  0016FA  D7D7               	goto	l2560
  2853  0016FC  D7E8               	goto	l2566
  2854  0016FE                     __end_of_listedenSil:
  2855                           	callstack 0
  2856                           
  2857 ;; *************** function _uckuyrukKuyruktanAl *****************
  2858 ;; Defined at:
  2859 ;;		line 85 in file "../../../../../kaynak/uckuyruk.c"
  2860 ;; Parameters:    Size  Location     Type
  2861 ;;  kuyruk          1   15[COMRAM] PTR struct .
  2862 ;;		 -> kuyruk2(4), 
  2863 ;; Auto vars:     Size  Location     Type
  2864 ;;  bas             1   18[COMRAM] unsigned char 
  2865 ;;  b               1   17[COMRAM] unsigned char 
  2866 ;; Return value:  Size  Location     Type
  2867 ;;                  1    wreg      unsigned char 
  2868 ;; Registers used:
  2869 ;;		wreg, fsr2l, fsr2h, status,2, status,0, cstack
  2870 ;; Tracked objects:
  2871 ;;		On entry : 0/0
  2872 ;;		On exit  : 0/0
  2873 ;;		Unchanged: 0/0
  2874 ;; Data sizes:     COMRAM   BANK0   BANK1   BANK2   BANK3   BANK4   BANK5   BANK6   BANK7   BANK8   BANK9  BANK10  BANK1
      +1  BANK12  BANK13  BANK14  BANK15
  2875 ;;      Params:         1       0       0       0       0       0       0       0       0       0       0       0       
      +0       0       0       0       0
  2876 ;;      Locals:         2       0       0       0       0       0       0       0       0       0       0       0       
      +0       0       0       0       0
  2877 ;;      Temps:          1       0       0       0       0       0       0       0       0       0       0       0       
      +0       0       0       0       0
  2878 ;;      Totals:         4       0       0       0       0       0       0       0       0       0       0       0       
      +0       0       0       0       0
  2879 ;;Total ram usage:        4 bytes
  2880 ;; Hardware stack levels used:    1
  2881 ;; Hardware stack levels required when called:    4
  2882 ;; This function calls:
  2883 ;;		_uckuyrukBos
  2884 ;; This function is called by:
  2885 ;;		_gostergeDegerleriGuncelle
  2886 ;; This function uses a non-reentrant model
  2887 ;;
  2888                           
  2889                           	psect	text18
  2890  001846                     __ptext18:
  2891                           	callstack 0
  2892  001846                     _uckuyrukKuyruktanAl:
  2893                           	callstack 23
  2894                           
  2895                           ;../../../../../kaynak/uckuyruk.c: 87:     if(uckuyrukBos(kuyruk)) return 0;
  2896                           
  2897                           ; BSR set to: 0
  2898                           ;incstack = 0
  2899  001846  C03A  F039         	movff	uckuyrukKuyruktanAl@kuyruk,uckuyrukBos@kuyruk
  2900  00184A  EC58  F00D         	call	_uckuyrukBos	;wreg free
  2901  00184E  0900               	iorlw	0
  2902  001850  B4D8               	btfsc	status,2,c
  2903  001852  D002               	goto	l2524
  2904  001854  0E00               	movlw	0
  2905  001856  0012               	return	
  2906  001858                     l2524:
  2907                           
  2908                           ;../../../../../kaynak/uckuyruk.c: 88:     unsigned char bas = kuyruk->bas;
  2909  001858  503A               	movf	uckuyrukKuyruktanAl@kuyruk^0,w,c
  2910  00185A  6ED9               	movwf	fsr2l,c
  2911  00185C  6ADA               	clrf	fsr2h,c
  2912  00185E  0E02               	movlw	2
  2913  001860  26D9               	addwf	fsr2l,f,c
  2914  001862  50DF               	movf	indf2,w,c
  2915  001864  6E3D               	movwf	uckuyrukKuyruktanAl@bas^0,c
  2916                           
  2917                           ;../../../../../kaynak/uckuyruk.c: 89:  unsigned char b;;../../../../../kaynak/uckuyruk.
      +                          c: 91:  b = *( (kuyruk->veri) + bas);
  2918  001866  503A               	movf	uckuyrukKuyruktanAl@kuyruk^0,w,c
  2919  001868  6ED9               	movwf	fsr2l,c
  2920  00186A  6ADA               	clrf	fsr2h,c
  2921  00186C  0E03               	movlw	3
  2922  00186E  26D9               	addwf	fsr2l,f,c
  2923  001870  50DF               	movf	indf2,w,c
  2924  001872  243D               	addwf	uckuyrukKuyruktanAl@bas^0,w,c
  2925  001874  6ED9               	movwf	fsr2l,c
  2926  001876  6ADA               	clrf	fsr2h,c
  2927  001878  50DF               	movf	indf2,w,c
  2928  00187A  6E3C               	movwf	uckuyrukKuyruktanAl@b^0,c
  2929                           
  2930                           ;../../../../../kaynak/uckuyruk.c: 92:     bas++;
  2931  00187C  2A3D               	incf	uckuyrukKuyruktanAl@bas^0,f,c
  2932                           
  2933                           ;../../../../../kaynak/uckuyruk.c: 93:     kuyruk->sayim--;
  2934  00187E  503A               	movf	uckuyrukKuyruktanAl@kuyruk^0,w,c
  2935  001880  6ED9               	movwf	fsr2l,c
  2936  001882  6ADA               	clrf	fsr2h,c
  2937  001884  0E01               	movlw	1
  2938  001886  26D9               	addwf	fsr2l,f,c
  2939  001888  06DF               	decf	indf2,f,c
  2940                           
  2941                           ;../../../../../kaynak/uckuyruk.c: 94:     if(bas >= kuyruk->kapasite) bas = 0;
  2942  00188A  503A               	movf	uckuyrukKuyruktanAl@kuyruk^0,w,c
  2943  00188C  6ED9               	movwf	fsr2l,c
  2944  00188E  6ADA               	clrf	fsr2h,c
  2945  001890  50DE               	movf	postinc2,w,c
  2946  001892  5C3D               	subwf	uckuyrukKuyruktanAl@bas^0,w,c
  2947  001894  A0D8               	btfss	status,0,c
  2948  001896  D002               	goto	l2534
  2949  001898  0E00               	movlw	0
  2950  00189A  6E3D               	movwf	uckuyrukKuyruktanAl@bas^0,c
  2951  00189C                     l2534:
  2952                           
  2953                           ;../../../../../kaynak/uckuyruk.c: 95:     kuyruk->bas = bas;
  2954  00189C  503A               	movf	uckuyrukKuyruktanAl@kuyruk^0,w,c
  2955  00189E  6ED9               	movwf	fsr2l,c
  2956  0018A0  6ADA               	clrf	fsr2h,c
  2957  0018A2  0E02               	movlw	2
  2958  0018A4  26D9               	addwf	fsr2l,f,c
  2959  0018A6  C03D  FFDF         	movff	uckuyrukKuyruktanAl@bas,indf2
  2960                           
  2961                           ;../../../../../kaynak/uckuyruk.c: 97:  return b;
  2962  0018AA  503C               	movf	uckuyrukKuyruktanAl@b^0,w,c
  2963  0018AC  0012               	return		;funcret
  2964  0018AE                     __end_of_uckuyrukKuyruktanAl:
  2965                           	callstack 0
  2966                           
  2967 ;; *************** function _uckuyrukBos *****************
  2968 ;; Defined at:
  2969 ;;		line 131 in file "../../../../../kaynak/uckuyruk.c"
  2970 ;; Parameters:    Size  Location     Type
  2971 ;;  kuyruk          1   14[COMRAM] PTR struct .
  2972 ;;		 -> kuyruk2(4), kuyruk1(4), 
  2973 ;; Auto vars:     Size  Location     Type
  2974 ;;		None
  2975 ;; Return value:  Size  Location     Type
  2976 ;;                  1    wreg      unsigned char 
  2977 ;; Registers used:
  2978 ;;		wreg, fsr2l, fsr2h, status,2, status,0
  2979 ;; Tracked objects:
  2980 ;;		On entry : 0/0
  2981 ;;		On exit  : 0/0
  2982 ;;		Unchanged: 0/0
  2983 ;; Data sizes:     COMRAM   BANK0   BANK1   BANK2   BANK3   BANK4   BANK5   BANK6   BANK7   BANK8   BANK9  BANK10  BANK1
      +1  BANK12  BANK13  BANK14  BANK15
  2984 ;;      Params:         1       0       0       0       0       0       0       0       0       0       0       0       
      +0       0       0       0       0
  2985 ;;      Locals:         0       0       0       0       0       0       0       0       0       0       0       0       
      +0       0       0       0       0
  2986 ;;      Temps:          0       0       0       0       0       0       0       0       0       0       0       0       
      +0       0       0       0       0
  2987 ;;      Totals:         1       0       0       0       0       0       0       0       0       0       0       0       
      +0       0       0       0       0
  2988 ;;Total ram usage:        1 bytes
  2989 ;; Hardware stack levels used:    1
  2990 ;; Hardware stack levels required when called:    3
  2991 ;; This function calls:
  2992 ;;		Nothing
  2993 ;; This function is called by:
  2994 ;;		_uretici2
  2995 ;;		_gostergeDegerleriGuncelle
  2996 ;;		_uckuyrukKuyruktanAl
  2997 ;; This function uses a non-reentrant model
  2998 ;;
  2999                           
  3000                           	psect	text19
  3001  001AB0                     __ptext19:
  3002                           	callstack 0
  3003  001AB0                     _uckuyrukBos:
  3004                           	callstack 24
  3005                           
  3006                           ;../../../../../kaynak/uckuyruk.c: 132:  return kuyruk->sayim == 0;
  3007                           
  3008                           ;incstack = 0
  3009  001AB0  5039               	movf	uckuyrukBos@kuyruk^0,w,c
  3010  001AB2  6ED9               	movwf	fsr2l,c
  3011  001AB4  6ADA               	clrf	fsr2h,c
  3012  001AB6  0E01               	movlw	1
  3013  001AB8  26D9               	addwf	fsr2l,f,c
  3014  001ABA  50DF               	movf	indf2,w,c
  3015  001ABC  A4D8               	btfss	status,2,c
  3016  001ABE  D002               	goto	u1180
  3017  001AC0  0E01               	movlw	1
  3018  001AC2  0012               	return	
  3019  001AC4                     u1180:
  3020  001AC4  0E00               	movlw	0
  3021  001AC6  0012               	return		;funcret
  3022  001AC8                     __end_of_uckuyrukBos:
  3023                           	callstack 0
  3024                           
  3025 ;; *************** function _tikSayiminiAl *****************
  3026 ;; Defined at:
  3027 ;;		line 148 in file "../../../../../kaynak/gorev.c"
  3028 ;; Parameters:    Size  Location     Type
  3029 ;;		None
  3030 ;; Auto vars:     Size  Location     Type
  3031 ;;  sayim           2   16[COMRAM] unsigned int 
  3032 ;; Return value:  Size  Location     Type
  3033 ;;                  2   14[COMRAM] unsigned int 
  3034 ;; Registers used:
  3035 ;;		None
  3036 ;; Tracked objects:
  3037 ;;		On entry : 0/F
  3038 ;;		On exit  : 0/0
  3039 ;;		Unchanged: 0/0
  3040 ;; Data sizes:     COMRAM   BANK0   BANK1   BANK2   BANK3   BANK4   BANK5   BANK6   BANK7   BANK8   BANK9  BANK10  BANK1
      +1  BANK12  BANK13  BANK14  BANK15
  3041 ;;      Params:         2       0       0       0       0       0       0       0       0       0       0       0       
      +0       0       0       0       0
  3042 ;;      Locals:         2       0       0       0       0       0       0       0       0       0       0       0       
      +0       0       0       0       0
  3043 ;;      Temps:          0       0       0       0       0       0       0       0       0       0       0       0       
      +0       0       0       0       0
  3044 ;;      Totals:         4       0       0       0       0       0       0       0       0       0       0       0       
      +0       0       0       0       0
  3045 ;;Total ram usage:        4 bytes
  3046 ;; Hardware stack levels used:    1
  3047 ;; Hardware stack levels required when called:    3
  3048 ;; This function calls:
  3049 ;;		Nothing
  3050 ;; This function is called by:
  3051 ;;		_gostergeDegerleriGuncelle
  3052 ;;		_gostergeTara
  3053 ;; This function uses a non-reentrant model
  3054 ;;
  3055                           
  3056                           	psect	text20
  3057  001A7C                     __ptext20:
  3058                           	callstack 0
  3059  001A7C                     _tikSayiminiAl:
  3060                           	callstack 24
  3061                           
  3062                           ;../../../../../kaynak/gorev.c: 149:  unsigned int sayim;;../../../../../kaynak/gorev.c:
      +                           151:  intconYedek = INTCON; INTCONbits.GIEH = 0;;
  3063                           
  3064                           ;incstack = 0
  3065  001A7C  CFF2 F01A          	movff	4082,_intconYedek@portmacro$F427	;volatile
  3066  001A80  9EF2               	bcf	242,7,c	;volatile
  3067                           
  3068                           ;../../../../../kaynak/gorev.c: 152:  sayim = tikSayimi;
  3069  001A82  C00D  F03B         	movff	_tikSayimi,tikSayiminiAl@sayim
  3070  001A86  C00E  F03C         	movff	_tikSayimi+1,tikSayiminiAl@sayim+1
  3071                           
  3072                           ;../../../../../kaynak/gorev.c: 154:  if(intconYedek & 0x80){ INTCONbits.GIEH = 1;; };
  3073  001A8A  BE1A               	btfsc	_intconYedek@portmacro$F427^0,7,c
  3074  001A8C  8EF2               	bsf	242,7,c	;volatile
  3075                           
  3076                           ;../../../../../kaynak/gorev.c: 155:  return sayim;
  3077  001A8E  C03B  F039         	movff	tikSayiminiAl@sayim,?_tikSayiminiAl
  3078  001A92  C03C  F03A         	movff	tikSayiminiAl@sayim+1,?_tikSayiminiAl+1
  3079  001A96  0012               	return		;funcret
  3080  001A98                     __end_of_tikSayiminiAl:
  3081                           	callstack 0
  3082                           
  3083 ;; *************** function _gorevOlustur *****************
  3084 ;; Defined at:
  3085 ;;		line 109 in file "../../../../../kaynak/gorev.c"
  3086 ;; Parameters:    Size  Location     Type
  3087 ;;  is              2   20[COMRAM] PTR FTN(PTR void ,)unsig
  3088 ;;		 -> gostergeTara(1), gostergeDegerleriGuncelle(1), uretici2(1), uretici1(1), 
  3089 ;; Auto vars:     Size  Location     Type
  3090 ;;  gkb             1   22[COMRAM] PTR struct .
  3091 ;;		 -> gorevHeap(24), 
  3092 ;; Return value:  Size  Location     Type
  3093 ;;                  2   20[COMRAM] PTR struct .
  3094 ;; Registers used:
  3095 ;;		wreg, fsr2l, fsr2h, status,2, status,0, prodl, prodh, cstack
  3096 ;; Tracked objects:
  3097 ;;		On entry : 0/0
  3098 ;;		On exit  : 0/0
  3099 ;;		Unchanged: 0/0
  3100 ;; Data sizes:     COMRAM   BANK0   BANK1   BANK2   BANK3   BANK4   BANK5   BANK6   BANK7   BANK8   BANK9  BANK10  BANK1
      +1  BANK12  BANK13  BANK14  BANK15
  3101 ;;      Params:         2       0       0       0       0       0       0       0       0       0       0       0       
      +0       0       0       0       0
  3102 ;;      Locals:         1       0       0       0       0       0       0       0       0       0       0       0       
      +0       0       0       0       0
  3103 ;;      Temps:          0       0       0       0       0       0       0       0       0       0       0       0       
      +0       0       0       0       0
  3104 ;;      Totals:         3       0       0       0       0       0       0       0       0       0       0       0       
      +0       0       0       0       0
  3105 ;;Total ram usage:        3 bytes
  3106 ;; Hardware stack levels used:    1
  3107 ;; Hardware stack levels required when called:    4
  3108 ;; This function calls:
  3109 ;;		_listeyeEkle
  3110 ;; This function is called by:
  3111 ;;		_main
  3112 ;; This function uses a non-reentrant model
  3113 ;;
  3114                           
  3115                           	psect	text21
  3116  00190A                     __ptext21:
  3117                           	callstack 0
  3118  00190A                     _gorevOlustur:
  3119                           	callstack 26
  3120                           
  3121                           ;../../../../../kaynak/gorev.c: 110:     gorev_t *gkb;;../../../../../kaynak/gorev.c: 11
      +                          2:  if(gorevSayimi >= 6) return ((void*)0);
  3122                           
  3123                           ;incstack = 0
  3124  00190A  0E05               	movlw	5
  3125  00190C  6419               	cpfsgt	_gorevSayimi^0,c
  3126  00190E  D001               	goto	l2946
  3127  001910  0012               	return	
  3128  001912                     l2946:
  3129                           
  3130                           ;../../../../../kaynak/gorev.c: 113:     gkb = &gorevHeap[gorevSayimi++];
  3131  001912  5019               	movf	_gorevSayimi^0,w,c
  3132  001914  0D04               	mullw	4
  3133  001916  50F3               	movf	243,w,c
  3134  001918  0F60               	addlw	low _gorevHeap
  3135  00191A  6E41               	movwf	gorevOlustur@gkb^0,c
  3136  00191C  2A19               	incf	_gorevSayimi^0,f,c
  3137                           
  3138                           ;../../../../../kaynak/gorev.c: 114:  gkb->is = is;
  3139  00191E  5041               	movf	gorevOlustur@gkb^0,w,c
  3140  001920  6ED9               	movwf	fsr2l,c
  3141  001922  6ADA               	clrf	fsr2h,c
  3142  001924  0E02               	movlw	2
  3143  001926  26D9               	addwf	fsr2l,f,c
  3144  001928  C03F  FFDE         	movff	gorevOlustur@is,postinc2
  3145  00192C  C040  FFDD         	movff	gorevOlustur@is+1,postdec2
  3146                           
  3147                           ;../../../../../kaynak/gorev.c: 115:  ( (gorev_t*) gkb )->sn = 0;
  3148  001930  5041               	movf	gorevOlustur@gkb^0,w,c
  3149  001932  6ED9               	movwf	fsr2l,c
  3150  001934  6ADA               	clrf	fsr2h,c
  3151  001936  0E00               	movlw	0
  3152  001938  6EDE               	movwf	postinc2,c
  3153  00193A  0E00               	movlw	0
  3154  00193C  6EDD               	movwf	postdec2,c
  3155                           
  3156                           ;../../../../../kaynak/gorev.c: 116:     listeyeEkle(calisanListesi, &calisanSayimi, 6, 
      +                          gkb);
  3157  00193E  0E78               	movlw	low _calisanListesi
  3158  001940  6E39               	movwf	listeyeEkle@liste^0,c
  3159  001942  0E2A               	movlw	low _calisanSayimi
  3160  001944  6E3A               	movwf	listeyeEkle@sayim^0,c
  3161  001946  0E06               	movlw	6
  3162  001948  6E3B               	movwf	listeyeEkle@max^0,c
  3163  00194A  C041  F03C         	movff	gorevOlustur@gkb,listeyeEkle@glo
  3164  00194E  6A3D               	clrf	(listeyeEkle@glo+1)^0,c
  3165  001950  ECE7  F00C         	call	_listeyeEkle	;wreg free
  3166  001954  0012               	return		;funcret
  3167  001956                     __end_of_gorevOlustur:
  3168                           	callstack 0
  3169                           
  3170 ;; *************** function _listeyeEkle *****************
  3171 ;; Defined at:
  3172 ;;		line 68 in file "../../../../../kaynak/gorev.c"
  3173 ;; Parameters:    Size  Location     Type
  3174 ;;  liste           1   14[COMRAM] PTR PTR struct .
  3175 ;;		 -> cikanListesi(4), calisanListesi(12), 
  3176 ;;  sayim           1   15[COMRAM] PTR unsigned char 
  3177 ;;		 -> cikanSayimi(1), calisanSayimi(1), 
  3178 ;;  max             1   16[COMRAM] unsigned char 
  3179 ;;  glo             2   17[COMRAM] PTR struct .
  3180 ;;		 -> gorevHeap(24), NULL(0), 
  3181 ;; Auto vars:     Size  Location     Type
  3182 ;;  cSayim          1   19[COMRAM] const unsigned char 
  3183 ;; Return value:  Size  Location     Type
  3184 ;;                  1    wreg      void 
  3185 ;; Registers used:
  3186 ;;		wreg, fsr2l, fsr2h, status,2, status,0, prodl, prodh
  3187 ;; Tracked objects:
  3188 ;;		On entry : 0/0
  3189 ;;		On exit  : 0/0
  3190 ;;		Unchanged: 0/0
  3191 ;; Data sizes:     COMRAM   BANK0   BANK1   BANK2   BANK3   BANK4   BANK5   BANK6   BANK7   BANK8   BANK9  BANK10  BANK1
      +1  BANK12  BANK13  BANK14  BANK15
  3192 ;;      Params:         5       0       0       0       0       0       0       0       0       0       0       0       
      +0       0       0       0       0
  3193 ;;      Locals:         1       0       0       0       0       0       0       0       0       0       0       0       
      +0       0       0       0       0
  3194 ;;      Temps:          0       0       0       0       0       0       0       0       0       0       0       0       
      +0       0       0       0       0
  3195 ;;      Totals:         6       0       0       0       0       0       0       0       0       0       0       0       
      +0       0       0       0       0
  3196 ;;Total ram usage:        6 bytes
  3197 ;; Hardware stack levels used:    1
  3198 ;; Hardware stack levels required when called:    3
  3199 ;; This function calls:
  3200 ;;		Nothing
  3201 ;; This function is called by:
  3202 ;;		_gorevOlustur
  3203 ;;		_gorevciyiBaslat
  3204 ;; This function uses a non-reentrant model
  3205 ;;
  3206                           
  3207                           	psect	text22
  3208  0019CE                     __ptext22:
  3209                           	callstack 0
  3210  0019CE                     _listeyeEkle:
  3211                           	callstack 25
  3212                           
  3213                           ;../../../../../kaynak/gorev.c: 68: static void listeyeEkle(gorevListeOgesi_t liste[],;.
      +                          ./../../../../kaynak/gorev.c: 69:         char *sayim, char max, gorevListeOgesi_t glo) 
      +                          {;../../../../../kaynak/gorev.c: 71:     const char cSayim = *sayim;
  3214                           
  3215                           ;incstack = 0
  3216  0019CE  503A               	movf	listeyeEkle@sayim^0,w,c
  3217  0019D0  6ED9               	movwf	fsr2l,c
  3218  0019D2  6ADA               	clrf	fsr2h,c
  3219  0019D4  50DF               	movf	indf2,w,c
  3220  0019D6  6E3E               	movwf	listeyeEkle@cSayim^0,c
  3221                           
  3222                           ;../../../../../kaynak/gorev.c: 74:     if(cSayim >= max) return;
  3223  0019D8  503B               	movf	listeyeEkle@max^0,w,c
  3224  0019DA  5C3E               	subwf	listeyeEkle@cSayim^0,w,c
  3225  0019DC  B0D8               	btfsc	status,0,c
  3226  0019DE  0012               	return	
  3227                           
  3228                           ;../../../../../kaynak/gorev.c: 76:     liste[cSayim] = glo;
  3229  0019E0  503E               	movf	listeyeEkle@cSayim^0,w,c
  3230  0019E2  0D02               	mullw	2
  3231  0019E4  5039               	movf	listeyeEkle@liste^0,w,c
  3232  0019E6  24F3               	addwf	243,w,c
  3233  0019E8  6ED9               	movwf	fsr2l,c
  3234  0019EA  6ADA               	clrf	fsr2h,c
  3235  0019EC  C03C  FFDE         	movff	listeyeEkle@glo,postinc2
  3236  0019F0  C03D  FFDD         	movff	listeyeEkle@glo+1,postdec2
  3237                           
  3238                           ;../../../../../kaynak/gorev.c: 77:     (*sayim)++;
  3239  0019F4  503A               	movf	listeyeEkle@sayim^0,w,c
  3240  0019F6  6ED9               	movwf	fsr2l,c
  3241  0019F8  6ADA               	clrf	fsr2h,c
  3242  0019FA  2ADF               	incf	indf2,f,c
  3243  0019FC  0012               	return		;funcret
  3244  0019FE                     __end_of_listeyeEkle:
  3245                           	callstack 0
  3246                           
  3247 ;; *************** function _interruptYonetici *****************
  3248 ;; Defined at:
  3249 ;;		line 50 in file "interrupt.c"
  3250 ;; Parameters:    Size  Location     Type
  3251 ;;		None
  3252 ;; Auto vars:     Size  Location     Type
  3253 ;;		None
  3254 ;; Return value:  Size  Location     Type
  3255 ;;                  1    wreg      void 
  3256 ;; Registers used:
  3257 ;;		wreg, fsr0l, fsr0h, fsr1l, fsr1h, fsr1l, fsr1h, fsr2l, fsr2h, status,2, status,0, pclath, btemp, btemp+1, btemp+2, b
      +temp+3, btemp+4, btemp+5, btemp+6, btemp+7, btemp+8, btemp+9, btemp+10, btemp+11, btemp+12, btemp+13, btemp+14, btemp+15
      +, btemp+16, btemp+17, btemp+18, btemp+19, btemp+20, btemp+21, btemp+22, btemp+23, btemp+24, btemp+25, btemp+26, btemp+27
      +, btemp+28, btemp+29, btemp+30, btemp+31, tosl, structret, tblptrl, tblptrh, tblptru, prodl, prodh, bsr, cstack
  3258 ;; Tracked objects:
  3259 ;;		On entry : 0/0
  3260 ;;		On exit  : 0/0
  3261 ;;		Unchanged: 0/0
  3262 ;; Data sizes:     COMRAM   BANK0   BANK1   BANK2   BANK3   BANK4   BANK5   BANK6   BANK7   BANK8   BANK9  BANK10  BANK1
      +1  BANK12  BANK13  BANK14  BANK15
  3263 ;;      Params:         0       0       0       0       0       0       0       0       0       0       0       0       
      +0       0       0       0       0
  3264 ;;      Locals:         0       0       0       0       0       0       0       0       0       0       0       0       
      +0       0       0       0       0
  3265 ;;      Temps:         14       0       0       0       0       0       0       0       0       0       0       0       
      +0       0       0       0       0
  3266 ;;      Totals:        14       0       0       0       0       0       0       0       0       0       0       0       
      +0       0       0       0       0
  3267 ;;Total ram usage:       14 bytes
  3268 ;; Hardware stack levels used:    1
  3269 ;; Hardware stack levels required when called:    2
  3270 ;; This function calls:
  3271 ;;		Absolute function
  3272 ;;		_sisTimerKesmeIsleyici
  3273 ;; This function is called by:
  3274 ;;		Interrupt level 2
  3275 ;; This function uses a non-reentrant model
  3276 ;;
  3277                           
  3278                           	psect	intcode
  3279  000008                     __pintcode:
  3280                           	callstack 0
  3281  000008                     _interruptYonetici:
  3282                           	callstack 23
  3283                           
  3284                           ;incstack = 0
  3285  000008  8250               	bsf	btemp,1,c	;set compiler interrupt flag (level 2)
  3286  00000A  CFFA F02B          	movff	pclath,??_interruptYonetici
  3287  00000E  CFFB F02C          	movff	pclatu,??_interruptYonetici+1
  3288  000012  CFE9 F02D          	movff	fsr0l,??_interruptYonetici+2
  3289  000016  CFEA F02E          	movff	fsr0h,??_interruptYonetici+3
  3290  00001A  CFE1 F02F          	movff	fsr1l,??_interruptYonetici+4
  3291  00001E  CFE2 F030          	movff	fsr1h,??_interruptYonetici+5
  3292  000022  CFD9 F031          	movff	fsr2l,??_interruptYonetici+6
  3293  000026  CFDA F032          	movff	fsr2h,??_interruptYonetici+7
  3294  00002A  CFF3 F033          	movff	prodl,??_interruptYonetici+8
  3295  00002E  CFF4 F034          	movff	prodh,??_interruptYonetici+9
  3296  000032  CFF6 F035          	movff	tblptrl,??_interruptYonetici+10
  3297  000036  CFF7 F036          	movff	tblptrh,??_interruptYonetici+11
  3298  00003A  CFF8 F037          	movff	tblptru,??_interruptYonetici+12
  3299  00003E  CFF5 F038          	movff	tablat,??_interruptYonetici+13
  3300                           
  3301                           ;interrupt.c: 52:     if(INTCONbits.TMR0IF == 1 && INTCONbits.TMR0IF == 1){
  3302  000042  B4F2               	btfsc	242,2,c	;volatile
  3303  000044  A4F2               	btfss	242,2,c	;volatile
  3304  000046  D00C               	goto	i2l39
  3305                           
  3306                           ;interrupt.c: 53:         TMR0IF = 0;
  3307  000048  94F2               	bcf	4082,2,c	;volatile
  3308                           
  3309                           ;interrupt.c: 54:         (*timer0KesmeIsleyici)();
  3310  00004A  D801               	call	i2u58_48
  3311  00004C  D014               	goto	i2l46
  3312  00004E                     i2u58_48:
  3313  00004E  0005               	push	
  3314  000050  6EFA               	movwf	pclath,c
  3315  000052  5015               	movf	_timer0KesmeIsleyici^0,w,c
  3316  000054  6EFD               	movwf	tosl,c
  3317  000056  5016               	movf	(_timer0KesmeIsleyici+1)^0,w,c
  3318  000058  6EFE               	movwf	tosh,c
  3319  00005A  6AFF               	clrf	tosu,c
  3320  00005C  50FA               	movf	pclath,w,c
  3321  00005E  0012               	return		;indir
  3322  000060                     i2l39:
  3323  000060  ACF2               	btfss	242,6,c	;volatile
  3324  000062  D009               	goto	i2l46
  3325                           
  3326                           ;interrupt.c: 57:         if(PIE1bits.RCIE == 1 && PIR1bits.RCIF == 1){
  3327  000064  BA9D               	btfsc	157,5,c	;volatile
  3328  000066  AA9E               	btfss	158,5,c	;volatile
  3329  000068  D002               	goto	i2l42
  3330                           
  3331                           ;interrupt.c: 58:             RCIF = 0;
  3332  00006A  9A9E               	bcf	3998,5,c	;volatile
  3333                           
  3334                           ;interrupt.c: 59:         }
  3335  00006C  D004               	goto	i2l46
  3336  00006E                     i2l42:
  3337  00006E  B89D               	btfsc	3997,4,c	;volatile
  3338  000070  A89E               	btfss	3998,4,c	;volatile
  3339  000072  D001               	goto	i2l46
  3340                           
  3341                           ;interrupt.c: 61:             TXIF = 0;
  3342  000074  989E               	bcf	3998,4,c	;volatile
  3343  000076                     i2l46:
  3344  000076  C038  FFF5         	movff	??_interruptYonetici+13,tablat
  3345  00007A  C037  FFF8         	movff	??_interruptYonetici+12,tblptru
  3346  00007E  C036  FFF7         	movff	??_interruptYonetici+11,tblptrh
  3347  000082  C035  FFF6         	movff	??_interruptYonetici+10,tblptrl
  3348  000086  C034  FFF4         	movff	??_interruptYonetici+9,prodh
  3349  00008A  C033  FFF3         	movff	??_interruptYonetici+8,prodl
  3350  00008E  C032  FFDA         	movff	??_interruptYonetici+7,fsr2h
  3351  000092  C031  FFD9         	movff	??_interruptYonetici+6,fsr2l
  3352  000096  C030  FFE2         	movff	??_interruptYonetici+5,fsr1h
  3353  00009A  C02F  FFE1         	movff	??_interruptYonetici+4,fsr1l
  3354  00009E  C02E  FFEA         	movff	??_interruptYonetici+3,fsr0h
  3355  0000A2  C02D  FFE9         	movff	??_interruptYonetici+2,fsr0l
  3356  0000A6  C02C  FFFB         	movff	??_interruptYonetici+1,pclatu
  3357  0000AA  C02B  FFFA         	movff	??_interruptYonetici,pclath
  3358  0000AE  9250               	bcf	btemp,1,c	;clear compiler interrupt flag (level 2)
  3359  0000B0  0011               	retfie		f
  3360  0000B2                     __end_of_interruptYonetici:
  3361                           	callstack 0
  3362                           
  3363 ;; *************** function _sisTimerKesmeIsleyici *****************
  3364 ;; Defined at:
  3365 ;;		line 125 in file "sistimer.c"
  3366 ;; Parameters:    Size  Location     Type
  3367 ;;		None
  3368 ;; Auto vars:     Size  Location     Type
  3369 ;;		None
  3370 ;; Return value:  Size  Location     Type
  3371 ;;                  1    wreg      void 
  3372 ;; Registers used:
  3373 ;;		wreg, fsr0l, fsr0h, fsr1l, fsr1h, fsr1l, fsr1h, fsr2l, fsr2h, status,2, status,0, pclath, btemp, btemp+1, btemp+2, b
      +temp+3, btemp+4, btemp+5, btemp+6, btemp+7, btemp+8, btemp+9, btemp+10, btemp+11, btemp+12, btemp+13, btemp+14, btemp+15
      +, btemp+16, btemp+17, btemp+18, btemp+19, btemp+20, btemp+21, btemp+22, btemp+23, btemp+24, btemp+25, btemp+26, btemp+27
      +, btemp+28, btemp+29, btemp+30, btemp+31, tosl, structret, tblptrl, tblptrh, tblptru, prodl, prodh, bsr, cstack
  3374 ;; Tracked objects:
  3375 ;;		On entry : 0/0
  3376 ;;		On exit  : 0/0
  3377 ;;		Unchanged: 0/0
  3378 ;; Data sizes:     COMRAM   BANK0   BANK1   BANK2   BANK3   BANK4   BANK5   BANK6   BANK7   BANK8   BANK9  BANK10  BANK1
      +1  BANK12  BANK13  BANK14  BANK15
  3379 ;;      Params:         0       0       0       0       0       0       0       0       0       0       0       0       
      +0       0       0       0       0
  3380 ;;      Locals:         0       0       0       0       0       0       0       0       0       0       0       0       
      +0       0       0       0       0
  3381 ;;      Temps:          0       0       0       0       0       0       0       0       0       0       0       0       
      +0       0       0       0       0
  3382 ;;      Totals:         0       0       0       0       0       0       0       0       0       0       0       0       
      +0       0       0       0       0
  3383 ;;Total ram usage:        0 bytes
  3384 ;; Hardware stack levels used:    1
  3385 ;; Hardware stack levels required when called:    1
  3386 ;; This function calls:
  3387 ;;		Absolute function
  3388 ;;		_sisTikKesmeIsleyici
  3389 ;;		_sisTimerIsleyiciVarsayilan
  3390 ;; This function is called by:
  3391 ;;		_sisTimerIlkle
  3392 ;;		_interruptYonetici
  3393 ;; This function uses a non-reentrant model
  3394 ;;
  3395                           
  3396                           	psect	text24
  3397  001A5E                     __ptext24:
  3398                           	callstack 0
  3399  001A5E                     _sisTimerKesmeIsleyici:
  3400                           	callstack 23
  3401                           
  3402                           ;sistimer.c: 127:     TMR0 = (uint16_t) ((uint16_t)((65536)-((( (1000) - ( ( ( 52 ) * ( 
      +                          ( 1 * ( 100 ) ) / ( (16000000 / 4 ) / 1000000 ) ) ) / ( 100 ) ) )* (16000000/1000000))/(
      +                          4*(1)))-1));
  3403                           
  3404                           ;incstack = 0
  3405  001A5E  0EF0               	movlw	240
  3406  001A60  6ED7               	movwf	215,c	;volatile
  3407  001A62  0E93               	movlw	147
  3408  001A64  6ED6               	movwf	214,c	;volatile
  3409                           
  3410                           ;sistimer.c: 131:     (*sisTimerDisIsleyici)();
  3411  001A66  D801               	call	i2u54_48
  3412  001A68  0012               	return	
  3413  001A6A                     i2u54_48:
  3414  001A6A  0005               	push	
  3415  001A6C  6EFA               	movwf	pclath,c
  3416  001A6E  500F               	movf	_sisTimerDisIsleyici^0,w,c
  3417  001A70  6EFD               	movwf	tosl,c
  3418  001A72  5010               	movf	(_sisTimerDisIsleyici+1)^0,w,c
  3419  001A74  6EFE               	movwf	tosh,c
  3420  001A76  6AFF               	clrf	tosu,c
  3421  001A78  50FA               	movf	pclath,w,c
  3422  001A7A  0012               	return		;indir
  3423  001A7C                     __end_of_sisTimerKesmeIsleyici:
  3424                           	callstack 0
  3425                           
  3426 ;; *************** function _sisTikKesmeIsleyici *****************
  3427 ;; Defined at:
  3428 ;;		line 161 in file "../../../../../kaynak/gorev.c"
  3429 ;; Parameters:    Size  Location     Type
  3430 ;;		None
  3431 ;; Auto vars:     Size  Location     Type
  3432 ;;		None
  3433 ;; Return value:  Size  Location     Type
  3434 ;;                  1    wreg      void 
  3435 ;; Registers used:
  3436 ;;		status,2, status,0
  3437 ;; Tracked objects:
  3438 ;;		On entry : 0/0
  3439 ;;		On exit  : 0/0
  3440 ;;		Unchanged: 0/0
  3441 ;; Data sizes:     COMRAM   BANK0   BANK1   BANK2   BANK3   BANK4   BANK5   BANK6   BANK7   BANK8   BANK9  BANK10  BANK1
      +1  BANK12  BANK13  BANK14  BANK15
  3442 ;;      Params:         0       0       0       0       0       0       0       0       0       0       0       0       
      +0       0       0       0       0
  3443 ;;      Locals:         0       0       0       0       0       0       0       0       0       0       0       0       
      +0       0       0       0       0
  3444 ;;      Temps:          0       0       0       0       0       0       0       0       0       0       0       0       
      +0       0       0       0       0
  3445 ;;      Totals:         0       0       0       0       0       0       0       0       0       0       0       0       
      +0       0       0       0       0
  3446 ;;Total ram usage:        0 bytes
  3447 ;; Hardware stack levels used:    1
  3448 ;; This function calls:
  3449 ;;		Nothing
  3450 ;; This function is called by:
  3451 ;;		_portGorevciyiBaslat
  3452 ;;		_sisTimerKesmeIsleyici
  3453 ;; This function uses a non-reentrant model
  3454 ;;
  3455                           
  3456                           	psect	text25
  3457  001AEE                     __ptext25:
  3458                           	callstack 0
  3459  001AEE                     _sisTikKesmeIsleyici:
  3460                           	callstack 23
  3461                           
  3462                           ;../../../../../kaynak/gorev.c: 162:  tikSayimi++;
  3463                           
  3464                           ;incstack = 0
  3465  001AEE  4A0D               	infsnz	_tikSayimi^0,f,c
  3466  001AF0  2A0E               	incf	(_tikSayimi+1)^0,f,c
  3467  001AF2  0012               	return		;funcret
  3468  001AF4                     __end_of_sisTikKesmeIsleyici:
  3469                           	callstack 0
  3470                           
  3471 ;; *************** function _sisTimerIsleyiciVarsayilan *****************
  3472 ;; Defined at:
  3473 ;;		line 121 in file "sistimer.c"
  3474 ;; Parameters:    Size  Location     Type
  3475 ;;		None
  3476 ;; Auto vars:     Size  Location     Type
  3477 ;;		None
  3478 ;; Return value:  Size  Location     Type
  3479 ;;                  1    wreg      void 
  3480 ;; Registers used:
  3481 ;;		None
  3482 ;; Tracked objects:
  3483 ;;		On entry : 0/0
  3484 ;;		On exit  : 0/0
  3485 ;;		Unchanged: 0/0
  3486 ;; Data sizes:     COMRAM   BANK0   BANK1   BANK2   BANK3   BANK4   BANK5   BANK6   BANK7   BANK8   BANK9  BANK10  BANK1
      +1  BANK12  BANK13  BANK14  BANK15
  3487 ;;      Params:         0       0       0       0       0       0       0       0       0       0       0       0       
      +0       0       0       0       0
  3488 ;;      Locals:         0       0       0       0       0       0       0       0       0       0       0       0       
      +0       0       0       0       0
  3489 ;;      Temps:          0       0       0       0       0       0       0       0       0       0       0       0       
      +0       0       0       0       0
  3490 ;;      Totals:         0       0       0       0       0       0       0       0       0       0       0       0       
      +0       0       0       0       0
  3491 ;;Total ram usage:        0 bytes
  3492 ;; Hardware stack levels used:    1
  3493 ;; This function calls:
  3494 ;;		Nothing
  3495 ;; This function is called by:
  3496 ;;		_sisTimerIlkle
  3497 ;;		_sisTimerKesmeIsleyici
  3498 ;; This function uses a non-reentrant model
  3499 ;;
  3500                           
  3501                           	psect	text26
  3502  001AF8                     __ptext26:
  3503                           	callstack 0
  3504  001AF8                     _sisTimerIsleyiciVarsayilan:
  3505                           	callstack 23
  3506                           
  3507                           ;incstack = 0
  3508  001AF8  0012               	return		;funcret
  3509  001AFA                     __end_of_sisTimerIsleyiciVarsayilan:
  3510                           	callstack 0
  3511                           
  3512                           	psect	text27
  3513  000000                     __ptext27:
  3514                           	callstack 0
  3515                           
  3516                           	psect	rparam
  3517  0000                     
  3518                           	psect	temp
  3519  000050                     btemp:
  3520                           	callstack 0
  3521  000050                     	ds	1
  3522  0000                     int$flags	set	btemp
  3523  0000                     wtemp8	set	btemp+1
  3524  0000                     ttemp5	set	btemp+1
  3525  0000                     ttemp6	set	btemp+4
  3526  0000                     ttemp7	set	btemp+8
  3527                           
  3528                           	psect	idloc
  3529                           
  3530                           ;Config register IDLOC0 @ 0x200000
  3531                           ;	unspecified, using default values
  3532  200000                     	org	2097152
  3533  200000  FF                 	db	255
  3534                           
  3535                           ;Config register IDLOC1 @ 0x200001
  3536                           ;	unspecified, using default values
  3537  200001                     	org	2097153
  3538  200001  FF                 	db	255
  3539                           
  3540                           ;Config register IDLOC2 @ 0x200002
  3541                           ;	unspecified, using default values
  3542  200002                     	org	2097154
  3543  200002  FF                 	db	255
  3544                           
  3545                           ;Config register IDLOC3 @ 0x200003
  3546                           ;	unspecified, using default values
  3547  200003                     	org	2097155
  3548  200003  FF                 	db	255
  3549                           
  3550                           ;Config register IDLOC4 @ 0x200004
  3551                           ;	unspecified, using default values
  3552  200004                     	org	2097156
  3553  200004  FF                 	db	255
  3554                           
  3555                           ;Config register IDLOC5 @ 0x200005
  3556                           ;	unspecified, using default values
  3557  200005                     	org	2097157
  3558  200005  FF                 	db	255
  3559                           
  3560                           ;Config register IDLOC6 @ 0x200006
  3561                           ;	unspecified, using default values
  3562  200006                     	org	2097158
  3563  200006  FF                 	db	255
  3564                           
  3565                           ;Config register IDLOC7 @ 0x200007
  3566                           ;	unspecified, using default values
  3567  200007                     	org	2097159
  3568  200007  FF                 	db	255
  3569                           
  3570                           	psect	config
  3571                           
  3572                           ; Padding undefined space
  3573  300000                     	org	3145728
  3574  300000  FF                 	db	255
  3575                           
  3576                           ;Config register CONFIG1H @ 0x300001
  3577                           ;	Oscillator Selection bits
  3578                           ;	FOSC = INTIO67, Internal oscillator block
  3579                           ;	4X PLL Enable
  3580                           ;	PLLCFG = ON, Oscillator multiplied by 4
  3581                           ;	Primary clock enable bit
  3582                           ;	PRICLKEN = ON, Primary clock is always enabled
  3583                           ;	Fail-Safe Clock Monitor Enable bit
  3584                           ;	FCMEN = OFF, Fail-Safe Clock Monitor disabled
  3585                           ;	Internal/External Oscillator Switchover bit
  3586                           ;	IESO = OFF, Oscillator Switchover mode disabled
  3587  300001                     	org	3145729
  3588  300001  38                 	db	56
  3589                           
  3590                           ;Config register CONFIG2L @ 0x300002
  3591                           ;	Power-up Timer Enable bit
  3592                           ;	PWRTEN = ON, Power up timer enabled
  3593                           ;	Brown-out Reset Enable bits
  3594                           ;	BOREN = SBORDIS, Brown-out Reset enabled in hardware only (SBOREN is disabled)
  3595                           ;	Brown Out Reset Voltage bits
  3596                           ;	BORV = 250, VBOR set to 2.50 V nominal
  3597  300002                     	org	3145730
  3598  300002  0E                 	db	14
  3599                           
  3600                           ;Config register CONFIG2H @ 0x300003
  3601                           ;	Watchdog Timer Enable bits
  3602                           ;	WDTEN = OFF, Watch dog timer is always disabled. SWDTEN has no effect.
  3603                           ;	Watchdog Timer Postscale Select bits
  3604                           ;	WDTPS = 32768, 1:32768
  3605  300003                     	org	3145731
  3606  300003  3C                 	db	60
  3607                           
  3608                           ; Padding undefined space
  3609  300004                     	org	3145732
  3610  300004  FF                 	db	255
  3611                           
  3612                           ;Config register CONFIG3H @ 0x300005
  3613                           ;	CCP2 MUX bit
  3614                           ;	CCP2MX = PORTC1, CCP2 input/output is multiplexed with RC1
  3615                           ;	PORTB A/D Enable bit
  3616                           ;	PBADEN = OFF, PORTB<5:0> pins are configured as digital I/O on Reset
  3617                           ;	P3A/CCP3 Mux bit
  3618                           ;	CCP3MX = PORTB5, P3A/CCP3 input/output is multiplexed with RB5
  3619                           ;	HFINTOSC Fast Start-up
  3620                           ;	HFOFST = ON, HFINTOSC output and ready status are not delayed by the oscillator stable
      +                           status
  3621                           ;	Timer3 Clock input mux bit
  3622                           ;	T3CMX = PORTC0, T3CKI is on RC0
  3623                           ;	ECCP2 B output mux bit
  3624                           ;	P2BMX = PORTD2, P2B is on RD2
  3625                           ;	MCLR Pin Enable bit
  3626                           ;	MCLRE = INTMCLR, RE3 input pin enabled; MCLR disabled
  3627  300005                     	org	3145733
  3628  300005  3D                 	db	61
  3629                           
  3630                           ;Config register CONFIG4L @ 0x300006
  3631                           ;	Stack Full/Underflow Reset Enable bit
  3632                           ;	STVREN = ON, Stack full/underflow will cause Reset
  3633                           ;	Single-Supply ICSP Enable bit
  3634                           ;	LVP = ON, Single-Supply ICSP enabled if MCLRE is also 1
  3635                           ;	Extended Instruction Set Enable bit
  3636                           ;	XINST = OFF, Instruction set extension and Indexed Addressing mode disabled (Legacy mo
      +                          de)
  3637                           ;	Background Debug
  3638                           ;	DEBUG = OFF, Disabled
  3639  300006                     	org	3145734
  3640  300006  85                 	db	133
  3641                           
  3642                           ; Padding undefined space
  3643  300007                     	org	3145735
  3644  300007  FF                 	db	255
  3645                           
  3646                           ;Config register CONFIG5L @ 0x300008
  3647                           ;	Code Protection Block 0
  3648                           ;	CP0 = OFF, Block 0 (000800-003FFFh) not code-protected
  3649                           ;	Code Protection Block 1
  3650                           ;	CP1 = OFF, Block 1 (004000-007FFFh) not code-protected
  3651                           ;	Code Protection Block 2
  3652                           ;	CP2 = OFF, Block 2 (008000-00BFFFh) not code-protected
  3653                           ;	Code Protection Block 3
  3654                           ;	CP3 = OFF, Block 3 (00C000-00FFFFh) not code-protected
  3655  300008                     	org	3145736
  3656  300008  0F                 	db	15
  3657                           
  3658                           ;Config register CONFIG5H @ 0x300009
  3659                           ;	Boot Block Code Protection bit
  3660                           ;	CPB = OFF, Boot block (000000-0007FFh) not code-protected
  3661                           ;	Data EEPROM Code Protection bit
  3662                           ;	CPD = OFF, Data EEPROM not code-protected
  3663  300009                     	org	3145737
  3664  300009  C0                 	db	192
  3665                           
  3666                           ;Config register CONFIG6L @ 0x30000A
  3667                           ;	Write Protection Block 0
  3668                           ;	WRT0 = OFF, Block 0 (000800-003FFFh) not write-protected
  3669                           ;	Write Protection Block 1
  3670                           ;	WRT1 = OFF, Block 1 (004000-007FFFh) not write-protected
  3671                           ;	Write Protection Block 2
  3672                           ;	WRT2 = OFF, Block 2 (008000-00BFFFh) not write-protected
  3673                           ;	Write Protection Block 3
  3674                           ;	WRT3 = OFF, Block 3 (00C000-00FFFFh) not write-protected
  3675  30000A                     	org	3145738
  3676  30000A  0F                 	db	15
  3677                           
  3678                           ;Config register CONFIG6H @ 0x30000B
  3679                           ;	Configuration Register Write Protection bit
  3680                           ;	WRTC = OFF, Configuration registers (300000-3000FFh) not write-protected
  3681                           ;	Boot Block Write Protection bit
  3682                           ;	WRTB = OFF, Boot Block (000000-0007FFh) not write-protected
  3683                           ;	Data EEPROM Write Protection bit
  3684                           ;	WRTD = OFF, Data EEPROM not write-protected
  3685  30000B                     	org	3145739
  3686  30000B  E0                 	db	224
  3687                           
  3688                           ;Config register CONFIG7L @ 0x30000C
  3689                           ;	Table Read Protection Block 0
  3690                           ;	EBTR0 = OFF, Block 0 (000800-003FFFh) not protected from table reads executed in other
      +                           blocks
  3691                           ;	Table Read Protection Block 1
  3692                           ;	EBTR1 = OFF, Block 1 (004000-007FFFh) not protected from table reads executed in other
      +                           blocks
  3693                           ;	Table Read Protection Block 2
  3694                           ;	EBTR2 = OFF, Block 2 (008000-00BFFFh) not protected from table reads executed in other
      +                           blocks
  3695                           ;	Table Read Protection Block 3
  3696                           ;	EBTR3 = OFF, Block 3 (00C000-00FFFFh) not protected from table reads executed in other
      +                           blocks
  3697  30000C                     	org	3145740
  3698  30000C  0F                 	db	15
  3699                           
  3700                           ;Config register CONFIG7H @ 0x30000D
  3701                           ;	Boot Block Table Read Protection bit
  3702                           ;	EBTRB = OFF, Boot Block (000000-0007FFh) not protected from table reads executed in ot
      +                          her blocks
  3703  30000D                     	org	3145741
  3704  30000D  40                 	db	64
  3705                           tosu	equ	0xFFF
  3706                           tosh	equ	0xFFE
  3707                           tosl	equ	0xFFD
  3708                           stkptr	equ	0xFFC
  3709                           pclatu	equ	0xFFB
  3710                           pclath	equ	0xFFA
  3711                           pcl	equ	0xFF9
  3712                           tblptru	equ	0xFF8
  3713                           tblptrh	equ	0xFF7
  3714                           tblptrl	equ	0xFF6
  3715                           tablat	equ	0xFF5
  3716                           prodh	equ	0xFF4
  3717                           prodl	equ	0xFF3
  3718                           indf0	equ	0xFEF
  3719                           postinc0	equ	0xFEE
  3720                           postdec0	equ	0xFED
  3721                           preinc0	equ	0xFEC
  3722                           plusw0	equ	0xFEB
  3723                           fsr0h	equ	0xFEA
  3724                           fsr0l	equ	0xFE9
  3725                           wreg	equ	0xFE8
  3726                           indf1	equ	0xFE7
  3727                           postinc1	equ	0xFE6
  3728                           postdec1	equ	0xFE5
  3729                           preinc1	equ	0xFE4
  3730                           plusw1	equ	0xFE3
  3731                           fsr1h	equ	0xFE2
  3732                           fsr1l	equ	0xFE1
  3733                           bsr	equ	0xFE0
  3734                           indf2	equ	0xFDF
  3735                           postinc2	equ	0xFDE
  3736                           postdec2	equ	0xFDD
  3737                           preinc2	equ	0xFDC
  3738                           plusw2	equ	0xFDB
  3739                           fsr2h	equ	0xFDA
  3740                           fsr2l	equ	0xFD9
  3741                           status	equ	0xFD8

Data Sizes:
    Strings     0
    Constant    21
    Data        0
    BSS         94
    Persistent  0
    Stack       0

Auto Spaces:
    Space          Size  Autos    Used
    COMRAM           94     37      79
    BANK0           160     13      65
    BANK1           256      0       0
    BANK2           256      0       0
    BANK3           256      0       0
    BANK4           256      0       0
    BANK5           256      0       0
    BANK6           256      0       0
    BANK7           256      0       0
    BANK8           256      0       0
    BANK9           256      0       0
    BANK10          256      0       0
    BANK11          256      0       0
    BANK12          256      0       0
    BANK13          256      0       0
    BANK14          256      0       0
    BANK15           56      0       0

Pointer List with Targets:

    cikanListesi.is	PTR FTN(PTR void ,)unsigned char  size(2) Largest target is 0
		 -> gostergeTara(), gostergeDegerleriGuncelle(), uretici2(), uretici1(), 

    is$0	PTR void  size(2) Largest target is 24
		 -> gorevHeap(BANK0[24]), NULL(NULL[0]), 

    S388$1$0	PTR void  size(2) Largest target is 24
		 -> gorevHeap(BANK0[24]), NULL(NULL[0]), 

    ?_gorevOlustur.is	PTR FTN(PTR void ,)unsigned char  size(2) Largest target is 1
		 -> gostergeTara(), gostergeDegerleriGuncelle(), uretici2(), uretici1(), 

    uckuyrukKalanKapasite@kuyruk.veri	PTR unsigned char  size(1) Largest target is 8
		 -> k2(BANK0[8]), k1(BANK0[8]), 

    uckuyrukKalanKapasite@kuyruk	PTR struct . size(1) Largest target is 6
		 -> kuyruk2(COMRAM[4]), kuyruk1(COMRAM[4]), 

    uckuyrukBos@kuyruk.veri	PTR unsigned char  size(1) Largest target is 8
		 -> k2(BANK0[8]), k1(BANK0[8]), 

    uckuyrukBos@kuyruk	PTR struct . size(1) Largest target is 6
		 -> kuyruk2(COMRAM[4]), kuyruk1(COMRAM[4]), 

    uckuyrukDolu@kuyruk.veri	PTR unsigned char  size(1) Largest target is 8
		 -> k2(BANK0[8]), k1(BANK0[8]), 

    uckuyrukDolu@kuyruk	PTR struct . size(1) Largest target is 6
		 -> kuyruk2(COMRAM[4]), kuyruk1(COMRAM[4]), 

    uckuyrukKacOgeVar@kuyruk.veri	PTR unsigned char  size(1) Largest target is 8
		 -> k2(BANK0[8]), k1(BANK0[8]), 

    uckuyrukKacOgeVar@kuyruk	PTR struct . size(1) Largest target is 6
		 -> kuyruk1(COMRAM[4]), 

    uckuyrukCokluAl@v	PTR unsigned char  size(1) Largest target is 4
		 -> uretici2@veri2(BANK0[4]), 

    uckuyrukCokluAl@veri	PTR const unsigned char  size(1) Largest target is 8
		 -> k2(BANK0[8]), k1(BANK0[8]), 

    uckuyrukCokluAl@kuyruk.veri	PTR unsigned char  size(1) Largest target is 8
		 -> k2(BANK0[8]), k1(BANK0[8]), 

    uckuyrukCokluAl@kuyruk	PTR struct . size(1) Largest target is 6
		 -> kuyruk1(COMRAM[4]), 

    uckuyrukKuyruktanAl@kuyruk.veri	PTR unsigned char  size(1) Largest target is 8
		 -> k2(BANK0[8]), k1(BANK0[8]), 

    uckuyrukKuyruktanAl@kuyruk	PTR struct . size(1) Largest target is 6
		 -> kuyruk2(COMRAM[4]), 

    uckuyrukBastakiOge@kuyruk.veri	PTR unsigned char  size(1) Largest target is 8
		 -> k2(BANK0[8]), k1(BANK0[8]), 

    uckuyrukCokluKuyrukla@v	PTR const unsigned char  size(1) Largest target is 4
		 -> uretici2@veri2(BANK0[4]), uretici1@veri1(COMRAM[4]), 

    uckuyrukCokluKuyrukla@veri	PTR unsigned char  size(1) Largest target is 8
		 -> k2(BANK0[8]), k1(BANK0[8]), 

    uckuyrukCokluKuyrukla@kuyruk.veri	PTR unsigned char  size(1) Largest target is 8
		 -> k2(BANK0[8]), k1(BANK0[8]), 

    uckuyrukCokluKuyrukla@kuyruk	PTR struct . size(1) Largest target is 6
		 -> kuyruk2(COMRAM[4]), kuyruk1(COMRAM[4]), 

    uckuyrukKuyrukla@kuyruk.veri	PTR unsigned char  size(1) Largest target is 8
		 -> k2(BANK0[8]), k1(BANK0[8]), 

    uckuyrukIlkle@veri	PTR unsigned char  size(1) Largest target is 8
		 -> k2(BANK0[8]), k1(BANK0[8]), 

    uckuyrukIlkle@kuyruk.veri	PTR unsigned char  size(1) Largest target is 8
		 -> k2(BANK0[8]), k1(BANK0[8]), 

    uckuyrukIlkle@kuyruk	PTR struct . size(1) Largest target is 6
		 -> kuyruk2(COMRAM[4]), kuyruk1(COMRAM[4]), 

    gostergeTara@tutucu.is	PTR FTN(PTR void ,)unsigned char  size(2) Largest target is 1
		 -> gostergeTara(), gostergeDegerleriGuncelle(), uretici2(), uretici1(), 

    gostergeTara@tutucu	PTR void  size(2) Largest target is 24
		 -> gorevHeap(BANK0[24]), NULL(NULL[0]), 

    gostergeDegerleriGuncelle@tutucu.is	PTR FTN(PTR void ,)unsigned char  size(2) Largest target is 1
		 -> gostergeTara(), gostergeDegerleriGuncelle(), uretici2(), uretici1(), 

    gostergeDegerleriGuncelle@tutucu	PTR void  size(2) Largest target is 24
		 -> gorevHeap(BANK0[24]), NULL(NULL[0]), 

    uretici2@tutucu.is	PTR FTN(PTR void ,)unsigned char  size(2) Largest target is 1
		 -> gostergeTara(), gostergeDegerleriGuncelle(), uretici2(), uretici1(), 

    uretici2@tutucu	PTR void  size(2) Largest target is 24
		 -> gorevHeap(BANK0[24]), NULL(NULL[0]), 

    uretici1@tutucu.is	PTR FTN(PTR void ,)unsigned char  size(2) Largest target is 1
		 -> gostergeTara(), gostergeDegerleriGuncelle(), uretici2(), uretici1(), 

    uretici1@tutucu	PTR void  size(2) Largest target is 24
		 -> gorevHeap(BANK0[24]), NULL(NULL[0]), 

    kuyruk2.veri	PTR unsigned char  size(1) Largest target is 8
		 -> k2(BANK0[8]), k1(BANK0[8]), 

    S489$veri	PTR unsigned char  size(1) Largest target is 8
		 -> k2(BANK0[8]), k1(BANK0[8]), 

    kuyruk1.veri	PTR unsigned char  size(1) Largest target is 8
		 -> k2(BANK0[8]), k1(BANK0[8]), 

    sp__gorevBlogunuAl	PTR struct . size(2) Largest target is 24
		 -> gorevHeap(BANK0[24]), NULL(NULL[0]), 

    gorevHeap.is	PTR FTN(PTR void ,)unsigned char  size(2) Largest target is 1
		 -> gostergeTara(), gostergeDegerleriGuncelle(), uretici2(), uretici1(), 

    cikanListesi	PTR struct .[2] size(2) Largest target is 24
		 -> gorevHeap(BANK0[24]), NULL(NULL[0]), 

    gorevciyiBaslat@glo	PTR struct . size(2) Largest target is 24
		 -> gorevHeap(BANK0[24]), NULL(NULL[0]), 

    calisanListesi.is	PTR FTN(PTR void ,)unsigned char  size(2) Largest target is 1
		 -> gostergeTara(), gostergeDegerleriGuncelle(), uretici2(), uretici1(), 

    sp__gorevOlustur.is	PTR FTN(PTR void ,)unsigned char  size(2) Largest target is 1
		 -> gostergeTara(), gostergeDegerleriGuncelle(), uretici2(), uretici1(), 

    calisanListesi	PTR struct .[6] size(2) Largest target is 24
		 -> gorevHeap(BANK0[24]), NULL(NULL[0]), 

    gorevOlustur@gkb.is	PTR FTN(PTR void ,)unsigned char  size(2) Largest target is 1
		 -> gostergeTara(), gostergeDegerleriGuncelle(), uretici2(), uretici1(), 

    gorevOlustur@is	PTR FTN(PTR void ,)unsigned char  size(2) Largest target is 1
		 -> gostergeTara(), gostergeDegerleriGuncelle(), uretici2(), uretici1(), 

    gorevOlustur@gkb	PTR struct . size(1) Largest target is 24
		 -> gorevHeap(BANK0[24]), 

    sp__gorevOlustur	PTR struct . size(2) Largest target is 24
		 -> gorevHeap(BANK0[24]), NULL(NULL[0]), 

    listedenSil@liste.is	PTR FTN(PTR void ,)unsigned char  size(2) Largest target is 1
		 -> gostergeTara(), gostergeDegerleriGuncelle(), uretici2(), uretici1(), 

    listedenSil@liste	PTR PTR struct . size(1) Largest target is 12
		 -> calisanListesi(BANK0[12]), 

    listedenSil@sayim	PTR unsigned char  size(1) Largest target is 1
		 -> calisanSayimi(COMRAM[1]), 

    S388$is	PTR FTN(PTR void ,)unsigned char  size(2) Largest target is 1
		 -> gostergeTara(), gostergeDegerleriGuncelle(), uretici2(), uretici1(), 

    listeyeEkle@liste.is	PTR FTN(PTR void ,)unsigned char  size(2) Largest target is 1
		 -> gostergeTara(), gostergeDegerleriGuncelle(), uretici2(), uretici1(), 

    listeyeEkle@glo	PTR struct . size(2) Largest target is 24
		 -> gorevHeap(BANK0[24]), NULL(NULL[0]), 

    listeyeEkle@liste	PTR PTR struct . size(1) Largest target is 12
		 -> cikanListesi(COMRAM[4]), calisanListesi(BANK0[12]), 

    listeyeEkle@sayim	PTR unsigned char  size(1) Largest target is 1
		 -> cikanSayimi(COMRAM[1]), calisanSayimi(COMRAM[1]), 

    sisTimerIlkle@isleyici	PTR FTN()void  size(2) Largest target is 1
		 -> sisTikKesmeIsleyici(), 

    sisTimerDisIsleyici	PTR FTN()void  size(2) Largest target is 2
		 -> Absolute function(), sisTikKesmeIsleyici(), sisTimerIlkle@isleyici(COMRAM[2]), sisTimerIsleyiciVarsayilan(), 

    uartRxKesmeIsleyici	PTR FTN()void  size(2) Largest target is 1
		 -> Absolute function(), 

    uartTxKesmeIsleyici	PTR FTN()void  size(2) Largest target is 1
		 -> Absolute function(), 

    timer0KesmeIsleyiciKur@isleyici	PTR FTN()void  size(2) Largest target is 1
		 -> sisTimerKesmeIsleyici(), 

    timer0KesmeIsleyici	PTR FTN()void  size(2) Largest target is 1
		 -> Absolute function(), sisTimerKesmeIsleyici(), 


Critical Paths under _main in COMRAM

    _sisTimerIlkle->_timer0KesmeIsleyiciKur
    _gorevciyiBaslat->_uretici1
    _uretici2->_uckuyrukCokluAl
    _uckuyrukCokluAl->_uckuyrukKacOgeVar
    _uckuyrukCokluKuyrukla->_uckuyrukKalanKapasite
    _uckuyrukKuyruktanAl->_uckuyrukBos
    _gorevOlustur->_listeyeEkle

Critical Paths under _interruptYonetici in COMRAM

    None.

Critical Paths under _main in BANK0

    _portGorevciyiBaslat->_gorevciyiBaslat
    _gorevciyiBaslat->_uretici2

Critical Paths under _interruptYonetici in BANK0

    None.

Critical Paths under _main in BANK1

    None.

Critical Paths under _interruptYonetici in BANK1

    None.

Critical Paths under _main in BANK2

    None.

Critical Paths under _interruptYonetici in BANK2

    None.

Critical Paths under _main in BANK3

    None.

Critical Paths under _interruptYonetici in BANK3

    None.

Critical Paths under _main in BANK4

    None.

Critical Paths under _interruptYonetici in BANK4

    None.

Critical Paths under _main in BANK5

    None.

Critical Paths under _interruptYonetici in BANK5

    None.

Critical Paths under _main in BANK6

    None.

Critical Paths under _interruptYonetici in BANK6

    None.

Critical Paths under _main in BANK7

    None.

Critical Paths under _interruptYonetici in BANK7

    None.

Critical Paths under _main in BANK8

    None.

Critical Paths under _interruptYonetici in BANK8

    None.

Critical Paths under _main in BANK9

    None.

Critical Paths under _interruptYonetici in BANK9

    None.

Critical Paths under _main in BANK10

    None.

Critical Paths under _interruptYonetici in BANK10

    None.

Critical Paths under _main in BANK11

    None.

Critical Paths under _interruptYonetici in BANK11

    None.

Critical Paths under _main in BANK12

    None.

Critical Paths under _interruptYonetici in BANK12

    None.

Critical Paths under _main in BANK13

    None.

Critical Paths under _interruptYonetici in BANK13

    None.

Critical Paths under _main in BANK14

    None.

Critical Paths under _interruptYonetici in BANK14

    None.

Critical Paths under _main in BANK15

    None.

Critical Paths under _interruptYonetici in BANK15

    None.

Call Graph Tables:

 ---------------------------------------------------------------------------------
 (Depth) Function   	        Calls       Base Space   Used Autos Params    Refs
 ---------------------------------------------------------------------------------
 (0) _main                                                 0     0      0   12362
                       _gorevOlustur
                _portGorevciyiBaslat
                   _sisOsilatorIlkle
                      _uckuyrukIlkle
 ---------------------------------------------------------------------------------
 (1) _uckuyrukIlkle                                        3     1      2     436
                                             14 COMRAM     3     1      2
 ---------------------------------------------------------------------------------
 (1) _sisOsilatorIlkle                                     0     0      0       0
 ---------------------------------------------------------------------------------
 (1) _portGorevciyiBaslat                                  0     0      0   10492
                    _gorevciyiBaslat
                     _interruptIlkle
                      _sisTimerIlkle
 ---------------------------------------------------------------------------------
 (2) _sisTimerIlkle                                        2     0      2     220
                                             16 COMRAM     2     0      2
             _timer0KesmeIsleyiciKur
 ---------------------------------------------------------------------------------
 (3) _timer0KesmeIsleyiciKur                               2     0      2      98
                                             14 COMRAM     2     0      2
 ---------------------------------------------------------------------------------
 (2) _interruptIlkle                                       0     0      0       0
 ---------------------------------------------------------------------------------
 (2) _gorevciyiBaslat                                      6     6      0   10272
                                              7 BANK0      6     6      0
          _gostergeDegerleriGuncelle *
                       _gostergeTara *
                        _listedenSil
                        _listeyeEkle
                           _uretici1 *
                           _uretici2 *
 ---------------------------------------------------------------------------------
 (3) _uretici2                                            11     9      2    4102
                                             28 COMRAM     4     2      2
                                              0 BANK0      7     7      0
                        _uckuyrukBos
                    _uckuyrukCokluAl
              _uckuyrukCokluKuyrukla
                       _uckuyrukDolu
 ---------------------------------------------------------------------------------
 (4) _uckuyrukCokluAl                                     13    10      3    1069
                                             15 COMRAM    13    10      3
                  _uckuyrukKacOgeVar
 ---------------------------------------------------------------------------------
 (5) _uckuyrukKacOgeVar                                    1     0      1     121
                                             14 COMRAM     1     0      1
 ---------------------------------------------------------------------------------
 (3) _uretici1                                             9     7      2    2528
                                             28 COMRAM     9     7      2
              _uckuyrukCokluKuyrukla
                       _uckuyrukDolu
 ---------------------------------------------------------------------------------
 (4) _uckuyrukDolu                                         3     2      1     402
                                             14 COMRAM     3     2      1
 ---------------------------------------------------------------------------------
 (4) _uckuyrukCokluKuyrukla                               10     7      3    1770
                                             17 COMRAM    10     7      3
              _uckuyrukKalanKapasite
 ---------------------------------------------------------------------------------
 (5) _uckuyrukKalanKapasite                                3     2      1     152
                                             14 COMRAM     3     2      1
 ---------------------------------------------------------------------------------
 (3) _listedenSil                                         14    11      3     868
                                             14 COMRAM    11     8      3
 ---------------------------------------------------------------------------------
 (3) _gostergeTara                                         5     3      2     291
                                             28 COMRAM     5     3      2
                      _tikSayiminiAl
 ---------------------------------------------------------------------------------
 (3) _gostergeDegerleriGuncelle                            7     5      2    1314
                                             28 COMRAM     7     5      2
                      _tikSayiminiAl
                        _uckuyrukBos
                _uckuyrukKuyruktanAl
 ---------------------------------------------------------------------------------
 (4) _uckuyrukKuyruktanAl                                  4     3      1     713
                                             15 COMRAM     4     3      1
                        _uckuyrukBos
 ---------------------------------------------------------------------------------
 (4) _uckuyrukBos                                          1     0      1     301
                                             14 COMRAM     1     0      1
 ---------------------------------------------------------------------------------
 (4) _tikSayiminiAl                                        4     2      2      34
                                             14 COMRAM     4     2      2
 ---------------------------------------------------------------------------------
 (1) _gorevOlustur                                         3     1      2    1434
                                             20 COMRAM     3     1      2
                        _listeyeEkle
 ---------------------------------------------------------------------------------
 (3) _listeyeEkle                                          6     1      5     940
                                             14 COMRAM     6     1      5
 ---------------------------------------------------------------------------------
 Estimated maximum stack depth 5
 ---------------------------------------------------------------------------------
 (Depth) Function   	        Calls       Base Space   Used Autos Params    Refs
 ---------------------------------------------------------------------------------
 (6) _interruptYonetici                                   14    14      0       0
                                              0 COMRAM    14    14      0
                   Absolute function *
              _sisTimerKesmeIsleyici *
 ---------------------------------------------------------------------------------
 (7) _sisTimerKesmeIsleyici                                0     0      0       0
                   Absolute function *
                _sisTikKesmeIsleyici *
         _sisTimerIsleyiciVarsayilan *
 ---------------------------------------------------------------------------------
 (8) _sisTimerIsleyiciVarsayilan                           0     0      0       0
 ---------------------------------------------------------------------------------
 (8) _sisTikKesmeIsleyici                                  0     0      0       0
 ---------------------------------------------------------------------------------
 (8) Absolute function(Fake)                               0     0      0       0
 ---------------------------------------------------------------------------------
 Estimated maximum stack depth 8
 ---------------------------------------------------------------------------------

 Call Graph Graphs:

 _main (ROOT)
   _gorevOlustur
     _listeyeEkle
   _portGorevciyiBaslat
     _gorevciyiBaslat
       _gostergeDegerleriGuncelle *
         _tikSayiminiAl
         _uckuyrukBos
         _uckuyrukKuyruktanAl
           _uckuyrukBos
       _gostergeTara *
         _tikSayiminiAl
       _listedenSil *
       _listeyeEkle *
       _uretici1 *
         _uckuyrukCokluKuyrukla
           _uckuyrukKalanKapasite
         _uckuyrukDolu
       _uretici2 *
         _uckuyrukBos
         _uckuyrukCokluAl
           _uckuyrukKacOgeVar
         _uckuyrukCokluKuyrukla
           _uckuyrukKalanKapasite
         _uckuyrukDolu
     _interruptIlkle
     _sisTimerIlkle
       _timer0KesmeIsleyiciKur
   _sisOsilatorIlkle
   _uckuyrukIlkle

 _interruptYonetici (ROOT)
   Absolute function(Fake) *
   _sisTimerKesmeIsleyici *
     Absolute function(Fake) *
     _sisTikKesmeIsleyici *
     _sisTimerIsleyiciVarsayilan *

 Address spaces:
Name               Size   Autos  Total    Cost      Usage
BIGRAM             F37      0       0      37        0.0%
EEDATA             400      0       0       0        0.0%
BITBANK14          100      0       0      33        0.0%
BANK14             100      0       0      34        0.0%
BITBANK13          100      0       0      31        0.0%
BANK13             100      0       0      32        0.0%
BITBANK12          100      0       0      29        0.0%
BANK12             100      0       0      30        0.0%
BITBANK11          100      0       0      27        0.0%
BANK11             100      0       0      28        0.0%
BITBANK10          100      0       0      25        0.0%
BANK10             100      0       0      26        0.0%
BITBANK9           100      0       0      23        0.0%
BANK9              100      0       0      24        0.0%
BITBANK8           100      0       0      21        0.0%
BANK8              100      0       0      22        0.0%
BITBANK7           100      0       0      19        0.0%
BANK7              100      0       0      20        0.0%
BITBANK6           100      0       0      17        0.0%
BANK6              100      0       0      18        0.0%
BITBANK5           100      0       0      15        0.0%
BANK5              100      0       0      16        0.0%
BITBANK4           100      0       0      13        0.0%
BANK4              100      0       0      14        0.0%
BITBANK3           100      0       0      10        0.0%
BANK3              100      0       0      11        0.0%
BITBANK2           100      0       0       8        0.0%
BANK2              100      0       0       9        0.0%
BITBANK1           100      0       0       6        0.0%
BANK1              100      0       0       7        0.0%
BITBANK0            A0      0       0       4        0.0%
BANK0               A0      D      41       5       40.6%
BITCOMRAM           5E      0       0       0        0.0%
COMRAM              5E     25      4F       1       84.0%
BITBANK15           38      0       0      35        0.0%
BANK15              38      0       0      36        0.0%
BITSFR_1             0      0       0     200        0.0%
SFR_1                0      0       0     200        0.0%
BITSFR               0      0       0     200        0.0%
SFR                  0      0       0     200        0.0%
STACK                0      0       0       2        0.0%
NULL                 0      0       0       0        0.0%
ABS                  0      0      90      12        0.0%
DATA                 0      0      90       3        0.0%
CODE                 0      0       0       0        0.0%


Microchip Technology PIC18 Macro Assembler V2.31 build 20201012212115 
Symbol Table                                                                                   Sun May  9 19:29:58 2021

                                  _k1 008C                                    _k2 0084  
              __end_of_interruptIlkle 1AF8                     ??_gorevciyiBaslat 009B  
                  tikSayiminiAl@sayim 003B                                   l129 16B4  
             ??_uckuyrukCokluKuyrukla 003F                                   tosl 000FFD  
                                 wreg 000FE8                      _sisOsilatorIlkle 1AC8  
                                l2260 1982                                  l2442 17BA  
                                l2258 197A                                  l2524 1858  
                                l2508 1616                                  l2534 189C  
                                l2470 1828                                  l2462 1806  
                                l2454 17FC                                  l2702 12CC  
                                l2614 140E                                  l2606 13F0  
                                l2560 16AA                                  l2800 1564  
                                l2570 16F4                                  l2714 12FA  
                                l2730 1308                                  l2626 143A  
                                l2642 1448                                  l2802 1596  
                                l2732 1352                                  l2724 1304  
                                l2644 1492                                  l2636 1444  
                                l2580 1390                                  l2812 101A  
                                l2566 16CE                                  l2486 15B0  
                                l2662 122C                                  l2654 120A  
                                l2910 1200                                  l2902 11BE  
                                l2814 1034                                  l2664 123C  
                                l2656 121A                                  l2760 14DA  
                                l2752 14BA                                  l2744 1498  
                                l2832 1090                                  l2920 1706  
                                l2498 15F2                                  l2586 13A2  
                                l2578 1380                                  l2746 14A8  
                                l2850 10E2                                  l2826 1074  
                                l2930 1796                                  l2684 1296  
                                l2676 125C                                  l2596 13D8  
                                l2588 13B2                                  l2772 1508  
                                l2764 14EC                                  l2756 14D0  
                                l2908 11C2                                  l2932 179A  
                                l2694 12AE                                  l2784 1546  
                                l2776 1512                                  l2768 14F6  
                                l2872 1146                                  l2856 10FA  
                                l2946 1912                                  l2794 1560  
                                l2892 11A4                                  l2878 115E  
                                u1210 1A3C                                  u1310 1634  
                                u1180 1AC4                                  u1270 1834  
                                _LATB 000F8A                                  _LATC 000F8B  
                                u1520 14B6                                  u1600 10A2  
                                u1450 1228                                  u1470 1286  
                                u1390 139E                                  u1630 1106  
                                u1570 108C                                  u1678 173E  
                                u1679 1750                                  _RCIF 007CF5  
                                i2l42 006E                                  i2l46 0076  
                                i2l39 0060                                  _TMR0 000FD6  
                                _TXIE 007CEC                                  _TXIF 007CF4  
                                _main 18AE                                  fsr0h 000FEA  
                                fsr1h 000FE2                                  fsr2h 000FDA  
                                fsr0l 000FE9                                  indf1 000FE7  
                                indf2 000FDF                                  fsr1l 000FE1  
                                fsr2l 000FD9                                  btemp 0050  
                                prodh 000FF4                                  prodl 000FF3  
                                start 00B2                          ___param_bank 000000  
                 _uartTxKesmeIsleyici 0013                   uckuyrukCokluAl@veri 0042  
                     ?_interruptIlkle 002B                                 ?_main 002B  
  __size_of_gostergeDegerleriGuncelle 0104                                 _T0CON 000FD5  
                               _TRISB 000F93                                 _TRISC 000F94  
         __end_of_portGorevciyiBaslat 1AB0                ?_sisTimerKesmeIsleyici 002B  
                     ??_uckuyrukIlkle 003B                                 pclath 000FFA  
                 _sisTimerDisIsleyici 000F                                 tablat 000FF5  
     __size_of_timer0KesmeIsleyiciKur 000A                                 ttemp5 0051  
                               ttemp6 0054                                 ttemp7 0058  
                               status 000FD8                                 wtemp8 0051  
               __end_ofuretici1@F6092 1016                       __initialization 19FE  
                        __end_of_main 190A                          ?_listedenSil 0039  
                uckuyrukCokluAl@sayac 0040                  uckuyrukCokluAl@sayim 0043  
              uckuyrukKuyruktanAl@bas 003D                          ?_listeyeEkle 0039  
                              ??_main 0050                         __activetblptr 000003  
                      gostergeTara@s5 0001     __end_of_gostergeDegerleriGuncelle 159A  
                       ?_gorevOlustur 003F                                _ANSELB 000F39  
                              _ANSELC 000F3A          __size_of_sisTikKesmeIsleyici 0006  
                 _uckuyrukKuyruktanAl 1846                                _INTCON 000FF2  
                              _OSCCON 000FD3                                _TMR0IF 007F92  
         ?_sisTimerIsleyiciVarsayilan 002B                   uckuyrukIlkle@kuyruk 0039  
               __end_of_tikSayiminiAl 1A98                  ?_uckuyrukKuyruktanAl 003A  
                    gorevciyiBaslat@s 00A0                                clear_0 1A04  
                              clear_1 1A10                _timer0KesmeIsleyiciKur 1AE4  
          uckuyrukCokluKuyrukla@konum 0045            uckuyrukCokluKuyrukla@sayac 0044  
          uckuyrukCokluKuyrukla@sayim 0042        __size_of_uckuyrukKalanKapasite 001E  
       __end_of_uckuyrukKalanKapasite 1A5E                          __mediumconst 0000  
                              tblptrh 000FF7                                tblptrl 000FF6  
                              tblptru 000FF8                         ?_gostergeTara 0047  
                      ??_gorevOlustur 0041                      __end_of_uretici1 1496  
                    __end_of_uretici2 1356                        uretici1@tutucu 0047  
                        ?_uckuyrukBos 0039                        uretici2@tutucu 0047  
                          __accesstop 0060               __end_of__initialization 1A16  
                       ___rparam_used 000001                       _gorevciyiBaslat 16FE  
                      __pcstackCOMRAM 002B              __end_of_sisOsilatorIlkle 1AD6  
               ??_uckuyrukKuyruktanAl 003B                 __end_of_sisTimerIlkle 1996  
            __size_of_uckuyrukCokluAl 00BA                  uckuyrukKuyruktanAl@b 003C  
      __size_of_uckuyrukCokluKuyrukla 00A2                        ??_gostergeTara 0049  
          _intconYedek@portmacro$F427 001A         __end_of_uckuyrukCokluKuyrukla 1846  
          _intconYedek@portmacro$F594 0018                 uckuyrukCokluAl@kuyruk 003A  
            uretici1@VAZGECIS_BAYRAGI 004F                          _cikanListesi 0025  
                          __pbssBANK0 0060             uckuyrukCokluKuyrukla@veri 0041  
                    ??_interruptIlkle 0039                  __size_of_listedenSil 00AA  
                     gorevOlustur@gkb 0041               ??_sisTimerKesmeIsleyici 002B  
            uckuyrukCokluAl@sayac_734 0044                  __size_of_listeyeEkle 0030  
            uckuyrukCokluKuyrukla@kac 003E              uckuyrukCokluKuyrukla@kap 0043  
                             _OSCCON2 000FD2                               _OSCTUNE 000F9B  
                             i2u54_48 1A6A                               i2u58_48 004E  
          gostergeDegerleriGuncelle@b 004C                      listedenSil@liste 0039  
                    listedenSil@konum 003B               __end_of_gorevciyiBaslat 17A4  
                    listedenSil@sayim 003A                  gorevciyiBaslat@donus 009F  
                             __Hparam 0000                               __Lparam 0000  
                __end_of_gorevOlustur 1956                          __psmallconst 1000  
                 _sisTikKesmeIsleyici 1AEE                             ?_uretici1 0047  
                           ?_uretici2 0047                               __pcinit 19FE  
                             __ramtop 1000                               __ptext0 18AE  
                             __ptext1 1996                               __ptext2 1AC8  
                             __ptext3 1A98                               __ptext4 1956  
                             __ptext5 1AE4                               __ptext6 1AF4  
                             __ptext7 16FE                               __ptext8 1018  
                             __ptext9 1496                             _T0CONbits 000FD5  
      timer0KesmeIsleyiciKur@isleyici 0039                               _kuyruk1 0021  
                             _kuyruk2 001D                     ??_uckuyrukCokluAl 003D  
                end_of_initialization 1A16                  ?_sisTikKesmeIsleyici 002B  
               __end_of_uckuyrukIlkle 19CE          __size_of_portGorevciyiBaslat 0018  
         uckuyrukCokluKuyrukla@kuyruk 003C                  __size_of_uckuyrukBos 0018  
                __end_of_gostergeTara 1204              uretici2@VAZGECIS_BAYRAGI 0098  
                             postdec1 000FE5                               postdec2 000FDD  
             ?_timer0KesmeIsleyiciKur 0039                               postinc0 000FEE  
                             postinc1 000FE6                               postinc2 000FDE  
                       _calisanSayimi 002A                            ??_uretici1 0049  
                          ??_uretici2 0049                         ?_uckuyrukDolu 0039  
          ?_gostergeDegerleriGuncelle 0047                 ??_sisTikKesmeIsleyici 002B  
                    ?_gorevciyiBaslat 002B                   _uartRxKesmeIsleyici 0011  
      __end_of_timer0KesmeIsleyiciKur 1AEE                    uckuyrukCokluAl@bas 0046  
                  uckuyrukCokluAl@kac 003C                    uckuyrukCokluAl@kap 0041  
                   ?_sisOsilatorIlkle 002B                    ??_sisOsilatorIlkle 0039  
                  uckuyrukDolu@kuyruk 0039                        ??_uckuyrukDolu 003A  
                 start_initialization 19FE                 _uckuyrukKalanKapasite 1A40  
              __size_of_tikSayiminiAl 001C                    gostergeTara@tutucu 0047  
               __size_of_gorevOlustur 004C           __end_of_uckuyrukKuyruktanAl 18AE  
                       uretici1@F6092 1012       gostergeDegerleriGuncelle@tutucu 0047  
                       uretici1@veri1 004B                         uretici2@veri2 0094  
                         __pbssCOMRAM 0001        __size_of_sisTimerKesmeIsleyici 001E  
                       __pcstackBANK0 0094         __end_of_sisTimerKesmeIsleyici 1A7C  
               _uckuyrukCokluKuyrukla 17A4                          _gorevOlustur 190A  
                        listedenSil@k 0043                 __size_of_gostergeTara 01EC  
                         _cikanSayimi 0029                __size_of_sisTimerIlkle 0040  
                           __pintcode 0008                     listeyeEkle@cSayim 003E  
                       ??_listedenSil 003C           uckuyrukKalanKapasite@kuyruk 0039  
                      gorevOlustur@is 003F                         _tikSayiminiAl 1A7C  
                     _uckuyrukCokluAl 159A                         ??_listeyeEkle 003E  
                 _portGorevciyiBaslat 1A98                     __size_of_uretici1 0140  
                   __size_of_uretici2 0152                     _interruptYonetici 0008  
                         __smallconst 1000                    ?_interruptYonetici 002B  
              ?_uckuyrukKalanKapasite 0039                          _gostergeTara 1018  
                           _gorevHeap 0060                     _uckuyrukKacOgeVar 1AD6  
                      listeyeEkle@glo 003C                        listeyeEkle@max 003B  
                  ?_uckuyrukKacOgeVar 0039                   ??_interruptYonetici 002B  
                ?_portGorevciyiBaslat 002B                              _LATBbits 000F8A  
                __end_of_uckuyrukDolu 1A40                              _PIE1bits 000F9D  
                 ??_uckuyrukKacOgeVar 003A                             _tikSayimi 000D  
             uckuyrukKacOgeVar@kuyruk 0039                              _PIR1bits 000F9E  
        ??_sisTimerIsleyiciVarsayilan 002B                              _RCONbits 000FD0  
                      ?_tikSayiminiAl 0039                     uckuyrukBos@kuyruk 0039  
                   listedenSil@cSayim 0042             __end_of_interruptYonetici 00B2  
                       _sisTimerIlkle 1956           gostergeDegerleriGuncelle@s2 0005  
             __size_of_interruptIlkle 0004                   __end_of_listedenSil 16FE  
           __end_of_uckuyrukKacOgeVar 1AE4                ?_uckuyrukCokluKuyrukla 003C  
                 __end_of_listeyeEkle 19FE           ??_gostergeDegerleriGuncelle 0049  
                       ??_uckuyrukBos 003A   __size_of_sisTimerIsleyiciVarsayilan 0002  
               ??_portGorevciyiBaslat 0050                              __Hrparam 0000  
__end_ofgostergeTara@BCDdenOrtakAnoda 1012          gostergeTara@BCDdenOrtakAnoda 1001  
             __end_of_uckuyrukCokluAl 1654                              __Lrparam 0000  
                   uckuyrukIlkle@veri 003A             uckuyrukKuyruktanAl@kuyruk 003A  
                      ?_sisTimerIlkle 003B                           _gorevSayimi 0019  
              __size_of_uckuyrukIlkle 0038           __end_of_sisTikKesmeIsleyici 1AF4  
                            __ptext10 1356                              __ptext11 1204  
                            __ptext20 1A7C                              __ptext12 159A  
                            __ptext21 190A                              __ptext13 1AD6  
                            __ptext22 19CE                              __ptext14 1A20  
                            __ptext15 17A4                              __ptext24 1A5E  
                            __ptext16 1A40                              __ptext25 1AEE  
                            __ptext17 1654                              __ptext26 1AF8  
                            __ptext18 1846                              __ptext27 0000  
                            __ptext19 1AB0             __size_of_sisOsilatorIlkle 000E  
              uckuyrukCokluKuyrukla@v 003D                      listeyeEkle@liste 0039  
                    listeyeEkle@sayim 003A                    gorevciyiBaslat@glo 009D  
                         _intconYedek 001B                         __size_of_main 005C  
                            _gosterge 0009                   __end_of_uckuyrukBos 1AC8  
           _gostergeDegerleriGuncelle 1496                       ??_tikSayiminiAl 003B  
            __size_of_gorevciyiBaslat 00A6                           _tmr0OnDeger 001C  
                            int$flags 0050                           _listedenSil 1654  
                            _uretici1 1356                              _uretici2 1204  
          __size_of_interruptYonetici 00AA                      uckuyrukCokluAl@v 003B  
                         _listeyeEkle 19CE                            _INTCONbits 000FF2  
          __size_of_uckuyrukKacOgeVar 000E                      uckuyrukIlkle@kap 003B  
                 _timer0KesmeIsleyici 0015                 __size_of_uckuyrukDolu 0020  
                            intlevel2 0000                             uretici2@s 0099  
                       _uckuyrukIlkle 1996    __end_of_sisTimerIsleyiciVarsayilan 1AFA  
          _sisTimerIsleyiciVarsayilan 1AF8                      ?_uckuyrukCokluAl 003A  
                     ??_sisTimerIlkle 003D          __size_of_uckuyrukKuyruktanAl 0068  
                      _calisanListesi 0078                         _kuyruk2Erisim 0017  
               sisTimerIlkle@isleyici 003B               ??_uckuyrukKalanKapasite 003A  
                      _interruptIlkle 1AF4                          _uckuyrukDolu 1A20  
               _sisTimerKesmeIsleyici 1A5E                           _uckuyrukBos 1AB0  
            ??_timer0KesmeIsleyiciKur 003B                        ?_uckuyrukIlkle 0039  
