

Microchip MPLAB XC8 Assembler V2.31 build 20201012212115 
                                                                                               Sun Jun 13 17:36:27 2021

Microchip MPLAB XC8 C Compiler v2.31 (Free license) build 20201012212115 Og9 
     1                           	processor	18F46K22
     2                           	fnconf	rparam,??,?,0
     3                           	pagewidth 120
     4                           	opt	flic
     5                           	psect	idataCOMRAM,global,class=CODE,delta=1,noexec
     6                           	psect	smallconst,global,reloc=2,class=SMALLCONST,delta=1,noexec
     7                           	psect	cinit,global,reloc=2,class=CODE,delta=1
     8                           	psect	bssCOMRAM,global,class=COMRAM,space=1,delta=1,lowdata,noexec
     9                           	psect	dataCOMRAM,global,class=COMRAM,space=1,delta=1,lowdata,noexec
    10                           	psect	bssBANK0,global,class=BANK0,space=1,delta=1,lowdata,noexec
    11                           	psect	cstackCOMRAM,global,class=COMRAM,space=1,delta=1,lowdata,noexec
    12                           	psect	text0,global,reloc=2,class=CODE,delta=1
    13                           	psect	text1,global,reloc=2,class=CODE,delta=1
    14                           	psect	text2,global,reloc=2,class=CODE,delta=1
    15                           	psect	text3,global,reloc=2,class=CODE,delta=1
    16                           	psect	text4,global,reloc=2,class=CODE,delta=1
    17                           	psect	text5,global,reloc=2,class=CODE,delta=1
    18                           	psect	text6,global,reloc=2,class=CODE,delta=1
    19                           	psect	text7,global,reloc=2,class=CODE,delta=1
    20                           	psect	text8,global,reloc=2,class=CODE,delta=1
    21                           	psect	text9,global,reloc=2,class=CODE,delta=1
    22                           	psect	text10,global,reloc=2,class=CODE,delta=1
    23                           	psect	text11,global,reloc=2,class=CODE,delta=1
    24                           	psect	text12,global,reloc=2,class=CODE,delta=1
    25                           	psect	text13,global,reloc=2,class=CODE,delta=1
    26                           	psect	text14,global,reloc=2,class=CODE,delta=1
    27                           	psect	text15,global,reloc=2,class=CODE,delta=1
    28                           	psect	text16,global,reloc=2,class=CODE,delta=1
    29                           	psect	text17,global,reloc=2,class=CODE,delta=1
    30                           	psect	intcode,global,reloc=2,class=CODE,delta=1
    31                           	psect	text19,global,reloc=2,class=CODE,delta=1
    32                           	psect	text20,global,reloc=2,class=CODE,delta=1
    33                           	psect	text21,global,reloc=2,class=CODE,delta=1
    34                           	psect	intsave_regs,global,class=BIGRAM,space=1,delta=1,noexec
    35                           	psect	text22,global,reloc=2,class=CODE,delta=1
    36                           	psect	rparam,global,class=COMRAM,space=1,delta=1,noexec
    37                           	psect	temp,global,ovrld,common,class=COMRAM,space=1,delta=1
    38                           	psect	idloc,global,abs,ovrld,class=IDLOC,space=5,delta=1,noexec
    39                           	psect	config,global,abs,ovrld,class=CONFIG,space=4,delta=1,noexec
    40  0000                     
    41                           ; Version 2.20
    42                           ; Generated 05/05/2020 GMT
    43                           ; 
    44                           ; Copyright © 2020, Microchip Technology Inc. and its subsidiaries ("Microchip")
    45                           ; All rights reserved.
    46                           ; 
    47                           ; This software is developed by Microchip Technology Inc. and its subsidiaries ("Microch
      +                          ip").
    48                           ; 
    49                           ; Redistribution and use in source and binary forms, with or without modification, are
    50                           ; permitted provided that the following conditions are met:
    51                           ; 
    52                           ;     1. Redistributions of source code must retain the above copyright notice, this lis
      +                          t of
    53                           ;        conditions and the following disclaimer.
    54                           ; 
    55                           ;     2. Redistributions in binary form must reproduce the above copyright notice, this 
      +                          list
    56                           ;        of conditions and the following disclaimer in the documentation and/or other
    57                           ;        materials provided with the distribution.
    58                           ; 
    59                           ;     3. Microchip's name may not be used to endorse or promote products derived from th
      +                          is
    60                           ;        software without specific prior written permission.
    61                           ; 
    62                           ; THIS SOFTWARE IS PROVIDED BY MICROCHIP "AS IS" AND ANY EXPRESS OR IMPLIED WARRANTIES,
    63                           ; INCLUDING, BUT NOT LIMITED TO, THE IMPLIED WARRANTIES OF MERCHANTABILITY AND FITNESS F
      +                          OR
    64                           ; PURPOSE ARE DISCLAIMED.  IN NO EVENT SHALL MICROCHIP BE LIABLE FOR ANY DIRECT, INDIREC
      +                          T,
    65                           ; INCIDENTAL, SPECIAL, EXEMPLARY, OR CONSEQUENTIAL DAMAGES (INCLUDING BUT NOT LIMITED TO
    66                           ; PROCUREMENT OF SUBSTITUTE GOODS OR SERVICES; LOSS OF USE, DATA OR PROFITS; OR BUSINESS
    67                           ; INTERRUPTION) HOWSOEVER CAUSED AND ON ANY THEORY OF LIABILITY, WHETHER IN CONTRACT, ST
      +                          RICT
    68                           ; LIABILITY, OR TORT (INCLUDING NEGLIGENCE OR OTHERWISE) ARISING IN ANY WAY OUT OF THE U
      +                          SE OF
    69                           ; THIS SOFTWARE, EVEN IF ADVISED OF THE POSSIBILITY OF SUCH DAMAGE.
    70                           ; 
    71                           ; 
    72                           ; Code-generator required, PIC18F46K22 Definitions
    73                           ; 
    74                           ; SFR Addresses
    75  0000                     
    76                           	psect	idataCOMRAM
    77  0018DE                     __pidataCOMRAM:
    78                           	callstack 0
    79                           
    80                           ;initializer for uretici2@tek
    81  0018DE  01                 	db	1
    82                           
    83                           	psect	smallconst
    84  001000                     __psmallconst:
    85                           	callstack 0
    86  001000  00                 	db	0
    87  001001                     gostergeTara@BCDdenOrtakAnoda:
    88                           	callstack 0
    89  001001  C0                 	db	192
    90  001002  F9                 	db	249
    91  001003  A4                 	db	164
    92  001004  B0                 	db	176
    93  001005  99                 	db	153
    94  001006  92                 	db	146
    95  001007  82                 	db	130
    96  001008  F8                 	db	248
    97  001009  80                 	db	128
    98  00100A  90                 	db	144
    99  00100B  88                 	db	136
   100  00100C  83                 	db	131
   101  00100D  C6                 	db	198
   102  00100E  A1                 	db	161
   103  00100F  86                 	db	134
   104  001010  8E                 	db	142
   105  001011  BF                 	db	191
   106  001012                     __end_ofgostergeTara@BCDdenOrtakAnoda:
   107                           	callstack 0
   108  0000                     _ANSELB	set	3897
   109  0000                     _ANSELC	set	3898
   110  0000                     _TMR0	set	4054
   111  0000                     _LATBbits	set	3978
   112  0000                     _TRISB	set	3987
   113  0000                     _LATB	set	3978
   114  0000                     _TRISC	set	3988
   115  0000                     _LATC	set	3979
   116  0000                     _INTCON	set	4082
   117  0000                     _OSCTUNE	set	3995
   118  0000                     _OSCCON2	set	4050
   119  0000                     _OSCCON	set	4051
   120  0000                     _T0CONbits	set	4053
   121  0000                     _T0CON	set	4053
   122  0000                     _PIR1bits	set	3998
   123  0000                     _PIE1bits	set	3997
   124  0000                     _INTCONbits	set	4082
   125  0000                     _RCONbits	set	4048
   126  0000                     _TXIF	set	31988
   127  0000                     _TXIE	set	31980
   128  0000                     _RCIF	set	31989
   129  0000                     _TMR0IF	set	32658
   130  001012  00                 	db	0	; dummy byte at the end
   131  0000                     
   132                           ; #config settings
   133                           
   134                           	psect	cinit
   135  001806                     __pcinit:
   136                           	callstack 0
   137  001806                     start_initialization:
   138                           	callstack 0
   139  001806                     __initialization:
   140                           	callstack 0
   141                           
   142                           ; Initialize objects allocated to COMRAM (1 bytes)
   143                           ; load TBLPTR registers with __pidataCOMRAM
   144  001806  0EDE               	movlw	low __pidataCOMRAM
   145  001808  6EF6               	movwf	tblptrl,c
   146  00180A  0E18               	movlw	high __pidataCOMRAM
   147  00180C  6EF7               	movwf	tblptrh,c
   148  00180E  0E00               	movlw	low (__pidataCOMRAM shr (0+16))
   149  001810  6EF8               	movwf	tblptru,c
   150  001812  0009               	tblrd		*+	;fetch initializer
   151  001814  CFF5 F04D          	movff	tablat,__pdataCOMRAM
   152                           
   153                           ; Clear objects allocated to BANK0 (36 bytes)
   154  001818  EE00  F060         	lfsr	0,__pbssBANK0
   155  00181C  0E24               	movlw	36
   156  00181E                     clear_0:
   157  00181E  6AEE               	clrf	postinc0,c
   158  001820  06E8               	decf	wreg,f,c
   159  001822  E1FD               	bnz	clear_0
   160                           
   161                           ; Clear objects allocated to COMRAM (41 bytes)
   162  001824  EE00  F001         	lfsr	0,__pbssCOMRAM
   163  001828  0E29               	movlw	41
   164  00182A                     clear_1:
   165  00182A  6AEE               	clrf	postinc0,c
   166  00182C  06E8               	decf	wreg,f,c
   167  00182E  E1FD               	bnz	clear_1
   168  001830                     end_of_initialization:
   169                           	callstack 0
   170  001830                     __end_of__initialization:
   171                           	callstack 0
   172  001830  904E               	bcf	int$flags,0,c	;clear compiler interrupt flag (level 1)
   173  001832  924E               	bcf	int$flags,1,c	;clear compiler interrupt flag (level 2)
   174  001834  0100               	movlb	0
   175  001836  EF7F  F00B         	goto	_main	;jump to C main() function
   176                           
   177                           	psect	bssCOMRAM
   178  000001                     __pbssCOMRAM:
   179                           	callstack 0
   180  000001                     gostergeTara@s5:
   181                           	callstack 0
   182  000001                     	ds	4
   183  000005                     gostergeDegerleriGuncelle@s2:
   184                           	callstack 0
   185  000005                     	ds	4
   186  000009                     _gosterge:
   187                           	callstack 0
   188  000009                     	ds	4
   189  00000D                     _tikSayimi:
   190                           	callstack 0
   191  00000D                     	ds	2
   192  00000F                     _sisTimerDisIsleyici:
   193                           	callstack 0
   194  00000F                     	ds	2
   195  000011                     _uartRxKesmeIsleyici:
   196                           	callstack 0
   197  000011                     	ds	2
   198  000013                     _uartTxKesmeIsleyici:
   199                           	callstack 0
   200  000013                     	ds	2
   201  000015                     _timer0KesmeIsleyici:
   202                           	callstack 0
   203  000015                     	ds	2
   204  000017                     uretici1@cift:
   205                           	callstack 0
   206  000017                     	ds	1
   207  000018                     _kuyruk1Erisim:
   208                           	callstack 0
   209  000018                     	ds	1
   210  000019                     	ds	1
   211  00001A                     _gorevSayimi:
   212                           	callstack 0
   213  00001A                     	ds	1
   214  00001B                     _intconYedek@portmacro$F434:
   215                           	callstack 0
   216  00001B                     	ds	1
   217  00001C                     	ds	1
   218  00001D                     	ds	1
   219  00001E                     _k1:
   220                           	callstack 0
   221  00001E                     	ds	8
   222  000026                     _kuyruk1:
   223                           	callstack 0
   224  000026                     	ds	4
   225                           
   226                           	psect	dataCOMRAM
   227  00004D                     __pdataCOMRAM:
   228                           	callstack 0
   229  00004D                     uretici2@tek:
   230                           	callstack 0
   231  00004D                     	ds	1
   232                           
   233                           	psect	bssBANK0
   234  000060                     __pbssBANK0:
   235                           	callstack 0
   236  000060                     _gorevHavuzu:
   237                           	callstack 0
   238  000060                     	ds	36
   239                           
   240                           	psect	cstackCOMRAM
   241  00002A                     __pcstackCOMRAM:
   242                           	callstack 0
   243  00002A                     ??_interruptYonetici:
   244  00002A                     
   245                           ; 1 bytes @ 0x0
   246  00002A                     	ds	14
   247  000038                     ?_grvTikSayiminiAl:
   248                           	callstack 0
   249  000038                     uckuyrukIlkle@kuyruk:
   250                           	callstack 0
   251  000038                     uckuyrukDolu@kuyruk:
   252                           	callstack 0
   253  000038                     uckuyrukBos@kuyruk:
   254                           	callstack 0
   255  000038                     timer0KesmeIsleyiciKur@isleyici:
   256                           	callstack 0
   257  000038                     grvOlustur@is:
   258                           	callstack 0
   259                           
   260                           ; 2 bytes @ 0xE
   261  000038                     	ds	1
   262  000039                     uckuyrukIlkle@veri:
   263                           	callstack 0
   264  000039                     _uckuyrukBos$598:
   265                           	callstack 0
   266                           
   267                           ; 2 bytes @ 0xF
   268  000039                     	ds	1
   269  00003A                     uckuyrukIlkle@kap:
   270                           	callstack 0
   271  00003A                     sisTimerIlkle@isleyici:
   272                           	callstack 0
   273  00003A                     grvTikSayiminiAl@sayim:
   274                           	callstack 0
   275                           
   276                           ; 2 bytes @ 0x10
   277  00003A                     	ds	1
   278  00003B                     uckuyrukKuyruktanAl@kuyruk:
   279                           	callstack 0
   280  00003B                     _uckuyrukDolu$591:
   281                           	callstack 0
   282                           
   283                           ; 2 bytes @ 0x11
   284  00003B                     	ds	1
   285  00003C                     grvOlustur@s:
   286                           	callstack 0
   287                           
   288                           ; 1 bytes @ 0x12
   289  00003C                     	ds	1
   290  00003D                     grvOlustur@gkb:
   291                           	callstack 0
   292  00003D                     uckuyrukKuyrukla@kuyruk:
   293                           	callstack 0
   294  00003D                     uckuyrukKuyruktanAl@b:
   295                           	callstack 0
   296                           
   297                           ; 1 bytes @ 0x13
   298  00003D                     	ds	1
   299  00003E                     uckuyrukKuyrukla@veri:
   300                           	callstack 0
   301  00003E                     uckuyrukKuyruktanAl@bas:
   302                           	callstack 0
   303                           
   304                           ; 1 bytes @ 0x14
   305  00003E                     	ds	1
   306  00003F                     uckuyrukKuyrukla@sayim:
   307                           	callstack 0
   308                           
   309                           ; 1 bytes @ 0x15
   310  00003F                     	ds	1
   311  000040                     uckuyrukKuyrukla@kap:
   312                           	callstack 0
   313                           
   314                           ; 1 bytes @ 0x16
   315  000040                     	ds	1
   316  000041                     uckuyrukKuyrukla@konum:
   317                           	callstack 0
   318                           
   319                           ; 1 bytes @ 0x17
   320  000041                     	ds	1
   321  000042                     uretici1@tutucu:
   322                           	callstack 0
   323  000042                     uretici2@tutucu:
   324                           	callstack 0
   325  000042                     gostergeDegerleriGuncelle@tutucu:
   326                           	callstack 0
   327  000042                     gostergeTara@tutucu:
   328                           	callstack 0
   329                           
   330                           ; 1 bytes @ 0x18
   331  000042                     	ds	1
   332  000043                     ??_uretici1:
   333  000043                     ??_uretici2:
   334  000043                     ??_gostergeDegerleriGuncelle:
   335  000043                     ??_gostergeTara:
   336                           
   337                           ; 1 bytes @ 0x19
   338  000043                     	ds	2
   339  000045                     uretici1@VAZGECIS_BAYRAGI:
   340                           	callstack 0
   341  000045                     uretici2@VAZGECIS_BAYRAGI:
   342                           	callstack 0
   343                           
   344                           ; 1 bytes @ 0x1B
   345  000045                     	ds	1
   346  000046                     gostergeDegerleriGuncelle@b:
   347                           	callstack 0
   348                           
   349                           ; 2 bytes @ 0x1C
   350  000046                     	ds	2
   351  000048                     grvGorevciyiBaslat@is:
   352                           	callstack 0
   353                           
   354                           ; 2 bytes @ 0x1E
   355  000048                     	ds	2
   356  00004A                     grvGorevciyiBaslat@s:
   357                           	callstack 0
   358                           
   359                           ; 1 bytes @ 0x20
   360  00004A                     	ds	1
   361  00004B                     grvGorevciyiBaslat@durum:
   362                           	callstack 0
   363                           
   364                           ; 1 bytes @ 0x21
   365  00004B                     	ds	1
   366  00004C                     grvGorevciyiBaslat@gkb:
   367                           	callstack 0
   368                           
   369                           ; 1 bytes @ 0x22
   370  00004C                     	ds	1
   371  00004D                     
   372                           ; 1 bytes @ 0x23
   373 ;;
   374 ;;Main: autosize = 0, tempsize = 0, incstack = 0, save=0
   375 ;;
   376 ;; *************** function _main *****************
   377 ;; Defined at:
   378 ;;		line 220 in file "ornek4.c"
   379 ;; Parameters:    Size  Location     Type
   380 ;;		None
   381 ;; Auto vars:     Size  Location     Type
   382 ;;		None
   383 ;; Return value:  Size  Location     Type
   384 ;;                  1    wreg      void 
   385 ;; Registers used:
   386 ;;		wreg, fsr1l, fsr1h, fsr2l, fsr2h, status,2, status,0, pclath, tosl, tblptrl, tblptrh, tblptru, prodl, prodh, cstack
   387 ;; Tracked objects:
   388 ;;		On entry : 0/0
   389 ;;		On exit  : 0/0
   390 ;;		Unchanged: 0/0
   391 ;; Data sizes:     COMRAM   BANK0   BANK1   BANK2   BANK3   BANK4   BANK5   BANK6   BANK7   BANK8   BANK9  BANK10  BANK1
      +1  BANK12  BANK13  BANK14  BANK15
   392 ;;      Params:         0       0       0       0       0       0       0       0       0       0       0       0       
      +0       0       0       0       0
   393 ;;      Locals:         0       0       0       0       0       0       0       0       0       0       0       0       
      +0       0       0       0       0
   394 ;;      Temps:          0       0       0       0       0       0       0       0       0       0       0       0       
      +0       0       0       0       0
   395 ;;      Totals:         0       0       0       0       0       0       0       0       0       0       0       0       
      +0       0       0       0       0
   396 ;;Total ram usage:        0 bytes
   397 ;; Hardware stack levels required when called:    8
   398 ;; This function calls:
   399 ;;		_grvOlustur
   400 ;;		_portGorevciyiBaslat
   401 ;;		_sisOsilatorIlkle
   402 ;;		_uckuyrukIlkle
   403 ;; This function is called by:
   404 ;;		Startup code after reset
   405 ;; This function uses a non-reentrant model
   406 ;;
   407                           
   408                           	psect	text0
   409  0016FE                     __ptext0:
   410                           	callstack 0
   411  0016FE                     _main:
   412                           	callstack 23
   413                           
   414                           ;ornek4.c: 222:     sisOsilatorIlkle();
   415                           
   416                           ;incstack = 0
   417  0016FE  EC5D  F00C         	call	_sisOsilatorIlkle	;wreg free
   418                           
   419                           ;ornek4.c: 224:     uckuyrukIlkle((unsigned char)sizeof(k1), &kuyruk1, k1);
   420  001702  0E26               	movlw	low _kuyruk1
   421  001704  6E38               	movwf	uckuyrukIlkle@kuyruk^0,c
   422  001706  0E1E               	movlw	low _k1
   423  001708  6E39               	movwf	uckuyrukIlkle@veri^0,c
   424  00170A  0E08               	movlw	8
   425  00170C  ECA6  F00B         	call	_uckuyrukIlkle
   426                           
   427                           ;ornek4.c: 228:     (&kuyruk1Erisim)->sayim = 1;
   428  001710  0E01               	movlw	1
   429  001712  6E18               	movwf	_kuyruk1Erisim^0,c
   430                           
   431                           ;ornek4.c: 236:     grvOlustur(uretici1);
   432  001714  0E38               	movlw	low _uretici1
   433  001716  6E38               	movwf	grvOlustur@is^0,c
   434  001718  0E13               	movlw	high _uretici1
   435  00171A  6E39               	movwf	(grvOlustur@is+1)^0,c
   436  00171C  ECCF  F00A         	call	_grvOlustur	;wreg free
   437                           
   438                           ;ornek4.c: 237:     grvOlustur(uretici2);
   439  001720  0E2A               	movlw	low _uretici2
   440  001722  6E38               	movwf	grvOlustur@is^0,c
   441  001724  0E14               	movlw	high _uretici2
   442  001726  6E39               	movwf	(grvOlustur@is+1)^0,c
   443  001728  ECCF  F00A         	call	_grvOlustur	;wreg free
   444                           
   445                           ;ornek4.c: 238:     grvOlustur(gostergeDegerleriGuncelle);
   446  00172C  0E1C               	movlw	low _gostergeDegerleriGuncelle
   447  00172E  6E38               	movwf	grvOlustur@is^0,c
   448  001730  0E12               	movlw	high _gostergeDegerleriGuncelle
   449  001732  6E39               	movwf	(grvOlustur@is+1)^0,c
   450  001734  ECCF  F00A         	call	_grvOlustur	;wreg free
   451                           
   452                           ;ornek4.c: 239:     grvOlustur(gostergeTara);
   453  001738  0E14               	movlw	low _gostergeTara
   454  00173A  6E38               	movwf	grvOlustur@is^0,c
   455  00173C  0E10               	movlw	high _gostergeTara
   456  00173E  6E39               	movwf	(grvOlustur@is+1)^0,c
   457  001740  ECCF  F00A         	call	_grvOlustur	;wreg free
   458                           
   459                           ;ornek4.c: 242:     portGorevciyiBaslat();
   460  001744  EC51  F00C         	call	_portGorevciyiBaslat	;wreg free
   461  001748  EF59  F000         	goto	start
   462  00174C                     __end_of_main:
   463                           	callstack 0
   464                           
   465 ;; *************** function _uckuyrukIlkle *****************
   466 ;; Defined at:
   467 ;;		line 31 in file "../../../../../kaynak/uckuyruk.c"
   468 ;; Parameters:    Size  Location     Type
   469 ;;  kap             1    wreg     const unsigned char 
   470 ;;  kuyruk          1   14[COMRAM] PTR struct .
   471 ;;		 -> kuyruk1(4), 
   472 ;;  veri            1   15[COMRAM] PTR unsigned char 
   473 ;;		 -> k1(8), 
   474 ;; Auto vars:     Size  Location     Type
   475 ;;  kap             1   16[COMRAM] const unsigned char 
   476 ;; Return value:  Size  Location     Type
   477 ;;                  1    wreg      void 
   478 ;; Registers used:
   479 ;;		wreg, fsr2l, fsr2h, status,2, status,0
   480 ;; Tracked objects:
   481 ;;		On entry : 0/0
   482 ;;		On exit  : 0/0
   483 ;;		Unchanged: 0/0
   484 ;; Data sizes:     COMRAM   BANK0   BANK1   BANK2   BANK3   BANK4   BANK5   BANK6   BANK7   BANK8   BANK9  BANK10  BANK1
      +1  BANK12  BANK13  BANK14  BANK15
   485 ;;      Params:         2       0       0       0       0       0       0       0       0       0       0       0       
      +0       0       0       0       0
   486 ;;      Locals:         1       0       0       0       0       0       0       0       0       0       0       0       
      +0       0       0       0       0
   487 ;;      Temps:          0       0       0       0       0       0       0       0       0       0       0       0       
      +0       0       0       0       0
   488 ;;      Totals:         3       0       0       0       0       0       0       0       0       0       0       0       
      +0       0       0       0       0
   489 ;;Total ram usage:        3 bytes
   490 ;; Hardware stack levels used:    1
   491 ;; Hardware stack levels required when called:    3
   492 ;; This function calls:
   493 ;;		Nothing
   494 ;; This function is called by:
   495 ;;		_main
   496 ;; This function uses a non-reentrant model
   497 ;;
   498                           
   499                           	psect	text1
   500  00174C                     __ptext1:
   501                           	callstack 0
   502  00174C                     _uckuyrukIlkle:
   503                           	callstack 27
   504                           
   505                           ;incstack = 0
   506                           ;uckuyrukIlkle@kap stored from wreg
   507  00174C  6E3A               	movwf	uckuyrukIlkle@kap^0,c
   508                           
   509                           ;../../../../../kaynak/uckuyruk.c: 31: void uckuyrukIlkle(const unsigned char kap,;../..
      +                          /../../../kaynak/uckuyruk.c: 32:         uckuyruk_t *kuyruk, unsigned char *veri) {;../.
      +                          ./../../../kaynak/uckuyruk.c: 33:  if(kuyruk == ( (void*) 0 ) || veri == ( (void*) 0 )) 
      +                          return;
   510  00174E  5038               	movf	uckuyrukIlkle@kuyruk^0,w,c
   511  001750  B4D8               	btfsc	status,2,c
   512  001752  0012               	return	
   513  001754  5039               	movf	uckuyrukIlkle@veri^0,w,c
   514  001756  B4D8               	btfsc	status,2,c
   515  001758  0012               	return	
   516                           
   517                           ;../../../../../kaynak/uckuyruk.c: 34:  kuyruk->kapasite = kap;
   518  00175A  5038               	movf	uckuyrukIlkle@kuyruk^0,w,c
   519  00175C  6ED9               	movwf	fsr2l,c
   520  00175E  6ADA               	clrf	fsr2h,c
   521  001760  C03A  FFDF         	movff	uckuyrukIlkle@kap,indf2
   522                           
   523                           ;../../../../../kaynak/uckuyruk.c: 35:  kuyruk->bas = 0;
   524  001764  5038               	movf	uckuyrukIlkle@kuyruk^0,w,c
   525  001766  6ED9               	movwf	fsr2l,c
   526  001768  6ADA               	clrf	fsr2h,c
   527  00176A  0E02               	movlw	2
   528  00176C  26D9               	addwf	fsr2l,f,c
   529  00176E  0E00               	movlw	0
   530  001770  6EDF               	movwf	indf2,c
   531                           
   532                           ;../../../../../kaynak/uckuyruk.c: 36:  kuyruk->sayim = 0;
   533  001772  5038               	movf	uckuyrukIlkle@kuyruk^0,w,c
   534  001774  6ED9               	movwf	fsr2l,c
   535  001776  6ADA               	clrf	fsr2h,c
   536  001778  0E01               	movlw	1
   537  00177A  26D9               	addwf	fsr2l,f,c
   538  00177C  0E00               	movlw	0
   539  00177E  6EDF               	movwf	indf2,c
   540                           
   541                           ;../../../../../kaynak/uckuyruk.c: 37:  kuyruk->veri = veri;
   542  001780  5038               	movf	uckuyrukIlkle@kuyruk^0,w,c
   543  001782  6ED9               	movwf	fsr2l,c
   544  001784  6ADA               	clrf	fsr2h,c
   545  001786  0E03               	movlw	3
   546  001788  26D9               	addwf	fsr2l,f,c
   547  00178A  C039  FFDF         	movff	uckuyrukIlkle@veri,indf2
   548  00178E  0012               	return		;funcret
   549  001790                     __end_of_uckuyrukIlkle:
   550                           	callstack 0
   551                           
   552 ;; *************** function _sisOsilatorIlkle *****************
   553 ;; Defined at:
   554 ;;		line 27 in file "osilator.c"
   555 ;; Parameters:    Size  Location     Type
   556 ;;		None
   557 ;; Auto vars:     Size  Location     Type
   558 ;;		None
   559 ;; Return value:  Size  Location     Type
   560 ;;                  1    wreg      void 
   561 ;; Registers used:
   562 ;;		wreg, status,2
   563 ;; Tracked objects:
   564 ;;		On entry : 0/0
   565 ;;		On exit  : 0/0
   566 ;;		Unchanged: 0/0
   567 ;; Data sizes:     COMRAM   BANK0   BANK1   BANK2   BANK3   BANK4   BANK5   BANK6   BANK7   BANK8   BANK9  BANK10  BANK1
      +1  BANK12  BANK13  BANK14  BANK15
   568 ;;      Params:         0       0       0       0       0       0       0       0       0       0       0       0       
      +0       0       0       0       0
   569 ;;      Locals:         0       0       0       0       0       0       0       0       0       0       0       0       
      +0       0       0       0       0
   570 ;;      Temps:          0       0       0       0       0       0       0       0       0       0       0       0       
      +0       0       0       0       0
   571 ;;      Totals:         0       0       0       0       0       0       0       0       0       0       0       0       
      +0       0       0       0       0
   572 ;;Total ram usage:        0 bytes
   573 ;; Hardware stack levels used:    1
   574 ;; Hardware stack levels required when called:    3
   575 ;; This function calls:
   576 ;;		Nothing
   577 ;; This function is called by:
   578 ;;		_main
   579 ;; This function uses a non-reentrant model
   580 ;;
   581                           
   582                           	psect	text2
   583  0018BA                     __ptext2:
   584                           	callstack 0
   585  0018BA                     _sisOsilatorIlkle:
   586                           	callstack 27
   587                           
   588                           ;osilator.c: 29:     OSCCON = 0b01110011;
   589                           
   590                           ;incstack = 0
   591  0018BA  0E73               	movlw	115
   592  0018BC  6ED3               	movwf	211,c	;volatile
   593                           
   594                           ;osilator.c: 31:     OSCCON2 = 0x04;
   595  0018BE  0E04               	movlw	4
   596  0018C0  6ED2               	movwf	210,c	;volatile
   597                           
   598                           ;osilator.c: 33:     OSCTUNE = 0x00;
   599  0018C2  0E00               	movlw	0
   600  0018C4  6E9B               	movwf	155,c	;volatile
   601  0018C6  0012               	return		;funcret
   602  0018C8                     __end_of_sisOsilatorIlkle:
   603                           	callstack 0
   604                           
   605 ;; *************** function _portGorevciyiBaslat *****************
   606 ;; Defined at:
   607 ;;		line 47 in file "../../../../../kaynak/portlar/mplabx/xc8/pic18/port.c"
   608 ;; Parameters:    Size  Location     Type
   609 ;;		None
   610 ;; Auto vars:     Size  Location     Type
   611 ;;		None
   612 ;; Return value:  Size  Location     Type
   613 ;;                  1    wreg      void 
   614 ;; Registers used:
   615 ;;		wreg, fsr1l, fsr1h, fsr2l, fsr2h, status,2, status,0, pclath, tosl, tblptrl, tblptrh, tblptru, prodl, prodh, cstack
   616 ;; Tracked objects:
   617 ;;		On entry : 0/0
   618 ;;		On exit  : 0/0
   619 ;;		Unchanged: 0/0
   620 ;; Data sizes:     COMRAM   BANK0   BANK1   BANK2   BANK3   BANK4   BANK5   BANK6   BANK7   BANK8   BANK9  BANK10  BANK1
      +1  BANK12  BANK13  BANK14  BANK15
   621 ;;      Params:         0       0       0       0       0       0       0       0       0       0       0       0       
      +0       0       0       0       0
   622 ;;      Locals:         0       0       0       0       0       0       0       0       0       0       0       0       
      +0       0       0       0       0
   623 ;;      Temps:          0       0       0       0       0       0       0       0       0       0       0       0       
      +0       0       0       0       0
   624 ;;      Totals:         0       0       0       0       0       0       0       0       0       0       0       0       
      +0       0       0       0       0
   625 ;;Total ram usage:        0 bytes
   626 ;; Hardware stack levels used:    1
   627 ;; Hardware stack levels required when called:    7
   628 ;; This function calls:
   629 ;;		_grvGorevciyiBaslat
   630 ;;		_interruptIlkle
   631 ;;		_sisTimerIlkle
   632 ;; This function is called by:
   633 ;;		_main
   634 ;; This function uses a non-reentrant model
   635 ;;
   636                           
   637                           	psect	text3
   638  0018A2                     __ptext3:
   639                           	callstack 0
   640  0018A2                     _portGorevciyiBaslat:
   641                           	callstack 23
   642                           
   643                           ;../../../../../kaynak/portlar/mplabx/xc8/pic18/port.c: 49:  interruptIlkle();
   644                           
   645                           ;incstack = 0
   646  0018A2  EC6C  F00C         	call	_interruptIlkle	;wreg free
   647                           
   648                           ;../../../../../kaynak/portlar/mplabx/xc8/pic18/port.c: 52:  sisTimerIlkle(grvTikKesmeIs
      +                          leyici);
   649  0018A6  0ED2               	movlw	low _grvTikKesmeIsleyici
   650  0018A8  6E3A               	movwf	sisTimerIlkle@isleyici^0,c
   651  0018AA  0E18               	movlw	high _grvTikKesmeIsleyici
   652  0018AC  6E3B               	movwf	(sisTimerIlkle@isleyici+1)^0,c
   653  0018AE  ECC8  F00B         	call	_sisTimerIlkle	;wreg free
   654                           
   655                           ;../../../../../kaynak/portlar/mplabx/xc8/pic18/port.c: 55:  INTCONbits.GIEH = 1;;
   656  0018B2  8EF2               	bsf	242,7,c	;volatile
   657                           
   658                           ;../../../../../kaynak/portlar/mplabx/xc8/pic18/port.c: 58:  grvGorevciyiBaslat();
   659  0018B4  EC8E  F00A         	call	_grvGorevciyiBaslat	;wreg free
   660  0018B8  0012               	return		;funcret
   661  0018BA                     __end_of_portGorevciyiBaslat:
   662                           	callstack 0
   663                           
   664 ;; *************** function _sisTimerIlkle *****************
   665 ;; Defined at:
   666 ;;		line 134 in file "sistimer.c"
   667 ;; Parameters:    Size  Location     Type
   668 ;;  isleyici        2   16[COMRAM] PTR FTN()void 
   669 ;;		 -> grvTikKesmeIsleyici(1), 
   670 ;; Auto vars:     Size  Location     Type
   671 ;;		None
   672 ;; Return value:  Size  Location     Type
   673 ;;                  1    wreg      void 
   674 ;; Registers used:
   675 ;;		wreg, status,2, status,0, cstack
   676 ;; Tracked objects:
   677 ;;		On entry : 0/0
   678 ;;		On exit  : 0/0
   679 ;;		Unchanged: 0/0
   680 ;; Data sizes:     COMRAM   BANK0   BANK1   BANK2   BANK3   BANK4   BANK5   BANK6   BANK7   BANK8   BANK9  BANK10  BANK1
      +1  BANK12  BANK13  BANK14  BANK15
   681 ;;      Params:         2       0       0       0       0       0       0       0       0       0       0       0       
      +0       0       0       0       0
   682 ;;      Locals:         0       0       0       0       0       0       0       0       0       0       0       0       
      +0       0       0       0       0
   683 ;;      Temps:          0       0       0       0       0       0       0       0       0       0       0       0       
      +0       0       0       0       0
   684 ;;      Totals:         2       0       0       0       0       0       0       0       0       0       0       0       
      +0       0       0       0       0
   685 ;;Total ram usage:        2 bytes
   686 ;; Hardware stack levels used:    1
   687 ;; Hardware stack levels required when called:    4
   688 ;; This function calls:
   689 ;;		_timer0KesmeIsleyiciKur
   690 ;; This function is called by:
   691 ;;		_portGorevciyiBaslat
   692 ;; This function uses a non-reentrant model
   693 ;;
   694                           
   695                           	psect	text4
   696  001790                     __ptext4:
   697                           	callstack 0
   698  001790                     _sisTimerIlkle:
   699                           	callstack 25
   700                           
   701                           ;sistimer.c: 135:     T0CON = 0;
   702                           
   703                           ;incstack = 0
   704  001790  0E00               	movlw	0
   705  001792  6ED5               	movwf	213,c	;volatile
   706                           
   707                           ;sistimer.c: 137:     T0CONbits.T08BIT = 0;
   708  001794  9CD5               	bcf	213,6,c	;volatile
   709                           
   710                           ;sistimer.c: 142:     T0CONbits.T0CS = 0;
   711  001796  9AD5               	bcf	213,5,c	;volatile
   712                           
   713                           ;sistimer.c: 145:     T0CONbits.PSA = 1;
   714  001798  86D5               	bsf	213,3,c	;volatile
   715                           
   716                           ;sistimer.c: 154:     TMR0 = (uint16_t) ((uint16_t)((65536)-((( (1000) - ( ( ( 52 ) * ( 
      +                          ( 1 * ( 100 ) ) / ( (16000000 / 4 ) / 1000000 ) ) ) / ( 100 ) ) )* (16000000/1000000))/(
      +                          4*(1)))-1));
   717  00179A  0EF0               	movlw	240
   718  00179C  6ED7               	movwf	215,c	;volatile
   719  00179E  0E93               	movlw	147
   720  0017A0  6ED6               	movwf	214,c	;volatile
   721                           
   722                           ;sistimer.c: 160:     sisTimerDisIsleyici = isleyici == ((void*)0) ? sisTimerIsleyiciVar
      +                          sayilan : isleyici;
   723  0017A2  503A               	movf	sisTimerIlkle@isleyici^0,w,c
   724  0017A4  103B               	iorwf	(sisTimerIlkle@isleyici+1)^0,w,c
   725  0017A6  B4D8               	btfsc	status,2,c
   726  0017A8  D005               	goto	l2097
   727  0017AA  C03A  F00F         	movff	sisTimerIlkle@isleyici,_sisTimerDisIsleyici
   728  0017AE  C03B  F010         	movff	sisTimerIlkle@isleyici+1,_sisTimerDisIsleyici+1
   729  0017B2  D004               	goto	l2099
   730  0017B4                     l2097:
   731  0017B4  0EDC               	movlw	low _sisTimerIsleyiciVarsayilan
   732  0017B6  6E0F               	movwf	_sisTimerDisIsleyici^0,c
   733  0017B8  0E18               	movlw	high _sisTimerIsleyiciVarsayilan
   734  0017BA  6E10               	movwf	(_sisTimerDisIsleyici+1)^0,c
   735  0017BC                     l2099:
   736                           
   737                           ;sistimer.c: 162:     timer0KesmeIsleyiciKur(sisTimerKesmeIsleyici);
   738  0017BC  0E68               	movlw	low _sisTimerKesmeIsleyici
   739  0017BE  6E38               	movwf	timer0KesmeIsleyiciKur@isleyici^0,c
   740  0017C0  0E18               	movlw	high _sisTimerKesmeIsleyici
   741  0017C2  6E39               	movwf	(timer0KesmeIsleyiciKur@isleyici+1)^0,c
   742  0017C4  EC64  F00C         	call	_timer0KesmeIsleyiciKur	;wreg free
   743                           
   744                           ;sistimer.c: 165:     INTCONbits.TMR0IF = 0;
   745  0017C8  94F2               	bcf	242,2,c	;volatile
   746                           
   747                           ;sistimer.c: 166:     INTCONbits.TMR0IE = 1;
   748  0017CA  8AF2               	bsf	242,5,c	;volatile
   749                           
   750                           ;sistimer.c: 169:     T0CONbits.TMR0ON = 1;
   751  0017CC  8ED5               	bsf	213,7,c	;volatile
   752  0017CE  0012               	return		;funcret
   753  0017D0                     __end_of_sisTimerIlkle:
   754                           	callstack 0
   755                           
   756 ;; *************** function _timer0KesmeIsleyiciKur *****************
   757 ;; Defined at:
   758 ;;		line 38 in file "interrupt.c"
   759 ;; Parameters:    Size  Location     Type
   760 ;;  isleyici        2   14[COMRAM] PTR FTN()void 
   761 ;;		 -> sisTimerKesmeIsleyici(1), 
   762 ;; Auto vars:     Size  Location     Type
   763 ;;		None
   764 ;; Return value:  Size  Location     Type
   765 ;;                  1    wreg      void 
   766 ;; Registers used:
   767 ;;		wreg, status,2, status,0
   768 ;; Tracked objects:
   769 ;;		On entry : 0/0
   770 ;;		On exit  : 0/0
   771 ;;		Unchanged: 0/0
   772 ;; Data sizes:     COMRAM   BANK0   BANK1   BANK2   BANK3   BANK4   BANK5   BANK6   BANK7   BANK8   BANK9  BANK10  BANK1
      +1  BANK12  BANK13  BANK14  BANK15
   773 ;;      Params:         2       0       0       0       0       0       0       0       0       0       0       0       
      +0       0       0       0       0
   774 ;;      Locals:         0       0       0       0       0       0       0       0       0       0       0       0       
      +0       0       0       0       0
   775 ;;      Temps:          0       0       0       0       0       0       0       0       0       0       0       0       
      +0       0       0       0       0
   776 ;;      Totals:         2       0       0       0       0       0       0       0       0       0       0       0       
      +0       0       0       0       0
   777 ;;Total ram usage:        2 bytes
   778 ;; Hardware stack levels used:    1
   779 ;; Hardware stack levels required when called:    3
   780 ;; This function calls:
   781 ;;		Nothing
   782 ;; This function is called by:
   783 ;;		_sisTimerIlkle
   784 ;; This function uses a non-reentrant model
   785 ;;
   786                           
   787                           	psect	text5
   788  0018C8                     __ptext5:
   789                           	callstack 0
   790  0018C8                     _timer0KesmeIsleyiciKur:
   791                           	callstack 25
   792                           
   793                           ;interrupt.c: 39:     timer0KesmeIsleyici = isleyici;
   794                           
   795                           ;incstack = 0
   796  0018C8  C038  F015         	movff	timer0KesmeIsleyiciKur@isleyici,_timer0KesmeIsleyici
   797  0018CC  C039  F016         	movff	timer0KesmeIsleyiciKur@isleyici+1,_timer0KesmeIsleyici+1
   798  0018D0  0012               	return		;funcret
   799  0018D2                     __end_of_timer0KesmeIsleyiciKur:
   800                           	callstack 0
   801                           
   802 ;; *************** function _interruptIlkle *****************
   803 ;; Defined at:
   804 ;;		line 31 in file "interrupt.c"
   805 ;; Parameters:    Size  Location     Type
   806 ;;		None
   807 ;; Auto vars:     Size  Location     Type
   808 ;;		None
   809 ;; Return value:  Size  Location     Type
   810 ;;                  1    wreg      void 
   811 ;; Registers used:
   812 ;;		None
   813 ;; Tracked objects:
   814 ;;		On entry : 0/0
   815 ;;		On exit  : 0/0
   816 ;;		Unchanged: 0/0
   817 ;; Data sizes:     COMRAM   BANK0   BANK1   BANK2   BANK3   BANK4   BANK5   BANK6   BANK7   BANK8   BANK9  BANK10  BANK1
      +1  BANK12  BANK13  BANK14  BANK15
   818 ;;      Params:         0       0       0       0       0       0       0       0       0       0       0       0       
      +0       0       0       0       0
   819 ;;      Locals:         0       0       0       0       0       0       0       0       0       0       0       0       
      +0       0       0       0       0
   820 ;;      Temps:          0       0       0       0       0       0       0       0       0       0       0       0       
      +0       0       0       0       0
   821 ;;      Totals:         0       0       0       0       0       0       0       0       0       0       0       0       
      +0       0       0       0       0
   822 ;;Total ram usage:        0 bytes
   823 ;; Hardware stack levels used:    1
   824 ;; Hardware stack levels required when called:    3
   825 ;; This function calls:
   826 ;;		Nothing
   827 ;; This function is called by:
   828 ;;		_portGorevciyiBaslat
   829 ;; This function uses a non-reentrant model
   830 ;;
   831                           
   832                           	psect	text6
   833  0018D8                     __ptext6:
   834                           	callstack 0
   835  0018D8                     _interruptIlkle:
   836                           	callstack 26
   837                           
   838                           ;interrupt.c: 34:     RCONbits.IPEN = 0;
   839                           
   840                           ;incstack = 0
   841  0018D8  9ED0               	bcf	208,7,c	;volatile
   842  0018DA  0012               	return		;funcret
   843  0018DC                     __end_of_interruptIlkle:
   844                           	callstack 0
   845                           
   846 ;; *************** function _grvGorevciyiBaslat *****************
   847 ;; Defined at:
   848 ;;		line 79 in file "../../../../../kaynak/gorev.c"
   849 ;; Parameters:    Size  Location     Type
   850 ;;		None
   851 ;; Auto vars:     Size  Location     Type
   852 ;;  is              2   30[COMRAM] PTR FTN(PTR void ,)unsig
   853 ;;		 -> gostergeTara(1), gostergeDegerleriGuncelle(1), uretici2(1), uretici1(1), 
   854 ;;  gkb             1   34[COMRAM] PTR struct .
   855 ;;		 -> gorevHavuzu(36), 
   856 ;;  durum           1   33[COMRAM] unsigned char 
   857 ;;  s               1   32[COMRAM] unsigned char 
   858 ;; Return value:  Size  Location     Type
   859 ;;                  1    wreg      void 
   860 ;; Registers used:
   861 ;;		wreg, fsr1l, fsr1h, fsr2l, fsr2h, status,2, status,0, pclath, tosl, tblptrl, tblptrh, tblptru, prodl, prodh, cstack
   862 ;; Tracked objects:
   863 ;;		On entry : 0/0
   864 ;;		On exit  : 0/0
   865 ;;		Unchanged: 0/0
   866 ;; Data sizes:     COMRAM   BANK0   BANK1   BANK2   BANK3   BANK4   BANK5   BANK6   BANK7   BANK8   BANK9  BANK10  BANK1
      +1  BANK12  BANK13  BANK14  BANK15
   867 ;;      Params:         0       0       0       0       0       0       0       0       0       0       0       0       
      +0       0       0       0       0
   868 ;;      Locals:         5       0       0       0       0       0       0       0       0       0       0       0       
      +0       0       0       0       0
   869 ;;      Temps:          0       0       0       0       0       0       0       0       0       0       0       0       
      +0       0       0       0       0
   870 ;;      Totals:         5       0       0       0       0       0       0       0       0       0       0       0       
      +0       0       0       0       0
   871 ;;Total ram usage:        5 bytes
   872 ;; Hardware stack levels used:    1
   873 ;; Hardware stack levels required when called:    6
   874 ;; This function calls:
   875 ;;		_gostergeDegerleriGuncelle
   876 ;;		_gostergeTara
   877 ;;		_uretici1
   878 ;;		_uretici2
   879 ;; This function is called by:
   880 ;;		_portGorevciyiBaslat
   881 ;; This function uses a non-reentrant model
   882 ;;
   883                           
   884                           	psect	text7
   885  00151C                     __ptext7:
   886                           	callstack 0
   887  00151C                     _grvGorevciyiBaslat:
   888                           	callstack 23
   889                           
   890                           ;../../../../../kaynak/gorev.c: 81:   for(unsigned char s = 0; s < gorevSayimi; s++) {
   891                           
   892                           ;incstack = 0
   893                           ;../../../../../kaynak/gorev.c: 80:  while(1) {
   894  00151C  0E00               	movlw	0
   895  00151E  6E4A               	movwf	grvGorevciyiBaslat@s^0,c
   896  001520  D039               	goto	l2133
   897  001522                     l2109:
   898                           
   899                           ;../../../../../kaynak/gorev.c: 83:    pgkb gkb = &gorevHavuzu[s];
   900  001522  504A               	movf	grvGorevciyiBaslat@s^0,w,c
   901  001524  0D06               	mullw	6
   902  001526  50F3               	movf	243,w,c
   903  001528  0F60               	addlw	low _gorevHavuzu
   904  00152A  6E4C               	movwf	grvGorevciyiBaslat@gkb^0,c
   905                           
   906                           ;../../../../../kaynak/gorev.c: 85:    if(gkb == ((void*)0)) continue;
   907  00152C  504C               	movf	grvGorevciyiBaslat@gkb^0,w,c
   908  00152E  B4D8               	btfsc	status,2,c
   909  001530  D030               	goto	l2131
   910                           
   911                           ;../../../../../kaynak/gorev.c: 87:    is_t is = gkb->is;
   912  001532  504C               	movf	grvGorevciyiBaslat@gkb^0,w,c
   913  001534  6ED9               	movwf	fsr2l,c
   914  001536  6ADA               	clrf	fsr2h,c
   915  001538  0E04               	movlw	4
   916  00153A  26D9               	addwf	fsr2l,f,c
   917  00153C  CFDE F048          	movff	postinc2,grvGorevciyiBaslat@is
   918  001540  CFDD F049          	movff	postdec2,grvGorevciyiBaslat@is+1
   919                           
   920                           ;../../../../../kaynak/gorev.c: 89:    if(is == ((void*)0)) continue;
   921  001544  5048               	movf	grvGorevciyiBaslat@is^0,w,c
   922  001546  1049               	iorwf	(grvGorevciyiBaslat@is+1)^0,w,c
   923  001548  B4D8               	btfsc	status,2,c
   924  00154A  D023               	goto	l2131
   925                           
   926                           ;../../../../../kaynak/gorev.c: 91:    char durum = gkb->durum;
   927  00154C  504C               	movf	grvGorevciyiBaslat@gkb^0,w,c
   928  00154E  6ED9               	movwf	fsr2l,c
   929  001550  6ADA               	clrf	fsr2h,c
   930  001552  0E01               	movlw	1
   931  001554  26D9               	addwf	fsr2l,f,c
   932  001556  50DF               	movf	indf2,w,c
   933  001558  6E4B               	movwf	grvGorevciyiBaslat@durum^0,c
   934                           
   935                           ;../../../../../kaynak/gorev.c: 92:    if(durum == 2 || durum == 1) continue;
   936  00155A  0E02               	movlw	2
   937  00155C  184B               	xorwf	grvGorevciyiBaslat@durum^0,w,c
   938  00155E  B4D8               	btfsc	status,2,c
   939  001560  D018               	goto	l2131
   940  001562  044B               	decf	grvGorevciyiBaslat@durum^0,w,c
   941  001564  B4D8               	btfsc	status,2,c
   942  001566  D015               	goto	l2131
   943                           
   944                           ;../../../../../kaynak/gorev.c: 93:    durum = is(gkb);
   945  001568  C04C  F042         	movff	grvGorevciyiBaslat@gkb,gostergeTara@tutucu
   946  00156C  D801               	call	u1038
   947  00156E  D009               	goto	u1039
   948  001570                     u1038:
   949  001570  0005               	push	
   950  001572  6EFA               	movwf	pclath,c
   951  001574  5048               	movf	grvGorevciyiBaslat@is^0,w,c
   952  001576  6EFD               	movwf	tosl,c
   953  001578  5049               	movf	(grvGorevciyiBaslat@is+1)^0,w,c
   954  00157A  6EFE               	movwf	tosh,c
   955  00157C  6AFF               	clrf	tosu,c
   956  00157E  50FA               	movf	pclath,w,c
   957  001580  0012               	return		;indir
   958  001582                     u1039:
   959  001582  6E4B               	movwf	grvGorevciyiBaslat@durum^0,c
   960                           
   961                           ;../../../../../kaynak/gorev.c: 95:    gkb->durum = durum;
   962  001584  504C               	movf	grvGorevciyiBaslat@gkb^0,w,c
   963  001586  6ED9               	movwf	fsr2l,c
   964  001588  6ADA               	clrf	fsr2h,c
   965  00158A  0E01               	movlw	1
   966  00158C  26D9               	addwf	fsr2l,f,c
   967  00158E  C04B  FFDF         	movff	grvGorevciyiBaslat@durum,indf2
   968  001592                     l2131:
   969  001592  2A4A               	incf	grvGorevciyiBaslat@s^0,f,c
   970  001594                     l2133:
   971  001594  501A               	movf	_gorevSayimi^0,w,c
   972  001596  5C4A               	subwf	grvGorevciyiBaslat@s^0,w,c
   973  001598  B0D8               	btfsc	status,0,c
   974  00159A  D7C0               	goto	_grvGorevciyiBaslat
   975  00159C  D7C2               	goto	l2109
   976  00159E                     __end_of_grvGorevciyiBaslat:
   977                           	callstack 0
   978                           
   979 ;; *************** function _gostergeTara *****************
   980 ;; Defined at:
   981 ;;		line 154 in file "ornek4.c"
   982 ;; Parameters:    Size  Location     Type
   983 ;;  tutucu          1   24[COMRAM] PTR void 
   984 ;;		 -> gorevHavuzu(36), 
   985 ;; Auto vars:     Size  Location     Type
   986 ;;  VAZGECIS_BAY    1    0        unsigned char 
   987 ;; Return value:  Size  Location     Type
   988 ;;                  1    wreg      unsigned char 
   989 ;; Registers used:
   990 ;;		wreg, fsr2l, fsr2h, status,2, status,0, tblptrl, tblptrh, tblptru, cstack
   991 ;; Tracked objects:
   992 ;;		On entry : 0/0
   993 ;;		On exit  : 0/0
   994 ;;		Unchanged: 0/0
   995 ;; Data sizes:     COMRAM   BANK0   BANK1   BANK2   BANK3   BANK4   BANK5   BANK6   BANK7   BANK8   BANK9  BANK10  BANK1
      +1  BANK12  BANK13  BANK14  BANK15
   996 ;;      Params:         1       0       0       0       0       0       0       0       0       0       0       0       
      +0       0       0       0       0
   997 ;;      Locals:         1       0       0       0       0       0       0       0       0       0       0       0       
      +0       0       0       0       0
   998 ;;      Temps:          2       0       0       0       0       0       0       0       0       0       0       0       
      +0       0       0       0       0
   999 ;;      Totals:         4       0       0       0       0       0       0       0       0       0       0       0       
      +0       0       0       0       0
  1000 ;;Total ram usage:        4 bytes
  1001 ;; Hardware stack levels used:    1
  1002 ;; Hardware stack levels required when called:    4
  1003 ;; This function calls:
  1004 ;;		_grvTikSayiminiAl
  1005 ;; This function is called by:
  1006 ;;		_main
  1007 ;;		_grvGorevciyiBaslat
  1008 ;; This function uses a non-reentrant model
  1009 ;;
  1010                           
  1011                           	psect	text8
  1012  001014                     __ptext8:
  1013                           	callstack 0
  1014  001014                     _gostergeTara:
  1015                           	callstack 24
  1016                           
  1017                           ;incstack = 0
  1018  001014  D0E2               	goto	l2075
  1019  001016                     l1973:
  1020                           
  1021                           ;ornek4.c: 174:     LATC = 0;
  1022  001016  0E00               	movlw	0
  1023  001018  6E8B               	movwf	139,c	;volatile
  1024                           
  1025                           ;ornek4.c: 175:     ANSELC = 0;
  1026  00101A  0E00               	movlw	0
  1027  00101C  010F               	movlb	15	; () banked
  1028  00101E  6F3A               	movwf	58,b	;volatile
  1029                           
  1030                           ;ornek4.c: 176:     TRISC = 0;
  1031  001020  0E00               	movlw	0
  1032  001022  6E94               	movwf	148,c	;volatile
  1033                           
  1034                           ;ornek4.c: 179:     LATB = 0;
  1035  001024  0E00               	movlw	0
  1036  001026  6E8A               	movwf	138,c	;volatile
  1037                           
  1038                           ;ornek4.c: 180:     ANSELB = 0xF0;
  1039  001028  0EF0               	movlw	240
  1040  00102A  6F39               	movwf	57,b	;volatile
  1041                           
  1042                           ;ornek4.c: 181:     TRISB = 0xF0;
  1043  00102C  0EF0               	movlw	240
  1044  00102E  6E93               	movwf	147,c	;volatile
  1045  001030                     l1975:
  1046                           
  1047                           ;ornek4.c: 185:         LATB &= 0xF0;
  1048  001030  0EF0               	movlw	240
  1049  001032  168A               	andwf	138,f,c	;volatile
  1050                           
  1051                           ;ornek4.c: 186:         LATC = BCDdenOrtakAnoda[gosterge[0]];
  1052  001034  5009               	movf	_gosterge^0,w,c
  1053  001036  0F01               	addlw	low gostergeTara@BCDdenOrtakAnoda
  1054  001038  6E43               	movwf	??_gostergeTara^0,c
  1055  00103A  C043  FFF6         	movff	??_gostergeTara,tblptrl
  1056  00103E                     	if	1	;There is more than 1 active tblptr byte
  1057  00103E  0E10               	movlw	high __smallconst
  1058  001040  6EF7               	movwf	tblptrh,c
  1059  001042                     	endif
  1060  001042                     	if	1	;Program memory is < 0x10000, tblptru is always zero
  1061  001042  6AF8               	clrf	tblptru,c
  1062  001044                     	endif
  1063  001044                     	if	0	;tblptru may be non-zero
  1064  001044                     	endif
  1065  001044  0008               	tblrd		*
  1066  001046  CFF5 FF8B          	movff	tablat,3979	;volatile
  1067                           
  1068                           ;ornek4.c: 187:         LATBbits.LATB0 = 1;
  1069  00104A  808A               	bsf	138,0,c	;volatile
  1070                           
  1071                           ;ornek4.c: 188:         ( (sure_t*) &s5 )->kacTik = (5u / (1000u / 1000u)); ( (sure_t*) 
      +                          &s5 )->baslangic = grvTikSayiminiAl(); ( (gorev_t*) tutucu )->sn = 188; case 188:; if(!(
      +                          ( (grvTikSayiminiAl() - ( (sure_t*) &s5 )->baslangic) >= ( (sure_t*) &s5 )->kacTik ))){ 
      +                          return 0; };
  1072  00104C  0E00               	movlw	0
  1073  00104E  6E04               	movwf	(gostergeTara@s5+3)^0,c
  1074  001050  0E05               	movlw	5
  1075  001052  6E03               	movwf	(gostergeTara@s5+2)^0,c
  1076  001054  EC43  F00C         	call	_grvTikSayiminiAl	;wreg free
  1077  001058  C038  F001         	movff	?_grvTikSayiminiAl,gostergeTara@s5
  1078  00105C  C039  F002         	movff	?_grvTikSayiminiAl+1,gostergeTara@s5+1
  1079  001060  5042               	movf	gostergeTara@tutucu^0,w,c
  1080  001062  6ED9               	movwf	fsr2l,c
  1081  001064  6ADA               	clrf	fsr2h,c
  1082  001066  0E02               	movlw	2
  1083  001068  26D9               	addwf	fsr2l,f,c
  1084  00106A  0EBC               	movlw	188
  1085  00106C  6EDE               	movwf	postinc2,c
  1086  00106E  0E00               	movlw	0
  1087  001070  6EDD               	movwf	postdec2,c
  1088  001072                     l1987:
  1089  001072  EC43  F00C         	call	_grvTikSayiminiAl	;wreg free
  1090  001076  5001               	movf	gostergeTara@s5^0,w,c
  1091  001078  5E38               	subwf	?_grvTikSayiminiAl^0,f,c
  1092  00107A  5002               	movf	(gostergeTara@s5+1)^0,w,c
  1093  00107C  5A39               	subwfb	(?_grvTikSayiminiAl+1)^0,f,c
  1094  00107E  5003               	movf	(gostergeTara@s5+2)^0,w,c
  1095  001080  5C38               	subwf	?_grvTikSayiminiAl^0,w,c
  1096  001082  5004               	movf	(gostergeTara@s5+3)^0,w,c
  1097  001084  5839               	subwfb	(?_grvTikSayiminiAl+1)^0,w,c
  1098  001086  B0D8               	btfsc	status,0,c
  1099  001088  D002               	goto	l1993
  1100  00108A                     u880:
  1101  00108A  0E00               	movlw	0
  1102  00108C  0012               	return	
  1103  00108E                     l1993:
  1104                           
  1105                           ;ornek4.c: 191:         if( (gosterge[3] != 0 || gosterge[2] != 0) || gosterge[1] != 0){
  1106  00108E  500C               	movf	(_gosterge+3)^0,w,c
  1107  001090  A4D8               	btfss	status,2,c
  1108  001092  D006               	goto	u910
  1109  001094  500B               	movf	(_gosterge+2)^0,w,c
  1110  001096  A4D8               	btfss	status,2,c
  1111  001098  D003               	goto	u910
  1112  00109A  500A               	movf	(_gosterge+1)^0,w,c
  1113  00109C  B4D8               	btfsc	status,2,c
  1114  00109E  D02D               	goto	l2017
  1115  0010A0                     u910:
  1116                           
  1117                           ;ornek4.c: 192:             LATB &= 0xF0;
  1118  0010A0  0EF0               	movlw	240
  1119  0010A2  168A               	andwf	138,f,c	;volatile
  1120                           
  1121                           ;ornek4.c: 193:             LATC = BCDdenOrtakAnoda[gosterge[1]];
  1122  0010A4  500A               	movf	(_gosterge+1)^0,w,c
  1123  0010A6  0F01               	addlw	low gostergeTara@BCDdenOrtakAnoda
  1124  0010A8  6E43               	movwf	??_gostergeTara^0,c
  1125  0010AA  C043  FFF6         	movff	??_gostergeTara,tblptrl
  1126  0010AE                     	if	1	;There is more than 1 active tblptr byte
  1127  0010AE  0E10               	movlw	high __smallconst
  1128  0010B0  6EF7               	movwf	tblptrh,c
  1129  0010B2                     	endif
  1130  0010B2                     	if	1	;Program memory is < 0x10000, tblptru is always zero
  1131  0010B2  6AF8               	clrf	tblptru,c
  1132  0010B4                     	endif
  1133  0010B4                     	if	0	;tblptru may be non-zero
  1134  0010B4                     	endif
  1135  0010B4  0008               	tblrd		*
  1136  0010B6  CFF5 FF8B          	movff	tablat,3979	;volatile
  1137                           
  1138                           ;ornek4.c: 194:             LATBbits.LATB1 = 1;
  1139  0010BA  828A               	bsf	138,1,c	;volatile
  1140                           
  1141                           ;ornek4.c: 195:             ( (sure_t*) &s5 )->kacTik = (5u / (1000u / 1000u)); ( (sure_
      +                          t*) &s5 )->baslangic = grvTikSayiminiAl(); ( (gorev_t*) tutucu )->sn = 195; case 195:; i
      +                          f(!(( (grvTikSayiminiAl() - ( (sure_t*) &s5 )->baslangic) >= ( (sure_t*) &s5 )->kacTik )
      +                          )){ return 0; };
  1142  0010BC  0E00               	movlw	0
  1143  0010BE  6E04               	movwf	(gostergeTara@s5+3)^0,c
  1144  0010C0  0E05               	movlw	5
  1145  0010C2  6E03               	movwf	(gostergeTara@s5+2)^0,c
  1146  0010C4  EC43  F00C         	call	_grvTikSayiminiAl	;wreg free
  1147  0010C8  C038  F001         	movff	?_grvTikSayiminiAl,gostergeTara@s5
  1148  0010CC  C039  F002         	movff	?_grvTikSayiminiAl+1,gostergeTara@s5+1
  1149  0010D0  5042               	movf	gostergeTara@tutucu^0,w,c
  1150  0010D2  6ED9               	movwf	fsr2l,c
  1151  0010D4  6ADA               	clrf	fsr2h,c
  1152  0010D6  0E02               	movlw	2
  1153  0010D8  26D9               	addwf	fsr2l,f,c
  1154  0010DA  0EC3               	movlw	195
  1155  0010DC  6EDE               	movwf	postinc2,c
  1156  0010DE  0E00               	movlw	0
  1157  0010E0  6EDD               	movwf	postdec2,c
  1158  0010E2                     l2011:
  1159  0010E2  EC43  F00C         	call	_grvTikSayiminiAl	;wreg free
  1160  0010E6  5001               	movf	gostergeTara@s5^0,w,c
  1161  0010E8  5E38               	subwf	?_grvTikSayiminiAl^0,f,c
  1162  0010EA  5002               	movf	(gostergeTara@s5+1)^0,w,c
  1163  0010EC  5A39               	subwfb	(?_grvTikSayiminiAl+1)^0,f,c
  1164  0010EE  5003               	movf	(gostergeTara@s5+2)^0,w,c
  1165  0010F0  5C38               	subwf	?_grvTikSayiminiAl^0,w,c
  1166  0010F2  5004               	movf	(gostergeTara@s5+3)^0,w,c
  1167  0010F4  5839               	subwfb	(?_grvTikSayiminiAl+1)^0,w,c
  1168  0010F6  A0D8               	btfss	status,0,c
  1169  0010F8  D7C8               	goto	u880
  1170  0010FA                     l2017:
  1171                           
  1172                           ;ornek4.c: 199:         if(gosterge[3] != 0 || gosterge[2] != 0){
  1173  0010FA  500C               	movf	(_gosterge+3)^0,w,c
  1174  0010FC  A4D8               	btfss	status,2,c
  1175  0010FE  D003               	goto	u940
  1176  001100  500B               	movf	(_gosterge+2)^0,w,c
  1177  001102  B4D8               	btfsc	status,2,c
  1178  001104  D02D               	goto	l2039
  1179  001106                     u940:
  1180                           
  1181                           ;ornek4.c: 200:             LATB &= 0xF0;
  1182  001106  0EF0               	movlw	240
  1183  001108  168A               	andwf	138,f,c	;volatile
  1184                           
  1185                           ;ornek4.c: 201:             LATC = BCDdenOrtakAnoda[gosterge[2]];
  1186  00110A  500B               	movf	(_gosterge+2)^0,w,c
  1187  00110C  0F01               	addlw	low gostergeTara@BCDdenOrtakAnoda
  1188  00110E  6E43               	movwf	??_gostergeTara^0,c
  1189  001110  C043  FFF6         	movff	??_gostergeTara,tblptrl
  1190  001114                     	if	1	;There is more than 1 active tblptr byte
  1191  001114  0E10               	movlw	high __smallconst
  1192  001116  6EF7               	movwf	tblptrh,c
  1193  001118                     	endif
  1194  001118                     	if	1	;Program memory is < 0x10000, tblptru is always zero
  1195  001118  6AF8               	clrf	tblptru,c
  1196  00111A                     	endif
  1197  00111A                     	if	0	;tblptru may be non-zero
  1198  00111A                     	endif
  1199  00111A  0008               	tblrd		*
  1200  00111C  CFF5 FF8B          	movff	tablat,3979	;volatile
  1201                           
  1202                           ;ornek4.c: 202:             LATBbits.LATB2 = 1;
  1203  001120  848A               	bsf	138,2,c	;volatile
  1204                           
  1205                           ;ornek4.c: 203:             ( (sure_t*) &s5 )->kacTik = (5u / (1000u / 1000u)); ( (sure_
      +                          t*) &s5 )->baslangic = grvTikSayiminiAl(); ( (gorev_t*) tutucu )->sn = 203; case 203:; i
      +                          f(!(( (grvTikSayiminiAl() - ( (sure_t*) &s5 )->baslangic) >= ( (sure_t*) &s5 )->kacTik )
      +                          )){ return 0; };
  1206  001122  0E00               	movlw	0
  1207  001124  6E04               	movwf	(gostergeTara@s5+3)^0,c
  1208  001126  0E05               	movlw	5
  1209  001128  6E03               	movwf	(gostergeTara@s5+2)^0,c
  1210  00112A  EC43  F00C         	call	_grvTikSayiminiAl	;wreg free
  1211  00112E  C038  F001         	movff	?_grvTikSayiminiAl,gostergeTara@s5
  1212  001132  C039  F002         	movff	?_grvTikSayiminiAl+1,gostergeTara@s5+1
  1213  001136  5042               	movf	gostergeTara@tutucu^0,w,c
  1214  001138  6ED9               	movwf	fsr2l,c
  1215  00113A  6ADA               	clrf	fsr2h,c
  1216  00113C  0E02               	movlw	2
  1217  00113E  26D9               	addwf	fsr2l,f,c
  1218  001140  0ECB               	movlw	203
  1219  001142  6EDE               	movwf	postinc2,c
  1220  001144  0E00               	movlw	0
  1221  001146  6EDD               	movwf	postdec2,c
  1222  001148                     l2033:
  1223  001148  EC43  F00C         	call	_grvTikSayiminiAl	;wreg free
  1224  00114C  5001               	movf	gostergeTara@s5^0,w,c
  1225  00114E  5E38               	subwf	?_grvTikSayiminiAl^0,f,c
  1226  001150  5002               	movf	(gostergeTara@s5+1)^0,w,c
  1227  001152  5A39               	subwfb	(?_grvTikSayiminiAl+1)^0,f,c
  1228  001154  5003               	movf	(gostergeTara@s5+2)^0,w,c
  1229  001156  5C38               	subwf	?_grvTikSayiminiAl^0,w,c
  1230  001158  5004               	movf	(gostergeTara@s5+3)^0,w,c
  1231  00115A  5839               	subwfb	(?_grvTikSayiminiAl+1)^0,w,c
  1232  00115C  A0D8               	btfss	status,0,c
  1233  00115E  D795               	goto	u880
  1234  001160                     l2039:
  1235                           
  1236                           ;ornek4.c: 207:         if(gosterge[3] != 0){
  1237  001160  500C               	movf	(_gosterge+3)^0,w,c
  1238  001162  B4D8               	btfsc	status,2,c
  1239  001164  D765               	goto	l1975
  1240                           
  1241                           ;ornek4.c: 208:             LATB &= 0xF0;
  1242  001166  0EF0               	movlw	240
  1243  001168  168A               	andwf	138,f,c	;volatile
  1244                           
  1245                           ;ornek4.c: 209:             LATC = BCDdenOrtakAnoda[gosterge[3]];
  1246  00116A  500C               	movf	(_gosterge+3)^0,w,c
  1247  00116C  0F01               	addlw	low gostergeTara@BCDdenOrtakAnoda
  1248  00116E  6E43               	movwf	??_gostergeTara^0,c
  1249  001170  C043  FFF6         	movff	??_gostergeTara,tblptrl
  1250  001174                     	if	1	;There is more than 1 active tblptr byte
  1251  001174  0E10               	movlw	high __smallconst
  1252  001176  6EF7               	movwf	tblptrh,c
  1253  001178                     	endif
  1254  001178                     	if	1	;Program memory is < 0x10000, tblptru is always zero
  1255  001178  6AF8               	clrf	tblptru,c
  1256  00117A                     	endif
  1257  00117A                     	if	0	;tblptru may be non-zero
  1258  00117A                     	endif
  1259  00117A  0008               	tblrd		*
  1260  00117C  CFF5 FF8B          	movff	tablat,3979	;volatile
  1261                           
  1262                           ;ornek4.c: 210:             LATBbits.LATB3 = 1;
  1263  001180  868A               	bsf	138,3,c	;volatile
  1264                           
  1265                           ;ornek4.c: 211:             ( (sure_t*) &s5 )->kacTik = (5u / (1000u / 1000u)); ( (sure_
      +                          t*) &s5 )->baslangic = grvTikSayiminiAl(); ( (gorev_t*) tutucu )->sn = 211; case 211:; i
      +                          f(!(( (grvTikSayiminiAl() - ( (sure_t*) &s5 )->baslangic) >= ( (sure_t*) &s5 )->kacTik )
      +                          )){ return 0; };
  1266  001182  0E00               	movlw	0
  1267  001184  6E04               	movwf	(gostergeTara@s5+3)^0,c
  1268  001186  0E05               	movlw	5
  1269  001188  6E03               	movwf	(gostergeTara@s5+2)^0,c
  1270  00118A  EC43  F00C         	call	_grvTikSayiminiAl	;wreg free
  1271  00118E  C038  F001         	movff	?_grvTikSayiminiAl,gostergeTara@s5
  1272  001192  C039  F002         	movff	?_grvTikSayiminiAl+1,gostergeTara@s5+1
  1273  001196  5042               	movf	gostergeTara@tutucu^0,w,c
  1274  001198  6ED9               	movwf	fsr2l,c
  1275  00119A  6ADA               	clrf	fsr2h,c
  1276  00119C  0E02               	movlw	2
  1277  00119E  26D9               	addwf	fsr2l,f,c
  1278  0011A0  0ED3               	movlw	211
  1279  0011A2  6EDE               	movwf	postinc2,c
  1280  0011A4  0E00               	movlw	0
  1281  0011A6  6EDD               	movwf	postdec2,c
  1282  0011A8                     l2053:
  1283  0011A8  EC43  F00C         	call	_grvTikSayiminiAl	;wreg free
  1284  0011AC  5001               	movf	gostergeTara@s5^0,w,c
  1285  0011AE  5E38               	subwf	?_grvTikSayiminiAl^0,f,c
  1286  0011B0  5002               	movf	(gostergeTara@s5+1)^0,w,c
  1287  0011B2  5A39               	subwfb	(?_grvTikSayiminiAl+1)^0,f,c
  1288  0011B4  5003               	movf	(gostergeTara@s5+2)^0,w,c
  1289  0011B6  5C38               	subwf	?_grvTikSayiminiAl^0,w,c
  1290  0011B8  5004               	movf	(gostergeTara@s5+3)^0,w,c
  1291  0011BA  5839               	subwfb	(?_grvTikSayiminiAl+1)^0,w,c
  1292  0011BC  A0D8               	btfss	status,0,c
  1293  0011BE  D765               	goto	u880
  1294  0011C0  D737               	goto	l1975
  1295  0011C2                     l2063:
  1296  0011C2  0E02               	movlw	2
  1297  0011C4  0012               	return	
  1298  0011C6                     l2067:
  1299  0011C6  5042               	movf	gostergeTara@tutucu^0,w,c
  1300  0011C8  6ED9               	movwf	fsr2l,c
  1301  0011CA  6ADA               	clrf	fsr2h,c
  1302  0011CC  0E02               	movlw	2
  1303  0011CE  26D9               	addwf	fsr2l,f,c
  1304  0011D0  0E00               	movlw	0
  1305  0011D2  6EDE               	movwf	postinc2,c
  1306  0011D4  0E00               	movlw	0
  1307  0011D6  6EDD               	movwf	postdec2,c
  1308  0011D8  D758               	goto	u880
  1309  0011DA                     l2075:
  1310  0011DA  5042               	movf	gostergeTara@tutucu^0,w,c
  1311  0011DC  6ED9               	movwf	fsr2l,c
  1312  0011DE  6ADA               	clrf	fsr2h,c
  1313  0011E0  0E02               	movlw	2
  1314  0011E2  26D9               	addwf	fsr2l,f,c
  1315  0011E4  CFDE F043          	movff	postinc2,??_gostergeTara
  1316  0011E8  CFDD F044          	movff	postdec2,??_gostergeTara+1
  1317                           
  1318                           ; Switch on 2 bytes has been partitioned into a top level switch of size 1, and 1 sub-sw
      +                          itches
  1319                           ; Switch size 1, requested type "simple"
  1320                           ; Number of cases is 1, Range of values is 0 to 0
  1321                           ; switch strategies available:
  1322                           ; Name         Instructions Cycles
  1323                           ; simple_byte            4     3 (average)
  1324                           ;	Chosen strategy is simple_byte
  1325  0011EC  5044               	movf	(??_gostergeTara+1)^0,w,c
  1326  0011EE  0A00               	xorlw	0	; case 0
  1327  0011F0  A4D8               	btfss	status,2,c
  1328  0011F2  D7E9               	goto	l2067
  1329                           
  1330                           ; Switch size 1, requested type "simple"
  1331                           ; Number of cases is 6, Range of values is 0 to 216
  1332                           ; switch strategies available:
  1333                           ; Name         Instructions Cycles
  1334                           ; simple_byte           19    10 (average)
  1335                           ;	Chosen strategy is simple_byte
  1336  0011F4  5043               	movf	??_gostergeTara^0,w,c
  1337  0011F6  0A00               	xorlw	0	; case 0
  1338  0011F8  B4D8               	btfsc	status,2,c
  1339  0011FA  D70D               	goto	l1973
  1340  0011FC  0ABC               	xorlw	188	; case 188
  1341  0011FE  B4D8               	btfsc	status,2,c
  1342  001200  D738               	goto	l1987
  1343  001202  0A7F               	xorlw	127	; case 195
  1344  001204  B4D8               	btfsc	status,2,c
  1345  001206  D76D               	goto	l2011
  1346  001208  0A08               	xorlw	8	; case 203
  1347  00120A  B4D8               	btfsc	status,2,c
  1348  00120C  D79D               	goto	l2033
  1349  00120E  0A18               	xorlw	24	; case 211
  1350  001210  B4D8               	btfsc	status,2,c
  1351  001212  D7CA               	goto	l2053
  1352  001214  0A0B               	xorlw	11	; case 216
  1353  001216  B4D8               	btfsc	status,2,c
  1354  001218  D7D4               	goto	l2063
  1355  00121A  D7D5               	goto	l2067
  1356  00121C                     __end_of_gostergeTara:
  1357                           	callstack 0
  1358                           
  1359 ;; *************** function _gostergeDegerleriGuncelle *****************
  1360 ;; Defined at:
  1361 ;;		line 117 in file "ornek4.c"
  1362 ;; Parameters:    Size  Location     Type
  1363 ;;  tutucu          1   24[COMRAM] PTR void 
  1364 ;;		 -> gorevHavuzu(36), 
  1365 ;; Auto vars:     Size  Location     Type
  1366 ;;  b               2   28[COMRAM] unsigned int 
  1367 ;;  VAZGECIS_BAY    1    0        unsigned char 
  1368 ;; Return value:  Size  Location     Type
  1369 ;;                  1    wreg      unsigned char 
  1370 ;; Registers used:
  1371 ;;		wreg, fsr2l, fsr2h, status,2, status,0, cstack
  1372 ;; Tracked objects:
  1373 ;;		On entry : 0/0
  1374 ;;		On exit  : 0/0
  1375 ;;		Unchanged: 0/0
  1376 ;; Data sizes:     COMRAM   BANK0   BANK1   BANK2   BANK3   BANK4   BANK5   BANK6   BANK7   BANK8   BANK9  BANK10  BANK1
      +1  BANK12  BANK13  BANK14  BANK15
  1377 ;;      Params:         1       0       0       0       0       0       0       0       0       0       0       0       
      +0       0       0       0       0
  1378 ;;      Locals:         3       0       0       0       0       0       0       0       0       0       0       0       
      +0       0       0       0       0
  1379 ;;      Temps:          2       0       0       0       0       0       0       0       0       0       0       0       
      +0       0       0       0       0
  1380 ;;      Totals:         6       0       0       0       0       0       0       0       0       0       0       0       
      +0       0       0       0       0
  1381 ;;Total ram usage:        6 bytes
  1382 ;; Hardware stack levels used:    1
  1383 ;; Hardware stack levels required when called:    5
  1384 ;; This function calls:
  1385 ;;		_grvTikSayiminiAl
  1386 ;;		_uckuyrukBos
  1387 ;;		_uckuyrukKuyruktanAl
  1388 ;; This function is called by:
  1389 ;;		_main
  1390 ;;		_grvGorevciyiBaslat
  1391 ;; This function uses a non-reentrant model
  1392 ;;
  1393                           
  1394                           	psect	text9
  1395  00121C                     __ptext9:
  1396                           	callstack 0
  1397  00121C                     _gostergeDegerleriGuncelle:
  1398                           	callstack 23
  1399                           
  1400                           ;incstack = 0
  1401  00121C  D072               	goto	l1961
  1402  00121E                     l1899:
  1403                           
  1404                           ;ornek4.c: 123:         ( (gorev_t*) tutucu )->sn = 123; case 123:; if((uckuyrukBos(&kuy
      +                          ruk1))){ return 0; };
  1405  00121E  5042               	movf	gostergeDegerleriGuncelle@tutucu^0,w,c
  1406  001220  6ED9               	movwf	fsr2l,c
  1407  001222  6ADA               	clrf	fsr2h,c
  1408  001224  0E02               	movlw	2
  1409  001226  26D9               	addwf	fsr2l,f,c
  1410  001228  0E7B               	movlw	123
  1411  00122A  6EDE               	movwf	postinc2,c
  1412  00122C  0E00               	movlw	0
  1413  00122E  6EDD               	movwf	postdec2,c
  1414  001230                     l1901:
  1415  001230  0E26               	movlw	low _kuyruk1
  1416  001232  6E38               	movwf	uckuyrukBos@kuyruk^0,c
  1417  001234  EC1D  F00C         	call	_uckuyrukBos	;wreg free
  1418  001238  0900               	iorlw	0
  1419  00123A  B4D8               	btfsc	status,2,c
  1420  00123C  D002               	goto	l1907
  1421  00123E                     u830:
  1422  00123E  0E00               	movlw	0
  1423  001240  0012               	return	
  1424  001242                     l1907:
  1425                           
  1426                           ;ornek4.c: 125:         unsigned b = (unsigned) uckuyrukKuyruktanAl(&kuyruk1);
  1427  001242  0E26               	movlw	low _kuyruk1
  1428  001244  6E3B               	movwf	uckuyrukKuyruktanAl@kuyruk^0,c
  1429  001246  EC48  F00B         	call	_uckuyrukKuyruktanAl	;wreg free
  1430  00124A  6E43               	movwf	??_gostergeDegerleriGuncelle^0,c
  1431  00124C  5043               	movf	??_gostergeDegerleriGuncelle^0,w,c
  1432  00124E  6E46               	movwf	gostergeDegerleriGuncelle@b^0,c
  1433  001250  6A47               	clrf	(gostergeDegerleriGuncelle@b+1)^0,c
  1434                           
  1435                           ;ornek4.c: 127:         gosterge[3] = 0;
  1436  001252  0E00               	movlw	0
  1437  001254  6E0C               	movwf	(_gosterge+3)^0,c
  1438                           
  1439                           ;ornek4.c: 128:         while(b > 999){
  1440  001256  D005               	goto	l1915
  1441  001258                     l1911:
  1442                           
  1443                           ;ornek4.c: 129:             b -= 1000;
  1444  001258  0EE8               	movlw	232
  1445  00125A  5E46               	subwf	gostergeDegerleriGuncelle@b^0,f,c
  1446  00125C  0E03               	movlw	3
  1447  00125E  5A47               	subwfb	(gostergeDegerleriGuncelle@b+1)^0,f,c
  1448                           
  1449                           ;ornek4.c: 130:             gosterge[3]++;
  1450  001260  2A0C               	incf	(_gosterge+3)^0,f,c
  1451  001262                     l1915:
  1452                           
  1453                           ;ornek4.c: 128:         while(b > 999){
  1454  001262  0EE8               	movlw	232
  1455  001264  5C46               	subwf	gostergeDegerleriGuncelle@b^0,w,c
  1456  001266  0E03               	movlw	3
  1457  001268  5847               	subwfb	(gostergeDegerleriGuncelle@b+1)^0,w,c
  1458  00126A  B0D8               	btfsc	status,0,c
  1459  00126C  D7F5               	goto	l1911
  1460                           
  1461                           ;ornek4.c: 132:         gosterge[2] = 0;
  1462  00126E  0E00               	movlw	0
  1463  001270  6E0B               	movwf	(_gosterge+2)^0,c
  1464                           
  1465                           ;ornek4.c: 133:         while(b > 99){
  1466  001272  D005               	goto	l1923
  1467  001274                     l1919:
  1468                           
  1469                           ;ornek4.c: 134:             b -= 100;
  1470  001274  0E64               	movlw	100
  1471  001276  5E46               	subwf	gostergeDegerleriGuncelle@b^0,f,c
  1472  001278  0E00               	movlw	0
  1473  00127A  5A47               	subwfb	(gostergeDegerleriGuncelle@b+1)^0,f,c
  1474                           
  1475                           ;ornek4.c: 135:             gosterge[2]++;
  1476  00127C  2A0B               	incf	(_gosterge+2)^0,f,c
  1477  00127E                     l1923:
  1478                           
  1479                           ;ornek4.c: 133:         while(b > 99){
  1480  00127E  5047               	movf	(gostergeDegerleriGuncelle@b+1)^0,w,c
  1481  001280  E1F9               	bnz	l1919
  1482  001282  0E64               	movlw	100
  1483  001284  5C46               	subwf	gostergeDegerleriGuncelle@b^0,w,c
  1484  001286  B0D8               	btfsc	status,0,c
  1485  001288  D7F5               	goto	l1919
  1486                           
  1487                           ;ornek4.c: 137:         gosterge[1] = 0;
  1488  00128A  0E00               	movlw	0
  1489  00128C  6E0A               	movwf	(_gosterge+1)^0,c
  1490                           
  1491                           ;ornek4.c: 138:         while(b > 9){
  1492  00128E  D005               	goto	l1931
  1493  001290                     l1927:
  1494                           
  1495                           ;ornek4.c: 139:             b -= 10;
  1496  001290  0E0A               	movlw	10
  1497  001292  5E46               	subwf	gostergeDegerleriGuncelle@b^0,f,c
  1498  001294  0E00               	movlw	0
  1499  001296  5A47               	subwfb	(gostergeDegerleriGuncelle@b+1)^0,f,c
  1500                           
  1501                           ;ornek4.c: 140:             gosterge[1]++;
  1502  001298  2A0A               	incf	(_gosterge+1)^0,f,c
  1503  00129A                     l1931:
  1504                           
  1505                           ;ornek4.c: 138:         while(b > 9){
  1506  00129A  5047               	movf	(gostergeDegerleriGuncelle@b+1)^0,w,c
  1507  00129C  E1F9               	bnz	l1927
  1508  00129E  0E0A               	movlw	10
  1509  0012A0  5C46               	subwf	gostergeDegerleriGuncelle@b^0,w,c
  1510  0012A2  B0D8               	btfsc	status,0,c
  1511  0012A4  D7F5               	goto	l1927
  1512                           
  1513                           ;ornek4.c: 142:         gosterge[0] = (char)(b & 0xFF);
  1514  0012A6  C046  F009         	movff	gostergeDegerleriGuncelle@b,_gosterge
  1515                           
  1516                           ;ornek4.c: 144:         ( (sure_t*) &s2 )->kacTik = (500 / (1000u / 1000u)); ( (sure_t*)
      +                           &s2 )->baslangic = grvTikSayiminiAl(); ( (gorev_t*) tutucu )->sn = 144; case 144:; if(!
      +                          (( (grvTikSayiminiAl() - ( (sure_t*) &s2 )->baslangic) >= ( (sure_t*) &s2 )->kacTik ))){
      +                           return 0; };
  1517  0012AA  0E01               	movlw	1
  1518  0012AC  6E08               	movwf	(gostergeDegerleriGuncelle@s2+3)^0,c
  1519  0012AE  0EF4               	movlw	244
  1520  0012B0  6E07               	movwf	(gostergeDegerleriGuncelle@s2+2)^0,c
  1521  0012B2  EC43  F00C         	call	_grvTikSayiminiAl	;wreg free
  1522  0012B6  C038  F005         	movff	?_grvTikSayiminiAl,gostergeDegerleriGuncelle@s2
  1523  0012BA  C039  F006         	movff	?_grvTikSayiminiAl+1,gostergeDegerleriGuncelle@s2+1
  1524  0012BE  5042               	movf	gostergeDegerleriGuncelle@tutucu^0,w,c
  1525  0012C0  6ED9               	movwf	fsr2l,c
  1526  0012C2  6ADA               	clrf	fsr2h,c
  1527  0012C4  0E02               	movlw	2
  1528  0012C6  26D9               	addwf	fsr2l,f,c
  1529  0012C8  0E90               	movlw	144
  1530  0012CA  6EDE               	movwf	postinc2,c
  1531  0012CC  0E00               	movlw	0
  1532  0012CE  6EDD               	movwf	postdec2,c
  1533  0012D0                     l1939:
  1534  0012D0  EC43  F00C         	call	_grvTikSayiminiAl	;wreg free
  1535  0012D4  5005               	movf	gostergeDegerleriGuncelle@s2^0,w,c
  1536  0012D6  5E38               	subwf	?_grvTikSayiminiAl^0,f,c
  1537  0012D8  5006               	movf	(gostergeDegerleriGuncelle@s2+1)^0,w,c
  1538  0012DA  5A39               	subwfb	(?_grvTikSayiminiAl+1)^0,f,c
  1539  0012DC  5007               	movf	(gostergeDegerleriGuncelle@s2+2)^0,w,c
  1540  0012DE  5C38               	subwf	?_grvTikSayiminiAl^0,w,c
  1541  0012E0  5008               	movf	(gostergeDegerleriGuncelle@s2+3)^0,w,c
  1542  0012E2  5839               	subwfb	(?_grvTikSayiminiAl+1)^0,w,c
  1543  0012E4  A0D8               	btfss	status,0,c
  1544  0012E6  D7AB               	goto	u830
  1545  0012E8  D79A               	goto	l1899
  1546  0012EA                     l1949:
  1547  0012EA  0E02               	movlw	2
  1548  0012EC  0012               	return	
  1549  0012EE                     l1953:
  1550  0012EE  5042               	movf	gostergeDegerleriGuncelle@tutucu^0,w,c
  1551  0012F0  6ED9               	movwf	fsr2l,c
  1552  0012F2  6ADA               	clrf	fsr2h,c
  1553  0012F4  0E02               	movlw	2
  1554  0012F6  26D9               	addwf	fsr2l,f,c
  1555  0012F8  0E00               	movlw	0
  1556  0012FA  6EDE               	movwf	postinc2,c
  1557  0012FC  0E00               	movlw	0
  1558  0012FE  6EDD               	movwf	postdec2,c
  1559  001300  D79E               	goto	u830
  1560  001302                     l1961:
  1561  001302  5042               	movf	gostergeDegerleriGuncelle@tutucu^0,w,c
  1562  001304  6ED9               	movwf	fsr2l,c
  1563  001306  6ADA               	clrf	fsr2h,c
  1564  001308  0E02               	movlw	2
  1565  00130A  26D9               	addwf	fsr2l,f,c
  1566  00130C  CFDE F043          	movff	postinc2,??_gostergeDegerleriGuncelle
  1567  001310  CFDD F044          	movff	postdec2,??_gostergeDegerleriGuncelle+1
  1568                           
  1569                           ; Switch on 2 bytes has been partitioned into a top level switch of size 1, and 1 sub-sw
      +                          itches
  1570                           ; Switch size 1, requested type "simple"
  1571                           ; Number of cases is 1, Range of values is 0 to 0
  1572                           ; switch strategies available:
  1573                           ; Name         Instructions Cycles
  1574                           ; simple_byte            4     3 (average)
  1575                           ;	Chosen strategy is simple_byte
  1576  001314  5044               	movf	(??_gostergeDegerleriGuncelle+1)^0,w,c
  1577  001316  0A00               	xorlw	0	; case 0
  1578  001318  A4D8               	btfss	status,2,c
  1579  00131A  D7E9               	goto	l1953
  1580                           
  1581                           ; Switch size 1, requested type "simple"
  1582                           ; Number of cases is 4, Range of values is 0 to 146
  1583                           ; switch strategies available:
  1584                           ; Name         Instructions Cycles
  1585                           ; simple_byte           13     7 (average)
  1586                           ;	Chosen strategy is simple_byte
  1587  00131C  5043               	movf	??_gostergeDegerleriGuncelle^0,w,c
  1588  00131E  0A00               	xorlw	0	; case 0
  1589  001320  B4D8               	btfsc	status,2,c
  1590  001322  D77D               	goto	l1899
  1591  001324  0A7B               	xorlw	123	; case 123
  1592  001326  B4D8               	btfsc	status,2,c
  1593  001328  D783               	goto	l1901
  1594  00132A  0AEB               	xorlw	235	; case 144
  1595  00132C  B4D8               	btfsc	status,2,c
  1596  00132E  D7D0               	goto	l1939
  1597  001330  0A02               	xorlw	2	; case 146
  1598  001332  B4D8               	btfsc	status,2,c
  1599  001334  D7DA               	goto	l1949
  1600  001336  D7DB               	goto	l1953
  1601  001338                     __end_of_gostergeDegerleriGuncelle:
  1602                           	callstack 0
  1603                           
  1604 ;; *************** function _uretici1 *****************
  1605 ;; Defined at:
  1606 ;;		line 51 in file "ornek4.c"
  1607 ;; Parameters:    Size  Location     Type
  1608 ;;  tutucu          1   24[COMRAM] PTR void 
  1609 ;;		 -> gorevHavuzu(36), 
  1610 ;; Auto vars:     Size  Location     Type
  1611 ;;  VAZGECIS_BAY    1   27[COMRAM] unsigned char 
  1612 ;; Return value:  Size  Location     Type
  1613 ;;                  1    wreg      unsigned char 
  1614 ;; Registers used:
  1615 ;;		wreg, fsr1l, fsr1h, fsr2l, fsr2h, status,2, status,0, cstack
  1616 ;; Tracked objects:
  1617 ;;		On entry : 0/0
  1618 ;;		On exit  : 0/0
  1619 ;;		Unchanged: 0/0
  1620 ;; Data sizes:     COMRAM   BANK0   BANK1   BANK2   BANK3   BANK4   BANK5   BANK6   BANK7   BANK8   BANK9  BANK10  BANK1
      +1  BANK12  BANK13  BANK14  BANK15
  1621 ;;      Params:         1       0       0       0       0       0       0       0       0       0       0       0       
      +0       0       0       0       0
  1622 ;;      Locals:         1       0       0       0       0       0       0       0       0       0       0       0       
      +0       0       0       0       0
  1623 ;;      Temps:          2       0       0       0       0       0       0       0       0       0       0       0       
      +0       0       0       0       0
  1624 ;;      Totals:         4       0       0       0       0       0       0       0       0       0       0       0       
      +0       0       0       0       0
  1625 ;;Total ram usage:        4 bytes
  1626 ;; Hardware stack levels used:    1
  1627 ;; Hardware stack levels required when called:    5
  1628 ;; This function calls:
  1629 ;;		_uckuyrukDolu
  1630 ;;		_uckuyrukKuyrukla
  1631 ;; This function is called by:
  1632 ;;		_main
  1633 ;;		_grvGorevciyiBaslat
  1634 ;; This function uses a non-reentrant model
  1635 ;;
  1636                           
  1637                           	psect	text10
  1638  001338                     __ptext10:
  1639                           	callstack 0
  1640  001338                     _uretici1:
  1641                           	callstack 23
  1642                           
  1643                           ;ornek4.c: 53:  char VAZGECIS_BAYRAGI = 1; switch(( (gorev_t*) tutucu )->sn) { case 0:;
  1644                           
  1645                           ;incstack = 0
  1646  001338  0E01               	movlw	1
  1647  00133A  6E45               	movwf	uretici1@VAZGECIS_BAYRAGI^0,c
  1648  00133C  D055               	goto	l1817
  1649  00133E                     l1759:
  1650  00133E  5042               	movf	uretici1@tutucu^0,w,c
  1651  001340  6ED9               	movwf	fsr2l,c
  1652  001342  6ADA               	clrf	fsr2h,c
  1653  001344  0E02               	movlw	2
  1654  001346  26D9               	addwf	fsr2l,f,c
  1655  001348  0E3B               	movlw	59
  1656  00134A  6EDE               	movwf	postinc2,c
  1657  00134C  0E00               	movlw	0
  1658  00134E  6EDD               	movwf	postdec2,c
  1659  001350                     l1761:
  1660  001350  5018               	movf	_kuyruk1Erisim^0,w,c
  1661  001352  A4D8               	btfss	status,2,c
  1662  001354  D002               	goto	l1767
  1663  001356                     u730:
  1664  001356  0E00               	movlw	0
  1665  001358  0012               	return	
  1666  00135A                     l1767:
  1667  00135A  0618               	decf	_kuyruk1Erisim^0,f,c
  1668                           
  1669                           ;ornek4.c: 61:         ( (gorev_t*) tutucu )->sn = 61; case 61:; if((uckuyrukDolu(&kuyru
      +                          k1))){ return 0; };
  1670  00135C  5042               	movf	uretici1@tutucu^0,w,c
  1671  00135E  6ED9               	movwf	fsr2l,c
  1672  001360  6ADA               	clrf	fsr2h,c
  1673  001362  0E02               	movlw	2
  1674  001364  26D9               	addwf	fsr2l,f,c
  1675  001366  0E3D               	movlw	61
  1676  001368  6EDE               	movwf	postinc2,c
  1677  00136A  0E00               	movlw	0
  1678  00136C  6EDD               	movwf	postdec2,c
  1679  00136E                     l1771:
  1680  00136E  0E26               	movlw	low _kuyruk1
  1681  001370  6E38               	movwf	uckuyrukDolu@kuyruk^0,c
  1682  001372  ECE8  F00B         	call	_uckuyrukDolu	;wreg free
  1683  001376  0900               	iorlw	0
  1684  001378  A4D8               	btfss	status,2,c
  1685  00137A  D7ED               	goto	u730
  1686                           
  1687                           ;ornek4.c: 63:         ( (gorev_t*) tutucu )->sn = 63; case 63:; if((uckuyrukKuyrukla(&k
      +                          uyruk1, cift) == 0)){ return 0; };
  1688  00137C  5042               	movf	uretici1@tutucu^0,w,c
  1689  00137E  6ED9               	movwf	fsr2l,c
  1690  001380  6ADA               	clrf	fsr2h,c
  1691  001382  0E02               	movlw	2
  1692  001384  26D9               	addwf	fsr2l,f,c
  1693  001386  0E3F               	movlw	63
  1694  001388  6EDE               	movwf	postinc2,c
  1695  00138A  0E00               	movlw	0
  1696  00138C  6EDD               	movwf	postdec2,c
  1697  00138E                     l1779:
  1698  00138E  0E26               	movlw	low _kuyruk1
  1699  001390  6E3D               	movwf	uckuyrukKuyrukla@kuyruk^0,c
  1700  001392  C017  F03E         	movff	uretici1@cift,uckuyrukKuyrukla@veri
  1701  001396  EC0D  F00B         	call	_uckuyrukKuyrukla	;wreg free
  1702  00139A  0900               	iorlw	0
  1703  00139C  B4D8               	btfsc	status,2,c
  1704  00139E  D7DB               	goto	u730
  1705                           
  1706                           ;ornek4.c: 66:         ++(&kuyruk1Erisim)->sayim;;
  1707  0013A0  2A18               	incf	_kuyruk1Erisim^0,f,c
  1708                           
  1709                           ;ornek4.c: 68:         cift += 2;
  1710  0013A2  0E02               	movlw	2
  1711  0013A4  2617               	addwf	uretici1@cift^0,f,c
  1712                           
  1713                           ;ornek4.c: 69:         if(cift >= 254) cift = 0;
  1714  0013A6  0EFD               	movlw	253
  1715  0013A8  6417               	cpfsgt	uretici1@cift^0,c
  1716  0013AA  D002               	goto	l297
  1717  0013AC  0E00               	movlw	0
  1718  0013AE  6E17               	movwf	uretici1@cift^0,c
  1719  0013B0                     l297:
  1720                           
  1721                           ;ornek4.c: 72:         VAZGECIS_BAYRAGI = 0; ( (gorev_t*) tutucu )->sn = 72; case 72:; i
      +                          f(VAZGECIS_BAYRAGI == 0){ return 3; };
  1722  0013B0  0E00               	movlw	0
  1723  0013B2  6E45               	movwf	uretici1@VAZGECIS_BAYRAGI^0,c
  1724  0013B4  5042               	movf	uretici1@tutucu^0,w,c
  1725  0013B6  6ED9               	movwf	fsr2l,c
  1726  0013B8  6ADA               	clrf	fsr2h,c
  1727  0013BA  0E02               	movlw	2
  1728  0013BC  26D9               	addwf	fsr2l,f,c
  1729  0013BE  0E48               	movlw	72
  1730  0013C0  6EDE               	movwf	postinc2,c
  1731  0013C2  0E00               	movlw	0
  1732  0013C4  6EDD               	movwf	postdec2,c
  1733  0013C6                     l1795:
  1734  0013C6  5045               	movf	uretici1@VAZGECIS_BAYRAGI^0,w,c
  1735  0013C8  A4D8               	btfss	status,2,c
  1736  0013CA  D7B9               	goto	l1759
  1737  0013CC  0E03               	movlw	3
  1738  0013CE  0012               	return	
  1739  0013D0                     l1805:
  1740  0013D0  0E02               	movlw	2
  1741  0013D2  0012               	return	
  1742  0013D4                     l1809:
  1743  0013D4  5042               	movf	uretici1@tutucu^0,w,c
  1744  0013D6  6ED9               	movwf	fsr2l,c
  1745  0013D8  6ADA               	clrf	fsr2h,c
  1746  0013DA  0E02               	movlw	2
  1747  0013DC  26D9               	addwf	fsr2l,f,c
  1748  0013DE  0E00               	movlw	0
  1749  0013E0  6EDE               	movwf	postinc2,c
  1750  0013E2  0E00               	movlw	0
  1751  0013E4  6EDD               	movwf	postdec2,c
  1752  0013E6  D7B7               	goto	u730
  1753  0013E8                     l1817:
  1754  0013E8  5042               	movf	uretici1@tutucu^0,w,c
  1755  0013EA  6ED9               	movwf	fsr2l,c
  1756  0013EC  6ADA               	clrf	fsr2h,c
  1757  0013EE  0E02               	movlw	2
  1758  0013F0  26D9               	addwf	fsr2l,f,c
  1759  0013F2  CFDE F043          	movff	postinc2,??_uretici1
  1760  0013F6  CFDD F044          	movff	postdec2,??_uretici1+1
  1761                           
  1762                           ; Switch on 2 bytes has been partitioned into a top level switch of size 1, and 1 sub-sw
      +                          itches
  1763                           ; Switch size 1, requested type "simple"
  1764                           ; Number of cases is 1, Range of values is 0 to 0
  1765                           ; switch strategies available:
  1766                           ; Name         Instructions Cycles
  1767                           ; simple_byte            4     3 (average)
  1768                           ;	Chosen strategy is simple_byte
  1769  0013FA  5044               	movf	(??_uretici1+1)^0,w,c
  1770  0013FC  0A00               	xorlw	0	; case 0
  1771  0013FE  A4D8               	btfss	status,2,c
  1772  001400  D7E9               	goto	l1809
  1773                           
  1774                           ; Switch size 1, requested type "simple"
  1775                           ; Number of cases is 6, Range of values is 0 to 75
  1776                           ; switch strategies available:
  1777                           ; Name         Instructions Cycles
  1778                           ; simple_byte           19    10 (average)
  1779                           ;	Chosen strategy is simple_byte
  1780  001402  5043               	movf	??_uretici1^0,w,c
  1781  001404  0A00               	xorlw	0	; case 0
  1782  001406  B4D8               	btfsc	status,2,c
  1783  001408  D79A               	goto	l1759
  1784  00140A  0A3B               	xorlw	59	; case 59
  1785  00140C  B4D8               	btfsc	status,2,c
  1786  00140E  D7A0               	goto	l1761
  1787  001410  0A06               	xorlw	6	; case 61
  1788  001412  B4D8               	btfsc	status,2,c
  1789  001414  D7AC               	goto	l1771
  1790  001416  0A02               	xorlw	2	; case 63
  1791  001418  B4D8               	btfsc	status,2,c
  1792  00141A  D7B9               	goto	l1779
  1793  00141C  0A77               	xorlw	119	; case 72
  1794  00141E  B4D8               	btfsc	status,2,c
  1795  001420  D7D2               	goto	l1795
  1796  001422  0A03               	xorlw	3	; case 75
  1797  001424  B4D8               	btfsc	status,2,c
  1798  001426  D7D4               	goto	l1805
  1799  001428  D7D5               	goto	l1809
  1800  00142A                     __end_of_uretici1:
  1801                           	callstack 0
  1802                           
  1803 ;; *************** function _uretici2 *****************
  1804 ;; Defined at:
  1805 ;;		line 83 in file "ornek4.c"
  1806 ;; Parameters:    Size  Location     Type
  1807 ;;  tutucu          1   24[COMRAM] PTR void 
  1808 ;;		 -> gorevHavuzu(36), 
  1809 ;; Auto vars:     Size  Location     Type
  1810 ;;  VAZGECIS_BAY    1   27[COMRAM] unsigned char 
  1811 ;; Return value:  Size  Location     Type
  1812 ;;                  1    wreg      unsigned char 
  1813 ;; Registers used:
  1814 ;;		wreg, fsr1l, fsr1h, fsr2l, fsr2h, status,2, status,0, cstack
  1815 ;; Tracked objects:
  1816 ;;		On entry : 0/0
  1817 ;;		On exit  : 0/0
  1818 ;;		Unchanged: 0/0
  1819 ;; Data sizes:     COMRAM   BANK0   BANK1   BANK2   BANK3   BANK4   BANK5   BANK6   BANK7   BANK8   BANK9  BANK10  BANK1
      +1  BANK12  BANK13  BANK14  BANK15
  1820 ;;      Params:         1       0       0       0       0       0       0       0       0       0       0       0       
      +0       0       0       0       0
  1821 ;;      Locals:         1       0       0       0       0       0       0       0       0       0       0       0       
      +0       0       0       0       0
  1822 ;;      Temps:          2       0       0       0       0       0       0       0       0       0       0       0       
      +0       0       0       0       0
  1823 ;;      Totals:         4       0       0       0       0       0       0       0       0       0       0       0       
      +0       0       0       0       0
  1824 ;;Total ram usage:        4 bytes
  1825 ;; Hardware stack levels used:    1
  1826 ;; Hardware stack levels required when called:    5
  1827 ;; This function calls:
  1828 ;;		_uckuyrukBos
  1829 ;;		_uckuyrukKuyrukla
  1830 ;; This function is called by:
  1831 ;;		_main
  1832 ;;		_grvGorevciyiBaslat
  1833 ;; This function uses a non-reentrant model
  1834 ;;
  1835                           
  1836                           	psect	text11
  1837  00142A                     __ptext11:
  1838                           	callstack 0
  1839  00142A                     _uretici2:
  1840                           	callstack 23
  1841                           
  1842                           ;ornek4.c: 85:  char VAZGECIS_BAYRAGI = 1; switch(( (gorev_t*) tutucu )->sn) { case 0:;
  1843                           
  1844                           ;incstack = 0
  1845  00142A  0E01               	movlw	1
  1846  00142C  6E45               	movwf	uretici2@VAZGECIS_BAYRAGI^0,c
  1847  00142E  D055               	goto	l1887
  1848  001430                     l1829:
  1849  001430  5042               	movf	uretici2@tutucu^0,w,c
  1850  001432  6ED9               	movwf	fsr2l,c
  1851  001434  6ADA               	clrf	fsr2h,c
  1852  001436  0E02               	movlw	2
  1853  001438  26D9               	addwf	fsr2l,f,c
  1854  00143A  0E5B               	movlw	91
  1855  00143C  6EDE               	movwf	postinc2,c
  1856  00143E  0E00               	movlw	0
  1857  001440  6EDD               	movwf	postdec2,c
  1858  001442                     l1831:
  1859  001442  5018               	movf	_kuyruk1Erisim^0,w,c
  1860  001444  A4D8               	btfss	status,2,c
  1861  001446  D002               	goto	l1837
  1862  001448                     u780:
  1863  001448  0E00               	movlw	0
  1864  00144A  0012               	return	
  1865  00144C                     l1837:
  1866  00144C  0618               	decf	_kuyruk1Erisim^0,f,c
  1867                           
  1868                           ;ornek4.c: 93:         ( (gorev_t*) tutucu )->sn = 93; case 93:; if((uckuyrukBos(&kuyruk
      +                          1))){ return 0; };
  1869  00144E  5042               	movf	uretici2@tutucu^0,w,c
  1870  001450  6ED9               	movwf	fsr2l,c
  1871  001452  6ADA               	clrf	fsr2h,c
  1872  001454  0E02               	movlw	2
  1873  001456  26D9               	addwf	fsr2l,f,c
  1874  001458  0E5D               	movlw	93
  1875  00145A  6EDE               	movwf	postinc2,c
  1876  00145C  0E00               	movlw	0
  1877  00145E  6EDD               	movwf	postdec2,c
  1878  001460                     l1841:
  1879  001460  0E26               	movlw	low _kuyruk1
  1880  001462  6E38               	movwf	uckuyrukBos@kuyruk^0,c
  1881  001464  EC1D  F00C         	call	_uckuyrukBos	;wreg free
  1882  001468  0900               	iorlw	0
  1883  00146A  A4D8               	btfss	status,2,c
  1884  00146C  D7ED               	goto	u780
  1885                           
  1886                           ;ornek4.c: 95:         ( (gorev_t*) tutucu )->sn = 95; case 95:; if((uckuyrukKuyrukla(&k
      +                          uyruk1, tek) == 0)){ return 0; };
  1887  00146E  5042               	movf	uretici2@tutucu^0,w,c
  1888  001470  6ED9               	movwf	fsr2l,c
  1889  001472  6ADA               	clrf	fsr2h,c
  1890  001474  0E02               	movlw	2
  1891  001476  26D9               	addwf	fsr2l,f,c
  1892  001478  0E5F               	movlw	95
  1893  00147A  6EDE               	movwf	postinc2,c
  1894  00147C  0E00               	movlw	0
  1895  00147E  6EDD               	movwf	postdec2,c
  1896  001480                     l1849:
  1897  001480  0E26               	movlw	low _kuyruk1
  1898  001482  6E3D               	movwf	uckuyrukKuyrukla@kuyruk^0,c
  1899  001484  C04D  F03E         	movff	uretici2@tek,uckuyrukKuyrukla@veri
  1900  001488  EC0D  F00B         	call	_uckuyrukKuyrukla	;wreg free
  1901  00148C  0900               	iorlw	0
  1902  00148E  B4D8               	btfsc	status,2,c
  1903  001490  D7DB               	goto	u780
  1904                           
  1905                           ;ornek4.c: 98:         ++(&kuyruk1Erisim)->sayim;;
  1906  001492  2A18               	incf	_kuyruk1Erisim^0,f,c
  1907                           
  1908                           ;ornek4.c: 100:         tek += 2;
  1909  001494  0E02               	movlw	2
  1910  001496  264D               	addwf	uretici2@tek^0,f,c
  1911                           
  1912                           ;ornek4.c: 101:         if(tek >= 255) tek = 1;
  1913  001498  284D               	incf	uretici2@tek^0,w,c
  1914  00149A  A4D8               	btfss	status,2,c
  1915  00149C  D002               	goto	l320
  1916  00149E  0E01               	movlw	1
  1917  0014A0  6E4D               	movwf	uretici2@tek^0,c
  1918  0014A2                     l320:
  1919                           
  1920                           ;ornek4.c: 104:         VAZGECIS_BAYRAGI = 0; ( (gorev_t*) tutucu )->sn = 104; case 104:
      +                          ; if(VAZGECIS_BAYRAGI == 0){ return 3; };
  1921  0014A2  0E00               	movlw	0
  1922  0014A4  6E45               	movwf	uretici2@VAZGECIS_BAYRAGI^0,c
  1923  0014A6  5042               	movf	uretici2@tutucu^0,w,c
  1924  0014A8  6ED9               	movwf	fsr2l,c
  1925  0014AA  6ADA               	clrf	fsr2h,c
  1926  0014AC  0E02               	movlw	2
  1927  0014AE  26D9               	addwf	fsr2l,f,c
  1928  0014B0  0E68               	movlw	104
  1929  0014B2  6EDE               	movwf	postinc2,c
  1930  0014B4  0E00               	movlw	0
  1931  0014B6  6EDD               	movwf	postdec2,c
  1932  0014B8                     l1865:
  1933  0014B8  5045               	movf	uretici2@VAZGECIS_BAYRAGI^0,w,c
  1934  0014BA  A4D8               	btfss	status,2,c
  1935  0014BC  D7B9               	goto	l1829
  1936  0014BE  0E03               	movlw	3
  1937  0014C0  0012               	return	
  1938  0014C2                     l1875:
  1939  0014C2  0E02               	movlw	2
  1940  0014C4  0012               	return	
  1941  0014C6                     l1879:
  1942  0014C6  5042               	movf	uretici2@tutucu^0,w,c
  1943  0014C8  6ED9               	movwf	fsr2l,c
  1944  0014CA  6ADA               	clrf	fsr2h,c
  1945  0014CC  0E02               	movlw	2
  1946  0014CE  26D9               	addwf	fsr2l,f,c
  1947  0014D0  0E00               	movlw	0
  1948  0014D2  6EDE               	movwf	postinc2,c
  1949  0014D4  0E00               	movlw	0
  1950  0014D6  6EDD               	movwf	postdec2,c
  1951  0014D8  D7B7               	goto	u780
  1952  0014DA                     l1887:
  1953  0014DA  5042               	movf	uretici2@tutucu^0,w,c
  1954  0014DC  6ED9               	movwf	fsr2l,c
  1955  0014DE  6ADA               	clrf	fsr2h,c
  1956  0014E0  0E02               	movlw	2
  1957  0014E2  26D9               	addwf	fsr2l,f,c
  1958  0014E4  CFDE F043          	movff	postinc2,??_uretici2
  1959  0014E8  CFDD F044          	movff	postdec2,??_uretici2+1
  1960                           
  1961                           ; Switch on 2 bytes has been partitioned into a top level switch of size 1, and 1 sub-sw
      +                          itches
  1962                           ; Switch size 1, requested type "simple"
  1963                           ; Number of cases is 1, Range of values is 0 to 0
  1964                           ; switch strategies available:
  1965                           ; Name         Instructions Cycles
  1966                           ; simple_byte            4     3 (average)
  1967                           ;	Chosen strategy is simple_byte
  1968  0014EC  5044               	movf	(??_uretici2+1)^0,w,c
  1969  0014EE  0A00               	xorlw	0	; case 0
  1970  0014F0  A4D8               	btfss	status,2,c
  1971  0014F2  D7E9               	goto	l1879
  1972                           
  1973                           ; Switch size 1, requested type "simple"
  1974                           ; Number of cases is 6, Range of values is 0 to 107
  1975                           ; switch strategies available:
  1976                           ; Name         Instructions Cycles
  1977                           ; simple_byte           19    10 (average)
  1978                           ;	Chosen strategy is simple_byte
  1979  0014F4  5043               	movf	??_uretici2^0,w,c
  1980  0014F6  0A00               	xorlw	0	; case 0
  1981  0014F8  B4D8               	btfsc	status,2,c
  1982  0014FA  D79A               	goto	l1829
  1983  0014FC  0A5B               	xorlw	91	; case 91
  1984  0014FE  B4D8               	btfsc	status,2,c
  1985  001500  D7A0               	goto	l1831
  1986  001502  0A06               	xorlw	6	; case 93
  1987  001504  B4D8               	btfsc	status,2,c
  1988  001506  D7AC               	goto	l1841
  1989  001508  0A02               	xorlw	2	; case 95
  1990  00150A  B4D8               	btfsc	status,2,c
  1991  00150C  D7B9               	goto	l1849
  1992  00150E  0A37               	xorlw	55	; case 104
  1993  001510  B4D8               	btfsc	status,2,c
  1994  001512  D7D2               	goto	l1865
  1995  001514  0A03               	xorlw	3	; case 107
  1996  001516  B4D8               	btfsc	status,2,c
  1997  001518  D7D4               	goto	l1875
  1998  00151A  D7D5               	goto	l1879
  1999  00151C                     __end_of_uretici2:
  2000                           	callstack 0
  2001                           
  2002 ;; *************** function _uckuyrukKuyrukla *****************
  2003 ;; Defined at:
  2004 ;;		line 40 in file "../../../../../kaynak/uckuyruk.c"
  2005 ;; Parameters:    Size  Location     Type
  2006 ;;  kuyruk          1   19[COMRAM] PTR struct .
  2007 ;;		 -> kuyruk1(4), 
  2008 ;;  veri            1   20[COMRAM] const unsigned char 
  2009 ;; Auto vars:     Size  Location     Type
  2010 ;;  konum           1   23[COMRAM] unsigned char 
  2011 ;;  kap             1   22[COMRAM] const unsigned char 
  2012 ;;  sayim           1   21[COMRAM] unsigned char 
  2013 ;; Return value:  Size  Location     Type
  2014 ;;                  1    wreg      unsigned char 
  2015 ;; Registers used:
  2016 ;;		wreg, fsr1l, fsr1h, fsr2l, fsr2h, status,2, status,0, cstack
  2017 ;; Tracked objects:
  2018 ;;		On entry : 0/0
  2019 ;;		On exit  : 0/0
  2020 ;;		Unchanged: 0/0
  2021 ;; Data sizes:     COMRAM   BANK0   BANK1   BANK2   BANK3   BANK4   BANK5   BANK6   BANK7   BANK8   BANK9  BANK10  BANK1
      +1  BANK12  BANK13  BANK14  BANK15
  2022 ;;      Params:         2       0       0       0       0       0       0       0       0       0       0       0       
      +0       0       0       0       0
  2023 ;;      Locals:         3       0       0       0       0       0       0       0       0       0       0       0       
      +0       0       0       0       0
  2024 ;;      Temps:          0       0       0       0       0       0       0       0       0       0       0       0       
      +0       0       0       0       0
  2025 ;;      Totals:         5       0       0       0       0       0       0       0       0       0       0       0       
      +0       0       0       0       0
  2026 ;;Total ram usage:        5 bytes
  2027 ;; Hardware stack levels used:    1
  2028 ;; Hardware stack levels required when called:    4
  2029 ;; This function calls:
  2030 ;;		_uckuyrukDolu
  2031 ;; This function is called by:
  2032 ;;		_uretici1
  2033 ;;		_uretici2
  2034 ;; This function uses a non-reentrant model
  2035 ;;
  2036                           
  2037                           	psect	text12
  2038  00161A                     __ptext12:
  2039                           	callstack 0
  2040  00161A                     _uckuyrukKuyrukla:
  2041                           	callstack 23
  2042                           
  2043                           ;../../../../../kaynak/uckuyruk.c: 42:  if(kuyruk == ( (void*) 0 ) || uckuyrukDolu(kuyru
      +                          k)) return 0;
  2044                           
  2045                           ;incstack = 0
  2046  00161A  503D               	movf	uckuyrukKuyrukla@kuyruk^0,w,c
  2047  00161C  B4D8               	btfsc	status,2,c
  2048  00161E  D007               	goto	u680
  2049  001620  C03D  F038         	movff	uckuyrukKuyrukla@kuyruk,uckuyrukDolu@kuyruk
  2050  001624  ECE8  F00B         	call	_uckuyrukDolu	;wreg free
  2051  001628  0900               	iorlw	0
  2052  00162A  B4D8               	btfsc	status,2,c
  2053  00162C  D002               	goto	l1713
  2054  00162E                     u680:
  2055  00162E  0E00               	movlw	0
  2056  001630  0012               	return	
  2057  001632                     l1713:
  2058                           
  2059                           ;../../../../../kaynak/uckuyruk.c: 43:  unsigned char sayim = kuyruk->sayim;
  2060  001632  503D               	movf	uckuyrukKuyrukla@kuyruk^0,w,c
  2061  001634  6ED9               	movwf	fsr2l,c
  2062  001636  6ADA               	clrf	fsr2h,c
  2063  001638  0E01               	movlw	1
  2064  00163A  26D9               	addwf	fsr2l,f,c
  2065  00163C  50DF               	movf	indf2,w,c
  2066  00163E  6E3F               	movwf	uckuyrukKuyrukla@sayim^0,c
  2067                           
  2068                           ;../../../../../kaynak/uckuyruk.c: 44:  const unsigned char kap = kuyruk->kapasite;
  2069  001640  503D               	movf	uckuyrukKuyrukla@kuyruk^0,w,c
  2070  001642  6ED9               	movwf	fsr2l,c
  2071  001644  6ADA               	clrf	fsr2h,c
  2072  001646  50DF               	movf	indf2,w,c
  2073  001648  6E40               	movwf	uckuyrukKuyrukla@kap^0,c
  2074                           
  2075                           ;../../../../../kaynak/uckuyruk.c: 46:  unsigned char konum = kuyruk->bas + sayim;
  2076  00164A  503D               	movf	uckuyrukKuyrukla@kuyruk^0,w,c
  2077  00164C  6ED9               	movwf	fsr2l,c
  2078  00164E  6ADA               	clrf	fsr2h,c
  2079  001650  0E02               	movlw	2
  2080  001652  26D9               	addwf	fsr2l,f,c
  2081  001654  50DF               	movf	indf2,w,c
  2082  001656  243F               	addwf	uckuyrukKuyrukla@sayim^0,w,c
  2083  001658  6E41               	movwf	uckuyrukKuyrukla@konum^0,c
  2084                           
  2085                           ;../../../../../kaynak/uckuyruk.c: 47:  if(konum >= kap) konum -= kap;
  2086  00165A  5040               	movf	uckuyrukKuyrukla@kap^0,w,c
  2087  00165C  5C41               	subwf	uckuyrukKuyrukla@konum^0,w,c
  2088  00165E  A0D8               	btfss	status,0,c
  2089  001660  D002               	goto	l1723
  2090  001662  5040               	movf	uckuyrukKuyrukla@kap^0,w,c
  2091  001664  5E41               	subwf	uckuyrukKuyrukla@konum^0,f,c
  2092  001666                     l1723:
  2093                           
  2094                           ;../../../../../kaynak/uckuyruk.c: 49:  *( (kuyruk->veri) + konum) = veri;
  2095  001666  503D               	movf	uckuyrukKuyrukla@kuyruk^0,w,c
  2096  001668  6ED9               	movwf	fsr2l,c
  2097  00166A  6ADA               	clrf	fsr2h,c
  2098  00166C  0E03               	movlw	3
  2099  00166E  26D9               	addwf	fsr2l,f,c
  2100  001670  50DF               	movf	indf2,w,c
  2101  001672  2441               	addwf	uckuyrukKuyrukla@konum^0,w,c
  2102  001674  6ED9               	movwf	fsr2l,c
  2103  001676  6ADA               	clrf	fsr2h,c
  2104  001678  C03E  FFDF         	movff	uckuyrukKuyrukla@veri,indf2
  2105                           
  2106                           ;../../../../../kaynak/uckuyruk.c: 51:  kuyruk->sayim = ++sayim;
  2107  00167C  2A3F               	incf	uckuyrukKuyrukla@sayim^0,f,c
  2108  00167E  503D               	movf	uckuyrukKuyrukla@kuyruk^0,w,c
  2109  001680  6ED9               	movwf	fsr2l,c
  2110  001682  6ADA               	clrf	fsr2h,c
  2111  001684  0E01               	movlw	1
  2112  001686  26D9               	addwf	fsr2l,f,c
  2113  001688  C03F  FFDF         	movff	uckuyrukKuyrukla@sayim,indf2
  2114                           
  2115                           ;../../../../../kaynak/uckuyruk.c: 52:  return 1;
  2116  00168C  0E01               	movlw	1
  2117  00168E  0012               	return		;funcret
  2118  001690                     __end_of_uckuyrukKuyrukla:
  2119                           	callstack 0
  2120                           
  2121 ;; *************** function _uckuyrukDolu *****************
  2122 ;; Defined at:
  2123 ;;		line 130 in file "../../../../../kaynak/uckuyruk.c"
  2124 ;; Parameters:    Size  Location     Type
  2125 ;;  kuyruk          1   14[COMRAM] PTR struct .
  2126 ;;		 -> kuyruk1(4), 
  2127 ;; Auto vars:     Size  Location     Type
  2128 ;;		None
  2129 ;; Return value:  Size  Location     Type
  2130 ;;                  1    wreg      unsigned char 
  2131 ;; Registers used:
  2132 ;;		wreg, fsr1l, fsr1h, fsr2l, fsr2h, status,2, status,0
  2133 ;; Tracked objects:
  2134 ;;		On entry : 0/0
  2135 ;;		On exit  : 0/0
  2136 ;;		Unchanged: 0/0
  2137 ;; Data sizes:     COMRAM   BANK0   BANK1   BANK2   BANK3   BANK4   BANK5   BANK6   BANK7   BANK8   BANK9  BANK10  BANK1
      +1  BANK12  BANK13  BANK14  BANK15
  2138 ;;      Params:         1       0       0       0       0       0       0       0       0       0       0       0       
      +0       0       0       0       0
  2139 ;;      Locals:         2       0       0       0       0       0       0       0       0       0       0       0       
      +0       0       0       0       0
  2140 ;;      Temps:          2       0       0       0       0       0       0       0       0       0       0       0       
      +0       0       0       0       0
  2141 ;;      Totals:         5       0       0       0       0       0       0       0       0       0       0       0       
      +0       0       0       0       0
  2142 ;;Total ram usage:        5 bytes
  2143 ;; Hardware stack levels used:    1
  2144 ;; Hardware stack levels required when called:    3
  2145 ;; This function calls:
  2146 ;;		Nothing
  2147 ;; This function is called by:
  2148 ;;		_uckuyrukKuyrukla
  2149 ;;		_uretici1
  2150 ;; This function uses a non-reentrant model
  2151 ;;
  2152                           
  2153                           	psect	text13
  2154  0017D0                     __ptext13:
  2155                           	callstack 0
  2156  0017D0                     _uckuyrukDolu:
  2157                           	callstack 23
  2158                           
  2159                           ;../../../../../kaynak/uckuyruk.c: 131:  return kuyruk == ( (void*) 0 ) ? 1 : (kuyruk->s
      +                          ayim >= kuyruk->kapasite ? 1 : 0);
  2160                           
  2161                           ;incstack = 0
  2162  0017D0  5038               	movf	uckuyrukDolu@kuyruk^0,w,c
  2163  0017D2  B4D8               	btfsc	status,2,c
  2164  0017D4  D012               	goto	l1689
  2165  0017D6  5038               	movf	uckuyrukDolu@kuyruk^0,w,c
  2166  0017D8  6ED9               	movwf	fsr2l,c
  2167  0017DA  6ADA               	clrf	fsr2h,c
  2168  0017DC  5038               	movf	uckuyrukDolu@kuyruk^0,w,c
  2169  0017DE  6EE1               	movwf	fsr1l,c
  2170  0017E0  6AE2               	clrf	fsr1h,c
  2171  0017E2  0E01               	movlw	1
  2172  0017E4  26E1               	addwf	fsr1l,f,c
  2173  0017E6  50DE               	movf	postinc2,w,c
  2174  0017E8  5CE6               	subwf	postinc1,w,c
  2175  0017EA  A0D8               	btfss	status,0,c
  2176  0017EC  D002               	goto	u610
  2177  0017EE  0E01               	movlw	1
  2178  0017F0  D001               	goto	u620
  2179  0017F2                     u610:
  2180  0017F2  0E00               	movlw	0
  2181  0017F4                     u620:
  2182  0017F4  6E3B               	movwf	_uckuyrukDolu$591^0,c
  2183  0017F6  6A3C               	clrf	(_uckuyrukDolu$591+1)^0,c
  2184  0017F8  D004               	goto	l223
  2185  0017FA                     l1689:
  2186  0017FA  0E00               	movlw	0
  2187  0017FC  6E3C               	movwf	(_uckuyrukDolu$591+1)^0,c
  2188  0017FE  0E01               	movlw	1
  2189  001800  6E3B               	movwf	_uckuyrukDolu$591^0,c
  2190  001802                     l223:
  2191  001802  503B               	movf	_uckuyrukDolu$591^0,w,c
  2192  001804  0012               	return		;funcret
  2193  001806                     __end_of_uckuyrukDolu:
  2194                           	callstack 0
  2195                           
  2196 ;; *************** function _uckuyrukKuyruktanAl *****************
  2197 ;; Defined at:
  2198 ;;		line 87 in file "../../../../../kaynak/uckuyruk.c"
  2199 ;; Parameters:    Size  Location     Type
  2200 ;;  kuyruk          1   17[COMRAM] PTR struct .
  2201 ;;		 -> kuyruk1(4), 
  2202 ;; Auto vars:     Size  Location     Type
  2203 ;;  bas             1   20[COMRAM] unsigned char 
  2204 ;;  b               1   19[COMRAM] unsigned char 
  2205 ;; Return value:  Size  Location     Type
  2206 ;;                  1    wreg      unsigned char 
  2207 ;; Registers used:
  2208 ;;		wreg, fsr2l, fsr2h, status,2, status,0, cstack
  2209 ;; Tracked objects:
  2210 ;;		On entry : 0/0
  2211 ;;		On exit  : 0/0
  2212 ;;		Unchanged: 0/0
  2213 ;; Data sizes:     COMRAM   BANK0   BANK1   BANK2   BANK3   BANK4   BANK5   BANK6   BANK7   BANK8   BANK9  BANK10  BANK1
      +1  BANK12  BANK13  BANK14  BANK15
  2214 ;;      Params:         1       0       0       0       0       0       0       0       0       0       0       0       
      +0       0       0       0       0
  2215 ;;      Locals:         2       0       0       0       0       0       0       0       0       0       0       0       
      +0       0       0       0       0
  2216 ;;      Temps:          1       0       0       0       0       0       0       0       0       0       0       0       
      +0       0       0       0       0
  2217 ;;      Totals:         4       0       0       0       0       0       0       0       0       0       0       0       
      +0       0       0       0       0
  2218 ;;Total ram usage:        4 bytes
  2219 ;; Hardware stack levels used:    1
  2220 ;; Hardware stack levels required when called:    4
  2221 ;; This function calls:
  2222 ;;		_uckuyrukBos
  2223 ;; This function is called by:
  2224 ;;		_gostergeDegerleriGuncelle
  2225 ;; This function uses a non-reentrant model
  2226 ;;
  2227                           
  2228                           	psect	text14
  2229  001690                     __ptext14:
  2230                           	callstack 0
  2231  001690                     _uckuyrukKuyruktanAl:
  2232                           	callstack 23
  2233                           
  2234                           ;../../../../../kaynak/uckuyruk.c: 89:  if(kuyruk == ( (void*) 0 ) || uckuyrukBos(kuyruk
      +                          )) return 0;
  2235                           
  2236                           ;incstack = 0
  2237  001690  503B               	movf	uckuyrukKuyruktanAl@kuyruk^0,w,c
  2238  001692  B4D8               	btfsc	status,2,c
  2239  001694  D007               	goto	u710
  2240  001696  C03B  F038         	movff	uckuyrukKuyruktanAl@kuyruk,uckuyrukBos@kuyruk
  2241  00169A  EC1D  F00C         	call	_uckuyrukBos	;wreg free
  2242  00169E  0900               	iorlw	0
  2243  0016A0  B4D8               	btfsc	status,2,c
  2244  0016A2  D002               	goto	l1739
  2245  0016A4                     u710:
  2246  0016A4  0E00               	movlw	0
  2247  0016A6  0012               	return	
  2248  0016A8                     l1739:
  2249                           
  2250                           ;../../../../../kaynak/uckuyruk.c: 90:  unsigned char bas = kuyruk->bas;
  2251  0016A8  503B               	movf	uckuyrukKuyruktanAl@kuyruk^0,w,c
  2252  0016AA  6ED9               	movwf	fsr2l,c
  2253  0016AC  6ADA               	clrf	fsr2h,c
  2254  0016AE  0E02               	movlw	2
  2255  0016B0  26D9               	addwf	fsr2l,f,c
  2256  0016B2  50DF               	movf	indf2,w,c
  2257  0016B4  6E3E               	movwf	uckuyrukKuyruktanAl@bas^0,c
  2258                           
  2259                           ;../../../../../kaynak/uckuyruk.c: 91:  unsigned char b;;../../../../../kaynak/uckuyruk.
      +                          c: 93:  b = *( (kuyruk->veri) + bas);
  2260  0016B6  503B               	movf	uckuyrukKuyruktanAl@kuyruk^0,w,c
  2261  0016B8  6ED9               	movwf	fsr2l,c
  2262  0016BA  6ADA               	clrf	fsr2h,c
  2263  0016BC  0E03               	movlw	3
  2264  0016BE  26D9               	addwf	fsr2l,f,c
  2265  0016C0  50DF               	movf	indf2,w,c
  2266  0016C2  243E               	addwf	uckuyrukKuyruktanAl@bas^0,w,c
  2267  0016C4  6ED9               	movwf	fsr2l,c
  2268  0016C6  6ADA               	clrf	fsr2h,c
  2269  0016C8  50DF               	movf	indf2,w,c
  2270  0016CA  6E3D               	movwf	uckuyrukKuyruktanAl@b^0,c
  2271                           
  2272                           ;../../../../../kaynak/uckuyruk.c: 94:  bas++;
  2273  0016CC  2A3E               	incf	uckuyrukKuyruktanAl@bas^0,f,c
  2274                           
  2275                           ;../../../../../kaynak/uckuyruk.c: 95:  kuyruk->sayim--;
  2276  0016CE  503B               	movf	uckuyrukKuyruktanAl@kuyruk^0,w,c
  2277  0016D0  6ED9               	movwf	fsr2l,c
  2278  0016D2  6ADA               	clrf	fsr2h,c
  2279  0016D4  0E01               	movlw	1
  2280  0016D6  26D9               	addwf	fsr2l,f,c
  2281  0016D8  06DF               	decf	indf2,f,c
  2282                           
  2283                           ;../../../../../kaynak/uckuyruk.c: 96:  if(bas >= kuyruk->kapasite) bas = 0;
  2284  0016DA  503B               	movf	uckuyrukKuyruktanAl@kuyruk^0,w,c
  2285  0016DC  6ED9               	movwf	fsr2l,c
  2286  0016DE  6ADA               	clrf	fsr2h,c
  2287  0016E0  50DE               	movf	postinc2,w,c
  2288  0016E2  5C3E               	subwf	uckuyrukKuyruktanAl@bas^0,w,c
  2289  0016E4  A0D8               	btfss	status,0,c
  2290  0016E6  D002               	goto	l1749
  2291  0016E8  0E00               	movlw	0
  2292  0016EA  6E3E               	movwf	uckuyrukKuyruktanAl@bas^0,c
  2293  0016EC                     l1749:
  2294                           
  2295                           ;../../../../../kaynak/uckuyruk.c: 97:  kuyruk->bas = bas;
  2296  0016EC  503B               	movf	uckuyrukKuyruktanAl@kuyruk^0,w,c
  2297  0016EE  6ED9               	movwf	fsr2l,c
  2298  0016F0  6ADA               	clrf	fsr2h,c
  2299  0016F2  0E02               	movlw	2
  2300  0016F4  26D9               	addwf	fsr2l,f,c
  2301  0016F6  C03E  FFDF         	movff	uckuyrukKuyruktanAl@bas,indf2
  2302                           
  2303                           ;../../../../../kaynak/uckuyruk.c: 99:  return b;
  2304  0016FA  503D               	movf	uckuyrukKuyruktanAl@b^0,w,c
  2305  0016FC  0012               	return		;funcret
  2306  0016FE                     __end_of_uckuyrukKuyruktanAl:
  2307                           	callstack 0
  2308                           
  2309 ;; *************** function _uckuyrukBos *****************
  2310 ;; Defined at:
  2311 ;;		line 134 in file "../../../../../kaynak/uckuyruk.c"
  2312 ;; Parameters:    Size  Location     Type
  2313 ;;  kuyruk          1   14[COMRAM] PTR struct .
  2314 ;;		 -> kuyruk1(4), 
  2315 ;; Auto vars:     Size  Location     Type
  2316 ;;		None
  2317 ;; Return value:  Size  Location     Type
  2318 ;;                  1    wreg      unsigned char 
  2319 ;; Registers used:
  2320 ;;		wreg, fsr2l, fsr2h, status,2, status,0
  2321 ;; Tracked objects:
  2322 ;;		On entry : 0/0
  2323 ;;		On exit  : 0/0
  2324 ;;		Unchanged: 0/0
  2325 ;; Data sizes:     COMRAM   BANK0   BANK1   BANK2   BANK3   BANK4   BANK5   BANK6   BANK7   BANK8   BANK9  BANK10  BANK1
      +1  BANK12  BANK13  BANK14  BANK15
  2326 ;;      Params:         1       0       0       0       0       0       0       0       0       0       0       0       
      +0       0       0       0       0
  2327 ;;      Locals:         2       0       0       0       0       0       0       0       0       0       0       0       
      +0       0       0       0       0
  2328 ;;      Temps:          0       0       0       0       0       0       0       0       0       0       0       0       
      +0       0       0       0       0
  2329 ;;      Totals:         3       0       0       0       0       0       0       0       0       0       0       0       
      +0       0       0       0       0
  2330 ;;Total ram usage:        3 bytes
  2331 ;; Hardware stack levels used:    1
  2332 ;; Hardware stack levels required when called:    3
  2333 ;; This function calls:
  2334 ;;		Nothing
  2335 ;; This function is called by:
  2336 ;;		_uckuyrukKuyruktanAl
  2337 ;;		_uretici2
  2338 ;;		_gostergeDegerleriGuncelle
  2339 ;; This function uses a non-reentrant model
  2340 ;;
  2341                           
  2342                           	psect	text15
  2343  00183A                     __ptext15:
  2344                           	callstack 0
  2345  00183A                     _uckuyrukBos:
  2346                           	callstack 24
  2347                           
  2348                           ;../../../../../kaynak/uckuyruk.c: 135:  return kuyruk == ( (void*) 0 ) ? 1 : kuyruk->sa
      +                          yim == 0;
  2349                           
  2350                           ;incstack = 0
  2351  00183A  5038               	movf	uckuyrukBos@kuyruk^0,w,c
  2352  00183C  B4D8               	btfsc	status,2,c
  2353  00183E  D00E               	goto	l1697
  2354  001840  5038               	movf	uckuyrukBos@kuyruk^0,w,c
  2355  001842  6ED9               	movwf	fsr2l,c
  2356  001844  6ADA               	clrf	fsr2h,c
  2357  001846  0E01               	movlw	1
  2358  001848  26D9               	addwf	fsr2l,f,c
  2359  00184A  50DF               	movf	indf2,w,c
  2360  00184C  A4D8               	btfss	status,2,c
  2361  00184E  D002               	goto	u640
  2362  001850  0E01               	movlw	1
  2363  001852  D001               	goto	u650
  2364  001854                     u640:
  2365  001854  0E00               	movlw	0
  2366  001856                     u650:
  2367  001856  6E39               	movwf	_uckuyrukBos$598^0,c
  2368  001858  6A3A               	clrf	(_uckuyrukBos$598+1)^0,c
  2369  00185A  D004               	goto	l230
  2370  00185C                     l1697:
  2371  00185C  0E00               	movlw	0
  2372  00185E  6E3A               	movwf	(_uckuyrukBos$598+1)^0,c
  2373  001860  0E01               	movlw	1
  2374  001862  6E39               	movwf	_uckuyrukBos$598^0,c
  2375  001864                     l230:
  2376  001864  5039               	movf	_uckuyrukBos$598^0,w,c
  2377  001866  0012               	return		;funcret
  2378  001868                     __end_of_uckuyrukBos:
  2379                           	callstack 0
  2380                           
  2381 ;; *************** function _grvTikSayiminiAl *****************
  2382 ;; Defined at:
  2383 ;;		line 109 in file "../../../../../kaynak/gorev.c"
  2384 ;; Parameters:    Size  Location     Type
  2385 ;;		None
  2386 ;; Auto vars:     Size  Location     Type
  2387 ;;  sayim           2   16[COMRAM] unsigned int 
  2388 ;; Return value:  Size  Location     Type
  2389 ;;                  2   14[COMRAM] unsigned int 
  2390 ;; Registers used:
  2391 ;;		None
  2392 ;; Tracked objects:
  2393 ;;		On entry : 0/F
  2394 ;;		On exit  : 0/0
  2395 ;;		Unchanged: 0/0
  2396 ;; Data sizes:     COMRAM   BANK0   BANK1   BANK2   BANK3   BANK4   BANK5   BANK6   BANK7   BANK8   BANK9  BANK10  BANK1
      +1  BANK12  BANK13  BANK14  BANK15
  2397 ;;      Params:         2       0       0       0       0       0       0       0       0       0       0       0       
      +0       0       0       0       0
  2398 ;;      Locals:         2       0       0       0       0       0       0       0       0       0       0       0       
      +0       0       0       0       0
  2399 ;;      Temps:          0       0       0       0       0       0       0       0       0       0       0       0       
      +0       0       0       0       0
  2400 ;;      Totals:         4       0       0       0       0       0       0       0       0       0       0       0       
      +0       0       0       0       0
  2401 ;;Total ram usage:        4 bytes
  2402 ;; Hardware stack levels used:    1
  2403 ;; Hardware stack levels required when called:    3
  2404 ;; This function calls:
  2405 ;;		Nothing
  2406 ;; This function is called by:
  2407 ;;		_gostergeDegerleriGuncelle
  2408 ;;		_gostergeTara
  2409 ;; This function uses a non-reentrant model
  2410 ;;
  2411                           
  2412                           	psect	text16
  2413  001886                     __ptext16:
  2414                           	callstack 0
  2415  001886                     _grvTikSayiminiAl:
  2416                           	callstack 24
  2417                           
  2418                           ;../../../../../kaynak/gorev.c: 110:  unsigned int sayim;;../../../../../kaynak/gorev.c:
      +                           112:  intconYedek = INTCON; INTCONbits.GIEH = 0;;
  2419                           
  2420                           ;incstack = 0
  2421  001886  CFF2 F01B          	movff	4082,_intconYedek@portmacro$F434	;volatile
  2422  00188A  9EF2               	bcf	242,7,c	;volatile
  2423                           
  2424                           ;../../../../../kaynak/gorev.c: 113:  sayim = tikSayimi;
  2425  00188C  C00D  F03A         	movff	_tikSayimi,grvTikSayiminiAl@sayim
  2426  001890  C00E  F03B         	movff	_tikSayimi+1,grvTikSayiminiAl@sayim+1
  2427                           
  2428                           ;../../../../../kaynak/gorev.c: 115:  if(intconYedek & 0x80){ INTCONbits.GIEH = 1;; };
  2429  001894  BE1B               	btfsc	_intconYedek@portmacro$F434^0,7,c
  2430  001896  8EF2               	bsf	242,7,c	;volatile
  2431                           
  2432                           ;../../../../../kaynak/gorev.c: 116:  return sayim;
  2433  001898  C03A  F038         	movff	grvTikSayiminiAl@sayim,?_grvTikSayiminiAl
  2434  00189C  C03B  F039         	movff	grvTikSayiminiAl@sayim+1,?_grvTikSayiminiAl+1
  2435  0018A0  0012               	return		;funcret
  2436  0018A2                     __end_of_grvTikSayiminiAl:
  2437                           	callstack 0
  2438                           
  2439 ;; *************** function _grvOlustur *****************
  2440 ;; Defined at:
  2441 ;;		line 45 in file "../../../../../kaynak/gorev.c"
  2442 ;; Parameters:    Size  Location     Type
  2443 ;;  is              2   14[COMRAM] PTR FTN(PTR void ,)unsig
  2444 ;;		 -> gostergeTara(1), gostergeDegerleriGuncelle(1), uretici2(1), uretici1(1), 
  2445 ;; Auto vars:     Size  Location     Type
  2446 ;;  s               1   18[COMRAM] unsigned char 
  2447 ;;  gkb             1   19[COMRAM] PTR struct .
  2448 ;;		 -> gorevHavuzu(36), 
  2449 ;; Return value:  Size  Location     Type
  2450 ;;                  2   14[COMRAM] PTR struct .
  2451 ;; Registers used:
  2452 ;;		wreg, fsr2l, fsr2h, status,2, status,0, prodl, prodh
  2453 ;; Tracked objects:
  2454 ;;		On entry : 0/0
  2455 ;;		On exit  : 0/0
  2456 ;;		Unchanged: 0/0
  2457 ;; Data sizes:     COMRAM   BANK0   BANK1   BANK2   BANK3   BANK4   BANK5   BANK6   BANK7   BANK8   BANK9  BANK10  BANK1
      +1  BANK12  BANK13  BANK14  BANK15
  2458 ;;      Params:         2       0       0       0       0       0       0       0       0       0       0       0       
      +0       0       0       0       0
  2459 ;;      Locals:         2       0       0       0       0       0       0       0       0       0       0       0       
      +0       0       0       0       0
  2460 ;;      Temps:          2       0       0       0       0       0       0       0       0       0       0       0       
      +0       0       0       0       0
  2461 ;;      Totals:         6       0       0       0       0       0       0       0       0       0       0       0       
      +0       0       0       0       0
  2462 ;;Total ram usage:        6 bytes
  2463 ;; Hardware stack levels used:    1
  2464 ;; Hardware stack levels required when called:    3
  2465 ;; This function calls:
  2466 ;;		Nothing
  2467 ;; This function is called by:
  2468 ;;		_main
  2469 ;; This function uses a non-reentrant model
  2470 ;;
  2471                           
  2472                           	psect	text17
  2473  00159E                     __ptext17:
  2474                           	callstack 0
  2475  00159E                     _grvOlustur:
  2476                           	callstack 27
  2477                           
  2478                           ;../../../../../kaynak/gorev.c: 46:  pgkb gkb;;../../../../../kaynak/gorev.c: 48:  if(go
      +                          revSayimi >= 6) return ((void*)0);
  2479                           
  2480                           ;incstack = 0
  2481  00159E  0E05               	movlw	5
  2482  0015A0  641A               	cpfsgt	_gorevSayimi^0,c
  2483  0015A2  D001               	goto	l2147
  2484  0015A4  0012               	return	
  2485  0015A6                     l2147:
  2486                           
  2487                           ;../../../../../kaynak/gorev.c: 50:  for(char s = 0; s < gorevSayimi; s++) {
  2488  0015A6  0E00               	movlw	0
  2489  0015A8  6E3C               	movwf	grvOlustur@s^0,c
  2490  0015AA  D00E               	goto	l2155
  2491  0015AC                     l2149:
  2492                           
  2493                           ;../../../../../kaynak/gorev.c: 51:   if(is == gorevHavuzu[s].is) {
  2494  0015AC  503C               	movf	grvOlustur@s^0,w,c
  2495  0015AE  0D06               	mullw	6
  2496  0015B0  50F3               	movf	243,w,c
  2497  0015B2  0F64               	addlw	low (_gorevHavuzu+4)
  2498  0015B4  6ED9               	movwf	fsr2l,c
  2499  0015B6  6ADA               	clrf	fsr2h,c
  2500  0015B8  50DE               	movf	postinc2,w,c
  2501  0015BA  1838               	xorwf	grvOlustur@is^0,w,c
  2502  0015BC  E104               	bnz	l2153
  2503  0015BE  50DE               	movf	postinc2,w,c
  2504  0015C0  1839               	xorwf	(grvOlustur@is+1)^0,w,c
  2505  0015C2  B4D8               	btfsc	status,2,c
  2506  0015C4  0012               	return	
  2507  0015C6                     l2153:
  2508                           
  2509                           ;../../../../../kaynak/gorev.c: 55:  }
  2510  0015C6  2A3C               	incf	grvOlustur@s^0,f,c
  2511  0015C8                     l2155:
  2512  0015C8  501A               	movf	_gorevSayimi^0,w,c
  2513  0015CA  5C3C               	subwf	grvOlustur@s^0,w,c
  2514  0015CC  A0D8               	btfss	status,0,c
  2515  0015CE  D7EE               	goto	l2149
  2516                           
  2517                           ;../../../../../kaynak/gorev.c: 57:  gkb = &gorevHavuzu[gorevSayimi];
  2518  0015D0  501A               	movf	_gorevSayimi^0,w,c
  2519  0015D2  0D06               	mullw	6
  2520  0015D4  50F3               	movf	243,w,c
  2521  0015D6  0F60               	addlw	low _gorevHavuzu
  2522  0015D8  6E3D               	movwf	grvOlustur@gkb^0,c
  2523                           
  2524                           ;../../../../../kaynak/gorev.c: 58:  gkb->kimlik = gorevSayimi;
  2525  0015DA  503D               	movf	grvOlustur@gkb^0,w,c
  2526  0015DC  6ED9               	movwf	fsr2l,c
  2527  0015DE  6ADA               	clrf	fsr2h,c
  2528  0015E0  C01A  FFDF         	movff	_gorevSayimi,indf2
  2529                           
  2530                           ;../../../../../kaynak/gorev.c: 59:  gkb->durum = 0;
  2531  0015E4  503D               	movf	grvOlustur@gkb^0,w,c
  2532  0015E6  6ED9               	movwf	fsr2l,c
  2533  0015E8  6ADA               	clrf	fsr2h,c
  2534  0015EA  0E01               	movlw	1
  2535  0015EC  26D9               	addwf	fsr2l,f,c
  2536  0015EE  0E00               	movlw	0
  2537  0015F0  6EDF               	movwf	indf2,c
  2538                           
  2539                           ;../../../../../kaynak/gorev.c: 60:  gkb->is = is;
  2540  0015F2  503D               	movf	grvOlustur@gkb^0,w,c
  2541  0015F4  6ED9               	movwf	fsr2l,c
  2542  0015F6  6ADA               	clrf	fsr2h,c
  2543  0015F8  0E04               	movlw	4
  2544  0015FA  26D9               	addwf	fsr2l,f,c
  2545  0015FC  C038  FFDE         	movff	grvOlustur@is,postinc2
  2546  001600  C039  FFDD         	movff	grvOlustur@is+1,postdec2
  2547                           
  2548                           ;../../../../../kaynak/gorev.c: 61:  ( (gorev_t*) gkb )->sn = 0;
  2549  001604  503D               	movf	grvOlustur@gkb^0,w,c
  2550  001606  6ED9               	movwf	fsr2l,c
  2551  001608  6ADA               	clrf	fsr2h,c
  2552  00160A  0E02               	movlw	2
  2553  00160C  26D9               	addwf	fsr2l,f,c
  2554  00160E  0E00               	movlw	0
  2555  001610  6EDE               	movwf	postinc2,c
  2556  001612  0E00               	movlw	0
  2557  001614  6EDD               	movwf	postdec2,c
  2558                           
  2559                           ;../../../../../kaynak/gorev.c: 62:  gorevSayimi++;
  2560  001616  2A1A               	incf	_gorevSayimi^0,f,c
  2561  001618  0012               	return		;funcret
  2562  00161A                     __end_of_grvOlustur:
  2563                           	callstack 0
  2564                           
  2565 ;; *************** function _interruptYonetici *****************
  2566 ;; Defined at:
  2567 ;;		line 50 in file "interrupt.c"
  2568 ;; Parameters:    Size  Location     Type
  2569 ;;		None
  2570 ;; Auto vars:     Size  Location     Type
  2571 ;;		None
  2572 ;; Return value:  Size  Location     Type
  2573 ;;                  1    wreg      void 
  2574 ;; Registers used:
  2575 ;;		wreg, fsr0l, fsr0h, fsr1l, fsr1h, fsr1l, fsr1h, fsr2l, fsr2h, status,2, status,0, pclath, btemp, btemp+1, btemp+2, b
      +temp+3, btemp+4, btemp+5, btemp+6, btemp+7, btemp+8, btemp+9, btemp+10, btemp+11, btemp+12, btemp+13, btemp+14, btemp+15
      +, btemp+16, btemp+17, btemp+18, btemp+19, btemp+20, btemp+21, btemp+22, btemp+23, btemp+24, btemp+25, btemp+26, btemp+27
      +, btemp+28, btemp+29, btemp+30, btemp+31, tosl, structret, tblptrl, tblptrh, tblptru, prodl, prodh, bsr, cstack
  2576 ;; Tracked objects:
  2577 ;;		On entry : 0/0
  2578 ;;		On exit  : 0/0
  2579 ;;		Unchanged: 0/0
  2580 ;; Data sizes:     COMRAM   BANK0   BANK1   BANK2   BANK3   BANK4   BANK5   BANK6   BANK7   BANK8   BANK9  BANK10  BANK1
      +1  BANK12  BANK13  BANK14  BANK15
  2581 ;;      Params:         0       0       0       0       0       0       0       0       0       0       0       0       
      +0       0       0       0       0
  2582 ;;      Locals:         0       0       0       0       0       0       0       0       0       0       0       0       
      +0       0       0       0       0
  2583 ;;      Temps:         14       0       0       0       0       0       0       0       0       0       0       0       
      +0       0       0       0       0
  2584 ;;      Totals:        14       0       0       0       0       0       0       0       0       0       0       0       
      +0       0       0       0       0
  2585 ;;Total ram usage:       14 bytes
  2586 ;; Hardware stack levels used:    1
  2587 ;; Hardware stack levels required when called:    2
  2588 ;; This function calls:
  2589 ;;		Absolute function
  2590 ;;		_sisTimerKesmeIsleyici
  2591 ;; This function is called by:
  2592 ;;		Interrupt level 2
  2593 ;; This function uses a non-reentrant model
  2594 ;;
  2595                           
  2596                           	psect	intcode
  2597  000008                     __pintcode:
  2598                           	callstack 0
  2599  000008                     _interruptYonetici:
  2600                           	callstack 23
  2601                           
  2602                           ;incstack = 0
  2603  000008  824E               	bsf	btemp,1,c	;set compiler interrupt flag (level 2)
  2604  00000A  CFFA F02A          	movff	pclath,??_interruptYonetici
  2605  00000E  CFFB F02B          	movff	pclatu,??_interruptYonetici+1
  2606  000012  CFE9 F02C          	movff	fsr0l,??_interruptYonetici+2
  2607  000016  CFEA F02D          	movff	fsr0h,??_interruptYonetici+3
  2608  00001A  CFE1 F02E          	movff	fsr1l,??_interruptYonetici+4
  2609  00001E  CFE2 F02F          	movff	fsr1h,??_interruptYonetici+5
  2610  000022  CFD9 F030          	movff	fsr2l,??_interruptYonetici+6
  2611  000026  CFDA F031          	movff	fsr2h,??_interruptYonetici+7
  2612  00002A  CFF3 F032          	movff	prodl,??_interruptYonetici+8
  2613  00002E  CFF4 F033          	movff	prodh,??_interruptYonetici+9
  2614  000032  CFF6 F034          	movff	tblptrl,??_interruptYonetici+10
  2615  000036  CFF7 F035          	movff	tblptrh,??_interruptYonetici+11
  2616  00003A  CFF8 F036          	movff	tblptru,??_interruptYonetici+12
  2617  00003E  CFF5 F037          	movff	tablat,??_interruptYonetici+13
  2618                           
  2619                           ;interrupt.c: 52:     if(INTCONbits.TMR0IF == 1 && INTCONbits.TMR0IF == 1){
  2620  000042  B4F2               	btfsc	242,2,c	;volatile
  2621  000044  A4F2               	btfss	242,2,c	;volatile
  2622  000046  D00C               	goto	i2l39
  2623                           
  2624                           ;interrupt.c: 53:         TMR0IF = 0;
  2625  000048  94F2               	bcf	4082,2,c	;volatile
  2626                           
  2627                           ;interrupt.c: 54:         (*timer0KesmeIsleyici)();
  2628  00004A  D801               	call	i2u54_48
  2629  00004C  D014               	goto	i2l46
  2630  00004E                     i2u54_48:
  2631  00004E  0005               	push	
  2632  000050  6EFA               	movwf	pclath,c
  2633  000052  5015               	movf	_timer0KesmeIsleyici^0,w,c
  2634  000054  6EFD               	movwf	tosl,c
  2635  000056  5016               	movf	(_timer0KesmeIsleyici+1)^0,w,c
  2636  000058  6EFE               	movwf	tosh,c
  2637  00005A  6AFF               	clrf	tosu,c
  2638  00005C  50FA               	movf	pclath,w,c
  2639  00005E  0012               	return		;indir
  2640  000060                     i2l39:
  2641  000060  ACF2               	btfss	242,6,c	;volatile
  2642  000062  D009               	goto	i2l46
  2643                           
  2644                           ;interrupt.c: 57:         if(PIE1bits.RCIE == 1 && PIR1bits.RCIF == 1){
  2645  000064  BA9D               	btfsc	157,5,c	;volatile
  2646  000066  AA9E               	btfss	158,5,c	;volatile
  2647  000068  D002               	goto	i2l42
  2648                           
  2649                           ;interrupt.c: 58:             RCIF = 0;
  2650  00006A  9A9E               	bcf	3998,5,c	;volatile
  2651                           
  2652                           ;interrupt.c: 59:         }
  2653  00006C  D004               	goto	i2l46
  2654  00006E                     i2l42:
  2655  00006E  B89D               	btfsc	3997,4,c	;volatile
  2656  000070  A89E               	btfss	3998,4,c	;volatile
  2657  000072  D001               	goto	i2l46
  2658                           
  2659                           ;interrupt.c: 61:             TXIF = 0;
  2660  000074  989E               	bcf	3998,4,c	;volatile
  2661  000076                     i2l46:
  2662  000076  C037  FFF5         	movff	??_interruptYonetici+13,tablat
  2663  00007A  C036  FFF8         	movff	??_interruptYonetici+12,tblptru
  2664  00007E  C035  FFF7         	movff	??_interruptYonetici+11,tblptrh
  2665  000082  C034  FFF6         	movff	??_interruptYonetici+10,tblptrl
  2666  000086  C033  FFF4         	movff	??_interruptYonetici+9,prodh
  2667  00008A  C032  FFF3         	movff	??_interruptYonetici+8,prodl
  2668  00008E  C031  FFDA         	movff	??_interruptYonetici+7,fsr2h
  2669  000092  C030  FFD9         	movff	??_interruptYonetici+6,fsr2l
  2670  000096  C02F  FFE2         	movff	??_interruptYonetici+5,fsr1h
  2671  00009A  C02E  FFE1         	movff	??_interruptYonetici+4,fsr1l
  2672  00009E  C02D  FFEA         	movff	??_interruptYonetici+3,fsr0h
  2673  0000A2  C02C  FFE9         	movff	??_interruptYonetici+2,fsr0l
  2674  0000A6  C02B  FFFB         	movff	??_interruptYonetici+1,pclatu
  2675  0000AA  C02A  FFFA         	movff	??_interruptYonetici,pclath
  2676  0000AE  924E               	bcf	btemp,1,c	;clear compiler interrupt flag (level 2)
  2677  0000B0  0011               	retfie		f
  2678  0000B2                     __end_of_interruptYonetici:
  2679                           	callstack 0
  2680                           
  2681 ;; *************** function _sisTimerKesmeIsleyici *****************
  2682 ;; Defined at:
  2683 ;;		line 125 in file "sistimer.c"
  2684 ;; Parameters:    Size  Location     Type
  2685 ;;		None
  2686 ;; Auto vars:     Size  Location     Type
  2687 ;;		None
  2688 ;; Return value:  Size  Location     Type
  2689 ;;                  1    wreg      void 
  2690 ;; Registers used:
  2691 ;;		wreg, fsr0l, fsr0h, fsr1l, fsr1h, fsr1l, fsr1h, fsr2l, fsr2h, status,2, status,0, pclath, btemp, btemp+1, btemp+2, b
      +temp+3, btemp+4, btemp+5, btemp+6, btemp+7, btemp+8, btemp+9, btemp+10, btemp+11, btemp+12, btemp+13, btemp+14, btemp+15
      +, btemp+16, btemp+17, btemp+18, btemp+19, btemp+20, btemp+21, btemp+22, btemp+23, btemp+24, btemp+25, btemp+26, btemp+27
      +, btemp+28, btemp+29, btemp+30, btemp+31, tosl, structret, tblptrl, tblptrh, tblptru, prodl, prodh, bsr, cstack
  2692 ;; Tracked objects:
  2693 ;;		On entry : 0/0
  2694 ;;		On exit  : 0/0
  2695 ;;		Unchanged: 0/0
  2696 ;; Data sizes:     COMRAM   BANK0   BANK1   BANK2   BANK3   BANK4   BANK5   BANK6   BANK7   BANK8   BANK9  BANK10  BANK1
      +1  BANK12  BANK13  BANK14  BANK15
  2697 ;;      Params:         0       0       0       0       0       0       0       0       0       0       0       0       
      +0       0       0       0       0
  2698 ;;      Locals:         0       0       0       0       0       0       0       0       0       0       0       0       
      +0       0       0       0       0
  2699 ;;      Temps:          0       0       0       0       0       0       0       0       0       0       0       0       
      +0       0       0       0       0
  2700 ;;      Totals:         0       0       0       0       0       0       0       0       0       0       0       0       
      +0       0       0       0       0
  2701 ;;Total ram usage:        0 bytes
  2702 ;; Hardware stack levels used:    1
  2703 ;; Hardware stack levels required when called:    1
  2704 ;; This function calls:
  2705 ;;		Absolute function
  2706 ;;		_grvTikKesmeIsleyici
  2707 ;;		_sisTimerIsleyiciVarsayilan
  2708 ;; This function is called by:
  2709 ;;		_sisTimerIlkle
  2710 ;;		_interruptYonetici
  2711 ;; This function uses a non-reentrant model
  2712 ;;
  2713                           
  2714                           	psect	text19
  2715  001868                     __ptext19:
  2716                           	callstack 0
  2717  001868                     _sisTimerKesmeIsleyici:
  2718                           	callstack 23
  2719                           
  2720                           ;sistimer.c: 127:     TMR0 = (uint16_t) ((uint16_t)((65536)-((( (1000) - ( ( ( 52 ) * ( 
      +                          ( 1 * ( 100 ) ) / ( (16000000 / 4 ) / 1000000 ) ) ) / ( 100 ) ) )* (16000000/1000000))/(
      +                          4*(1)))-1));
  2721                           
  2722                           ;incstack = 0
  2723  001868  0EF0               	movlw	240
  2724  00186A  6ED7               	movwf	215,c	;volatile
  2725  00186C  0E93               	movlw	147
  2726  00186E  6ED6               	movwf	214,c	;volatile
  2727                           
  2728                           ;sistimer.c: 131:     (*sisTimerDisIsleyici)();
  2729  001870  D801               	call	i2u46_48
  2730  001872  0012               	return	
  2731  001874                     i2u46_48:
  2732  001874  0005               	push	
  2733  001876  6EFA               	movwf	pclath,c
  2734  001878  500F               	movf	_sisTimerDisIsleyici^0,w,c
  2735  00187A  6EFD               	movwf	tosl,c
  2736  00187C  5010               	movf	(_sisTimerDisIsleyici+1)^0,w,c
  2737  00187E  6EFE               	movwf	tosh,c
  2738  001880  6AFF               	clrf	tosu,c
  2739  001882  50FA               	movf	pclath,w,c
  2740  001884  0012               	return		;indir
  2741  001886                     __end_of_sisTimerKesmeIsleyici:
  2742                           	callstack 0
  2743                           
  2744 ;; *************** function _grvTikKesmeIsleyici *****************
  2745 ;; Defined at:
  2746 ;;		line 122 in file "../../../../../kaynak/gorev.c"
  2747 ;; Parameters:    Size  Location     Type
  2748 ;;		None
  2749 ;; Auto vars:     Size  Location     Type
  2750 ;;		None
  2751 ;; Return value:  Size  Location     Type
  2752 ;;                  1    wreg      void 
  2753 ;; Registers used:
  2754 ;;		status,2, status,0
  2755 ;; Tracked objects:
  2756 ;;		On entry : 0/0
  2757 ;;		On exit  : 0/0
  2758 ;;		Unchanged: 0/0
  2759 ;; Data sizes:     COMRAM   BANK0   BANK1   BANK2   BANK3   BANK4   BANK5   BANK6   BANK7   BANK8   BANK9  BANK10  BANK1
      +1  BANK12  BANK13  BANK14  BANK15
  2760 ;;      Params:         0       0       0       0       0       0       0       0       0       0       0       0       
      +0       0       0       0       0
  2761 ;;      Locals:         0       0       0       0       0       0       0       0       0       0       0       0       
      +0       0       0       0       0
  2762 ;;      Temps:          0       0       0       0       0       0       0       0       0       0       0       0       
      +0       0       0       0       0
  2763 ;;      Totals:         0       0       0       0       0       0       0       0       0       0       0       0       
      +0       0       0       0       0
  2764 ;;Total ram usage:        0 bytes
  2765 ;; Hardware stack levels used:    1
  2766 ;; This function calls:
  2767 ;;		Nothing
  2768 ;; This function is called by:
  2769 ;;		_portGorevciyiBaslat
  2770 ;;		_sisTimerKesmeIsleyici
  2771 ;; This function uses a non-reentrant model
  2772 ;;
  2773                           
  2774                           	psect	text20
  2775  0018D2                     __ptext20:
  2776                           	callstack 0
  2777  0018D2                     _grvTikKesmeIsleyici:
  2778                           	callstack 23
  2779                           
  2780                           ;../../../../../kaynak/gorev.c: 123:  tikSayimi++;
  2781                           
  2782                           ;incstack = 0
  2783  0018D2  4A0D               	infsnz	_tikSayimi^0,f,c
  2784  0018D4  2A0E               	incf	(_tikSayimi+1)^0,f,c
  2785  0018D6  0012               	return		;funcret
  2786  0018D8                     __end_of_grvTikKesmeIsleyici:
  2787                           	callstack 0
  2788                           
  2789 ;; *************** function _sisTimerIsleyiciVarsayilan *****************
  2790 ;; Defined at:
  2791 ;;		line 121 in file "sistimer.c"
  2792 ;; Parameters:    Size  Location     Type
  2793 ;;		None
  2794 ;; Auto vars:     Size  Location     Type
  2795 ;;		None
  2796 ;; Return value:  Size  Location     Type
  2797 ;;                  1    wreg      void 
  2798 ;; Registers used:
  2799 ;;		None
  2800 ;; Tracked objects:
  2801 ;;		On entry : 0/0
  2802 ;;		On exit  : 0/0
  2803 ;;		Unchanged: 0/0
  2804 ;; Data sizes:     COMRAM   BANK0   BANK1   BANK2   BANK3   BANK4   BANK5   BANK6   BANK7   BANK8   BANK9  BANK10  BANK1
      +1  BANK12  BANK13  BANK14  BANK15
  2805 ;;      Params:         0       0       0       0       0       0       0       0       0       0       0       0       
      +0       0       0       0       0
  2806 ;;      Locals:         0       0       0       0       0       0       0       0       0       0       0       0       
      +0       0       0       0       0
  2807 ;;      Temps:          0       0       0       0       0       0       0       0       0       0       0       0       
      +0       0       0       0       0
  2808 ;;      Totals:         0       0       0       0       0       0       0       0       0       0       0       0       
      +0       0       0       0       0
  2809 ;;Total ram usage:        0 bytes
  2810 ;; Hardware stack levels used:    1
  2811 ;; This function calls:
  2812 ;;		Nothing
  2813 ;; This function is called by:
  2814 ;;		_sisTimerIlkle
  2815 ;;		_sisTimerKesmeIsleyici
  2816 ;; This function uses a non-reentrant model
  2817 ;;
  2818                           
  2819                           	psect	text21
  2820  0018DC                     __ptext21:
  2821                           	callstack 0
  2822  0018DC                     _sisTimerIsleyiciVarsayilan:
  2823                           	callstack 23
  2824                           
  2825                           ;incstack = 0
  2826  0018DC  0012               	return		;funcret
  2827  0018DE                     __end_of_sisTimerIsleyiciVarsayilan:
  2828                           	callstack 0
  2829                           
  2830                           	psect	text22
  2831  000000                     __ptext22:
  2832                           	callstack 0
  2833                           
  2834                           	psect	rparam
  2835  0000                     
  2836                           	psect	temp
  2837  00004E                     btemp:
  2838                           	callstack 0
  2839  00004E                     	ds	1
  2840  0000                     int$flags	set	btemp
  2841  0000                     wtemp8	set	btemp+1
  2842  0000                     ttemp5	set	btemp+1
  2843  0000                     ttemp6	set	btemp+4
  2844  0000                     ttemp7	set	btemp+8
  2845                           
  2846                           	psect	idloc
  2847                           
  2848                           ;Config register IDLOC0 @ 0x200000
  2849                           ;	unspecified, using default values
  2850  200000                     	org	2097152
  2851  200000  FF                 	db	255
  2852                           
  2853                           ;Config register IDLOC1 @ 0x200001
  2854                           ;	unspecified, using default values
  2855  200001                     	org	2097153
  2856  200001  FF                 	db	255
  2857                           
  2858                           ;Config register IDLOC2 @ 0x200002
  2859                           ;	unspecified, using default values
  2860  200002                     	org	2097154
  2861  200002  FF                 	db	255
  2862                           
  2863                           ;Config register IDLOC3 @ 0x200003
  2864                           ;	unspecified, using default values
  2865  200003                     	org	2097155
  2866  200003  FF                 	db	255
  2867                           
  2868                           ;Config register IDLOC4 @ 0x200004
  2869                           ;	unspecified, using default values
  2870  200004                     	org	2097156
  2871  200004  FF                 	db	255
  2872                           
  2873                           ;Config register IDLOC5 @ 0x200005
  2874                           ;	unspecified, using default values
  2875  200005                     	org	2097157
  2876  200005  FF                 	db	255
  2877                           
  2878                           ;Config register IDLOC6 @ 0x200006
  2879                           ;	unspecified, using default values
  2880  200006                     	org	2097158
  2881  200006  FF                 	db	255
  2882                           
  2883                           ;Config register IDLOC7 @ 0x200007
  2884                           ;	unspecified, using default values
  2885  200007                     	org	2097159
  2886  200007  FF                 	db	255
  2887                           
  2888                           	psect	config
  2889                           
  2890                           ; Padding undefined space
  2891  300000                     	org	3145728
  2892  300000  FF                 	db	255
  2893                           
  2894                           ;Config register CONFIG1H @ 0x300001
  2895                           ;	Oscillator Selection bits
  2896                           ;	FOSC = INTIO67, Internal oscillator block
  2897                           ;	4X PLL Enable
  2898                           ;	PLLCFG = ON, Oscillator multiplied by 4
  2899                           ;	Primary clock enable bit
  2900                           ;	PRICLKEN = ON, Primary clock is always enabled
  2901                           ;	Fail-Safe Clock Monitor Enable bit
  2902                           ;	FCMEN = OFF, Fail-Safe Clock Monitor disabled
  2903                           ;	Internal/External Oscillator Switchover bit
  2904                           ;	IESO = OFF, Oscillator Switchover mode disabled
  2905  300001                     	org	3145729
  2906  300001  38                 	db	56
  2907                           
  2908                           ;Config register CONFIG2L @ 0x300002
  2909                           ;	Power-up Timer Enable bit
  2910                           ;	PWRTEN = ON, Power up timer enabled
  2911                           ;	Brown-out Reset Enable bits
  2912                           ;	BOREN = SBORDIS, Brown-out Reset enabled in hardware only (SBOREN is disabled)
  2913                           ;	Brown Out Reset Voltage bits
  2914                           ;	BORV = 250, VBOR set to 2.50 V nominal
  2915  300002                     	org	3145730
  2916  300002  0E                 	db	14
  2917                           
  2918                           ;Config register CONFIG2H @ 0x300003
  2919                           ;	Watchdog Timer Enable bits
  2920                           ;	WDTEN = OFF, Watch dog timer is always disabled. SWDTEN has no effect.
  2921                           ;	Watchdog Timer Postscale Select bits
  2922                           ;	WDTPS = 32768, 1:32768
  2923  300003                     	org	3145731
  2924  300003  3C                 	db	60
  2925                           
  2926                           ; Padding undefined space
  2927  300004                     	org	3145732
  2928  300004  FF                 	db	255
  2929                           
  2930                           ;Config register CONFIG3H @ 0x300005
  2931                           ;	CCP2 MUX bit
  2932                           ;	CCP2MX = PORTC1, CCP2 input/output is multiplexed with RC1
  2933                           ;	PORTB A/D Enable bit
  2934                           ;	PBADEN = OFF, PORTB<5:0> pins are configured as digital I/O on Reset
  2935                           ;	P3A/CCP3 Mux bit
  2936                           ;	CCP3MX = PORTB5, P3A/CCP3 input/output is multiplexed with RB5
  2937                           ;	HFINTOSC Fast Start-up
  2938                           ;	HFOFST = ON, HFINTOSC output and ready status are not delayed by the oscillator stable
      +                           status
  2939                           ;	Timer3 Clock input mux bit
  2940                           ;	T3CMX = PORTC0, T3CKI is on RC0
  2941                           ;	ECCP2 B output mux bit
  2942                           ;	P2BMX = PORTD2, P2B is on RD2
  2943                           ;	MCLR Pin Enable bit
  2944                           ;	MCLRE = INTMCLR, RE3 input pin enabled; MCLR disabled
  2945  300005                     	org	3145733
  2946  300005  3D                 	db	61
  2947                           
  2948                           ;Config register CONFIG4L @ 0x300006
  2949                           ;	Stack Full/Underflow Reset Enable bit
  2950                           ;	STVREN = ON, Stack full/underflow will cause Reset
  2951                           ;	Single-Supply ICSP Enable bit
  2952                           ;	LVP = ON, Single-Supply ICSP enabled if MCLRE is also 1
  2953                           ;	Extended Instruction Set Enable bit
  2954                           ;	XINST = OFF, Instruction set extension and Indexed Addressing mode disabled (Legacy mo
      +                          de)
  2955                           ;	Background Debug
  2956                           ;	DEBUG = OFF, Disabled
  2957  300006                     	org	3145734
  2958  300006  85                 	db	133
  2959                           
  2960                           ; Padding undefined space
  2961  300007                     	org	3145735
  2962  300007  FF                 	db	255
  2963                           
  2964                           ;Config register CONFIG5L @ 0x300008
  2965                           ;	Code Protection Block 0
  2966                           ;	CP0 = OFF, Block 0 (000800-003FFFh) not code-protected
  2967                           ;	Code Protection Block 1
  2968                           ;	CP1 = OFF, Block 1 (004000-007FFFh) not code-protected
  2969                           ;	Code Protection Block 2
  2970                           ;	CP2 = OFF, Block 2 (008000-00BFFFh) not code-protected
  2971                           ;	Code Protection Block 3
  2972                           ;	CP3 = OFF, Block 3 (00C000-00FFFFh) not code-protected
  2973  300008                     	org	3145736
  2974  300008  0F                 	db	15
  2975                           
  2976                           ;Config register CONFIG5H @ 0x300009
  2977                           ;	Boot Block Code Protection bit
  2978                           ;	CPB = OFF, Boot block (000000-0007FFh) not code-protected
  2979                           ;	Data EEPROM Code Protection bit
  2980                           ;	CPD = OFF, Data EEPROM not code-protected
  2981  300009                     	org	3145737
  2982  300009  C0                 	db	192
  2983                           
  2984                           ;Config register CONFIG6L @ 0x30000A
  2985                           ;	Write Protection Block 0
  2986                           ;	WRT0 = OFF, Block 0 (000800-003FFFh) not write-protected
  2987                           ;	Write Protection Block 1
  2988                           ;	WRT1 = OFF, Block 1 (004000-007FFFh) not write-protected
  2989                           ;	Write Protection Block 2
  2990                           ;	WRT2 = OFF, Block 2 (008000-00BFFFh) not write-protected
  2991                           ;	Write Protection Block 3
  2992                           ;	WRT3 = OFF, Block 3 (00C000-00FFFFh) not write-protected
  2993  30000A                     	org	3145738
  2994  30000A  0F                 	db	15
  2995                           
  2996                           ;Config register CONFIG6H @ 0x30000B
  2997                           ;	Configuration Register Write Protection bit
  2998                           ;	WRTC = OFF, Configuration registers (300000-3000FFh) not write-protected
  2999                           ;	Boot Block Write Protection bit
  3000                           ;	WRTB = OFF, Boot Block (000000-0007FFh) not write-protected
  3001                           ;	Data EEPROM Write Protection bit
  3002                           ;	WRTD = OFF, Data EEPROM not write-protected
  3003  30000B                     	org	3145739
  3004  30000B  E0                 	db	224
  3005                           
  3006                           ;Config register CONFIG7L @ 0x30000C
  3007                           ;	Table Read Protection Block 0
  3008                           ;	EBTR0 = OFF, Block 0 (000800-003FFFh) not protected from table reads executed in other
      +                           blocks
  3009                           ;	Table Read Protection Block 1
  3010                           ;	EBTR1 = OFF, Block 1 (004000-007FFFh) not protected from table reads executed in other
      +                           blocks
  3011                           ;	Table Read Protection Block 2
  3012                           ;	EBTR2 = OFF, Block 2 (008000-00BFFFh) not protected from table reads executed in other
      +                           blocks
  3013                           ;	Table Read Protection Block 3
  3014                           ;	EBTR3 = OFF, Block 3 (00C000-00FFFFh) not protected from table reads executed in other
      +                           blocks
  3015  30000C                     	org	3145740
  3016  30000C  0F                 	db	15
  3017                           
  3018                           ;Config register CONFIG7H @ 0x30000D
  3019                           ;	Boot Block Table Read Protection bit
  3020                           ;	EBTRB = OFF, Boot Block (000000-0007FFh) not protected from table reads executed in ot
      +                          her blocks
  3021  30000D                     	org	3145741
  3022  30000D  40                 	db	64
  3023                           tosu	equ	0xFFF
  3024                           tosh	equ	0xFFE
  3025                           tosl	equ	0xFFD
  3026                           stkptr	equ	0xFFC
  3027                           pclatu	equ	0xFFB
  3028                           pclath	equ	0xFFA
  3029                           pcl	equ	0xFF9
  3030                           tblptru	equ	0xFF8
  3031                           tblptrh	equ	0xFF7
  3032                           tblptrl	equ	0xFF6
  3033                           tablat	equ	0xFF5
  3034                           prodh	equ	0xFF4
  3035                           prodl	equ	0xFF3
  3036                           indf0	equ	0xFEF
  3037                           postinc0	equ	0xFEE
  3038                           postdec0	equ	0xFED
  3039                           preinc0	equ	0xFEC
  3040                           plusw0	equ	0xFEB
  3041                           fsr0h	equ	0xFEA
  3042                           fsr0l	equ	0xFE9
  3043                           wreg	equ	0xFE8
  3044                           indf1	equ	0xFE7
  3045                           postinc1	equ	0xFE6
  3046                           postdec1	equ	0xFE5
  3047                           preinc1	equ	0xFE4
  3048                           plusw1	equ	0xFE3
  3049                           fsr1h	equ	0xFE2
  3050                           fsr1l	equ	0xFE1
  3051                           bsr	equ	0xFE0
  3052                           indf2	equ	0xFDF
  3053                           postinc2	equ	0xFDE
  3054                           postdec2	equ	0xFDD
  3055                           preinc2	equ	0xFDC
  3056                           plusw2	equ	0xFDB
  3057                           fsr2h	equ	0xFDA
  3058                           fsr2l	equ	0xFD9
  3059                           status	equ	0xFD8

Data Sizes:
    Strings     0
    Constant    17
    Data        1
    BSS         77
    Persistent  0
    Stack       0

Auto Spaces:
    Space          Size  Autos    Used
    COMRAM           94     35      77
    BANK0           160      0      36
    BANK1           256      0       0
    BANK2           256      0       0
    BANK3           256      0       0
    BANK4           256      0       0
    BANK5           256      0       0
    BANK6           256      0       0
    BANK7           256      0       0
    BANK8           256      0       0
    BANK9           256      0       0
    BANK10          256      0       0
    BANK11          256      0       0
    BANK12          256      0       0
    BANK13          256      0       0
    BANK14          256      0       0
    BANK15           56      0       0

Pointer List with Targets:

    is$0	PTR void  size(1) Largest target is 36
		 -> gorevHavuzu(BANK0[36]), 

    S388$3$0	PTR void  size(1) Largest target is 36
		 -> gorevHavuzu(BANK0[36]), 

    is$0	PTR void  size(1) Largest target is 36
		 -> gorevHavuzu(BANK0[36]), 

    ?_grvOlustur.is	PTR FTN(PTR void ,)unsigned char  size(2) Largest target is 1
		 -> gostergeTara(), gostergeDegerleriGuncelle(), uretici2(), uretici1(), 

    gostergeTara@tutucu.is	PTR FTN(PTR void ,)unsigned char  size(2) Largest target is 1
		 -> gostergeTara(), gostergeDegerleriGuncelle(), uretici2(), uretici1(), 

    gostergeTara@tutucu	PTR void  size(1) Largest target is 36
		 -> gorevHavuzu(BANK0[36]), 

    gostergeDegerleriGuncelle@tutucu.is	PTR FTN(PTR void ,)unsigned char  size(2) Largest target is 1
		 -> gostergeTara(), gostergeDegerleriGuncelle(), uretici2(), uretici1(), 

    gostergeDegerleriGuncelle@tutucu	PTR void  size(1) Largest target is 36
		 -> gorevHavuzu(BANK0[36]), 

    uretici2@tutucu.is	PTR FTN(PTR void ,)unsigned char  size(2) Largest target is 1
		 -> gostergeTara(), gostergeDegerleriGuncelle(), uretici2(), uretici1(), 

    uretici2@tutucu	PTR void  size(1) Largest target is 36
		 -> gorevHavuzu(BANK0[36]), 

    uretici1@tutucu.is	PTR FTN(PTR void ,)unsigned char  size(2) Largest target is 1
		 -> gostergeTara(), gostergeDegerleriGuncelle(), uretici2(), uretici1(), 

    uretici1@tutucu	PTR void  size(1) Largest target is 36
		 -> gorevHavuzu(BANK0[36]), 

    kuyruk1.veri	PTR unsigned char  size(1) Largest target is 8
		 -> k1(COMRAM[8]), 

    uckuyrukKalanKapasite@kuyruk.veri	PTR unsigned char  size(1) Largest target is 8
		 -> k1(COMRAM[8]), 

    uckuyrukBos@kuyruk.veri	PTR unsigned char  size(1) Largest target is 8
		 -> k1(COMRAM[8]), 

    uckuyrukBos@kuyruk	PTR struct . size(1) Largest target is 6
		 -> kuyruk1(COMRAM[4]), 

    uckuyrukDolu@kuyruk.veri	PTR unsigned char  size(1) Largest target is 8
		 -> k1(COMRAM[8]), 

    uckuyrukDolu@kuyruk	PTR struct . size(1) Largest target is 6
		 -> kuyruk1(COMRAM[4]), 

    uckuyrukKacOgeVar@kuyruk.veri	PTR unsigned char  size(1) Largest target is 8
		 -> k1(COMRAM[8]), 

    uckuyrukCokluAl@kuyruk.veri	PTR unsigned char  size(1) Largest target is 8
		 -> k1(COMRAM[8]), 

    uckuyrukKuyruktanAl@kuyruk.veri	PTR unsigned char  size(1) Largest target is 8
		 -> k1(COMRAM[8]), 

    uckuyrukKuyruktanAl@kuyruk	PTR struct . size(1) Largest target is 6
		 -> kuyruk1(COMRAM[4]), 

    uckuyrukBastakiOge@kuyruk.veri	PTR unsigned char  size(1) Largest target is 8
		 -> k1(COMRAM[8]), 

    uckuyrukCokluKuyrukla@kuyruk.veri	PTR unsigned char  size(1) Largest target is 8
		 -> k1(COMRAM[8]), 

    uckuyrukKuyrukla@kuyruk.veri	PTR unsigned char  size(1) Largest target is 8
		 -> k1(COMRAM[8]), 

    uckuyrukKuyrukla@kuyruk	PTR struct . size(1) Largest target is 6
		 -> kuyruk1(COMRAM[4]), 

    S493$veri	PTR unsigned char  size(1) Largest target is 8
		 -> k1(COMRAM[8]), 

    uckuyrukIlkle@kuyruk.veri	PTR unsigned char  size(1) Largest target is 8
		 -> k1(COMRAM[8]), 

    uckuyrukIlkle@veri	PTR unsigned char  size(1) Largest target is 8
		 -> k1(COMRAM[8]), 

    uckuyrukIlkle@kuyruk	PTR struct . size(1) Largest target is 6
		 -> kuyruk1(COMRAM[4]), 

    grvGorevciyiBaslat@gkb.is	PTR FTN(PTR void ,)unsigned char  size(2) Largest target is 1
		 -> gostergeTara(), gostergeDegerleriGuncelle(), uretici2(), uretici1(), 

    grvGorevciyiBaslat@is	PTR FTN(PTR void ,)unsigned char  size(2) Largest target is 1
		 -> gostergeTara(), gostergeDegerleriGuncelle(), uretici2(), uretici1(), 

    grvGorevciyiBaslat@gkb	PTR struct . size(1) Largest target is 36
		 -> gorevHavuzu(BANK0[36]), 

    grvDurdur@gkb.is	PTR FTN(PTR void ,)unsigned char  size(2) Largest target is 1
		 -> gostergeTara(), gostergeDegerleriGuncelle(), uretici2(), uretici1(), 

    grvBaslat@gkb.is	PTR FTN(PTR void ,)unsigned char  size(2) Largest target is 1
		 -> gostergeTara(), gostergeDegerleriGuncelle(), uretici2(), uretici1(), 

    sp__grvKimlikIleGorevBlogunuAl	PTR struct . size(2) Largest target is 36
		 -> gorevHavuzu(BANK0[36]), NULL(NULL[0]), 

    sp__grvOlustur.is	PTR FTN(PTR void ,)unsigned char  size(2) Largest target is 1
		 -> gostergeTara(), gostergeDegerleriGuncelle(), uretici2(), uretici1(), 

    grvOlustur@gkb.is	PTR FTN(PTR void ,)unsigned char  size(2) Largest target is 1
		 -> gostergeTara(), gostergeDegerleriGuncelle(), uretici2(), uretici1(), 

    grvOlustur@gkb	PTR struct . size(1) Largest target is 36
		 -> gorevHavuzu(BANK0[36]), 

    S388$is	PTR FTN(PTR void ,)unsigned char  size(2) Largest target is 1
		 -> gostergeTara(), gostergeDegerleriGuncelle(), uretici2(), uretici1(), 

    gorevHavuzu.is	PTR FTN(PTR void ,)unsigned char  size(2) Largest target is 1
		 -> gostergeTara(), gostergeDegerleriGuncelle(), uretici2(), uretici1(), 

    grvOlustur@is	PTR FTN(PTR void ,)unsigned char  size(2) Largest target is 1
		 -> gostergeTara(), gostergeDegerleriGuncelle(), uretici2(), uretici1(), 

    sp__grvOlustur	PTR struct . size(2) Largest target is 36
		 -> gorevHavuzu(BANK0[36]), NULL(NULL[0]), 

    sisTimerIlkle@isleyici	PTR FTN()void  size(2) Largest target is 1
		 -> grvTikKesmeIsleyici(), 

    sisTimerDisIsleyici	PTR FTN()void  size(2) Largest target is 2
		 -> Absolute function(), grvTikKesmeIsleyici(), sisTimerIlkle@isleyici(COMRAM[2]), sisTimerIsleyiciVarsayilan(), 

    uartRxKesmeIsleyici	PTR FTN()void  size(2) Largest target is 1
		 -> Absolute function(), 

    uartTxKesmeIsleyici	PTR FTN()void  size(2) Largest target is 1
		 -> Absolute function(), 

    timer0KesmeIsleyiciKur@isleyici	PTR FTN()void  size(2) Largest target is 1
		 -> sisTimerKesmeIsleyici(), 

    timer0KesmeIsleyici	PTR FTN()void  size(2) Largest target is 1
		 -> Absolute function(), sisTimerKesmeIsleyici(), 


Critical Paths under _main in COMRAM

    _portGorevciyiBaslat->_grvGorevciyiBaslat
    _sisTimerIlkle->_timer0KesmeIsleyiciKur
    _grvGorevciyiBaslat->_gostergeDegerleriGuncelle
    _uretici2->_uckuyrukKuyrukla
    _uretici1->_uckuyrukKuyrukla
    _uckuyrukKuyrukla->_uckuyrukDolu
    _uckuyrukKuyruktanAl->_uckuyrukBos

Critical Paths under _interruptYonetici in COMRAM

    None.

Critical Paths under _main in BANK0

    None.

Critical Paths under _interruptYonetici in BANK0

    None.

Critical Paths under _main in BANK1

    None.

Critical Paths under _interruptYonetici in BANK1

    None.

Critical Paths under _main in BANK2

    None.

Critical Paths under _interruptYonetici in BANK2

    None.

Critical Paths under _main in BANK3

    None.

Critical Paths under _interruptYonetici in BANK3

    None.

Critical Paths under _main in BANK4

    None.

Critical Paths under _interruptYonetici in BANK4

    None.

Critical Paths under _main in BANK5

    None.

Critical Paths under _interruptYonetici in BANK5

    None.

Critical Paths under _main in BANK6

    None.

Critical Paths under _interruptYonetici in BANK6

    None.

Critical Paths under _main in BANK7

    None.

Critical Paths under _interruptYonetici in BANK7

    None.

Critical Paths under _main in BANK8

    None.

Critical Paths under _interruptYonetici in BANK8

    None.

Critical Paths under _main in BANK9

    None.

Critical Paths under _interruptYonetici in BANK9

    None.

Critical Paths under _main in BANK10

    None.

Critical Paths under _interruptYonetici in BANK10

    None.

Critical Paths under _main in BANK11

    None.

Critical Paths under _interruptYonetici in BANK11

    None.

Critical Paths under _main in BANK12

    None.

Critical Paths under _interruptYonetici in BANK12

    None.

Critical Paths under _main in BANK13

    None.

Critical Paths under _interruptYonetici in BANK13

    None.

Critical Paths under _main in BANK14

    None.

Critical Paths under _interruptYonetici in BANK14

    None.

Critical Paths under _main in BANK15

    None.

Critical Paths under _interruptYonetici in BANK15

    None.

Call Graph Tables:

 ---------------------------------------------------------------------------------
 (Depth) Function   	        Calls       Base Space   Used Autos Params    Refs
 ---------------------------------------------------------------------------------
 (0) _main                                                 0     0      0    5292
                         _grvOlustur
                _portGorevciyiBaslat
                   _sisOsilatorIlkle
                      _uckuyrukIlkle
 ---------------------------------------------------------------------------------
 (1) _uckuyrukIlkle                                        3     1      2     328
                                             14 COMRAM     3     1      2
 ---------------------------------------------------------------------------------
 (1) _sisOsilatorIlkle                                     0     0      0       0
 ---------------------------------------------------------------------------------
 (1) _portGorevciyiBaslat                                  0     0      0    4475
                 _grvGorevciyiBaslat
                     _interruptIlkle
                      _sisTimerIlkle
 ---------------------------------------------------------------------------------
 (2) _sisTimerIlkle                                        2     0      2     220
                                             16 COMRAM     2     0      2
             _timer0KesmeIsleyiciKur
 ---------------------------------------------------------------------------------
 (3) _timer0KesmeIsleyiciKur                               2     0      2      98
                                             14 COMRAM     2     0      2
 ---------------------------------------------------------------------------------
 (2) _interruptIlkle                                       0     0      0       0
 ---------------------------------------------------------------------------------
 (2) _grvGorevciyiBaslat                                   5     5      0    4255
                                             30 COMRAM     5     5      0
          _gostergeDegerleriGuncelle *
                       _gostergeTara *
                           _uretici1 *
                           _uretici2 *
 ---------------------------------------------------------------------------------
 (3) _uretici2                                             4     3      1    1333
                                             24 COMRAM     4     3      1
                        _uckuyrukBos
                   _uckuyrukKuyrukla
 ---------------------------------------------------------------------------------
 (3) _uretici1                                             4     3      1    1279
                                             24 COMRAM     4     3      1
                       _uckuyrukDolu
                   _uckuyrukKuyrukla
 ---------------------------------------------------------------------------------
 (4) _uckuyrukKuyrukla                                     5     3      2     858
                                             19 COMRAM     5     3      2
                       _uckuyrukDolu
 ---------------------------------------------------------------------------------
 (5) _uckuyrukDolu                                         5     4      1     242
                                             14 COMRAM     5     4      1
 ---------------------------------------------------------------------------------
 (3) _gostergeTara                                         4     3      1     232
                                             24 COMRAM     4     3      1
                   _grvTikSayiminiAl
 ---------------------------------------------------------------------------------
 (3) _gostergeDegerleriGuncelle                            6     5      1    1141
                                             24 COMRAM     6     5      1
                   _grvTikSayiminiAl
                        _uckuyrukBos
                _uckuyrukKuyruktanAl
 ---------------------------------------------------------------------------------
 (4) _uckuyrukKuyruktanAl                                  4     3      1     618
                                             17 COMRAM     4     3      1
                        _uckuyrukBos
 ---------------------------------------------------------------------------------
 (4) _uckuyrukBos                                          3     2      1     296
                                             14 COMRAM     3     2      1
 ---------------------------------------------------------------------------------
 (4) _grvTikSayiminiAl                                     4     2      2      23
                                             14 COMRAM     4     2      2
 ---------------------------------------------------------------------------------
 (1) _grvOlustur                                           6     4      2     489
                                             14 COMRAM     6     4      2
 ---------------------------------------------------------------------------------
 Estimated maximum stack depth 5
 ---------------------------------------------------------------------------------
 (Depth) Function   	        Calls       Base Space   Used Autos Params    Refs
 ---------------------------------------------------------------------------------
 (6) _interruptYonetici                                   14    14      0       0
                                              0 COMRAM    14    14      0
                   Absolute function *
              _sisTimerKesmeIsleyici *
 ---------------------------------------------------------------------------------
 (7) _sisTimerKesmeIsleyici                                0     0      0       0
                   Absolute function *
                _grvTikKesmeIsleyici *
         _sisTimerIsleyiciVarsayilan *
 ---------------------------------------------------------------------------------
 (8) _sisTimerIsleyiciVarsayilan                           0     0      0       0
 ---------------------------------------------------------------------------------
 (8) _grvTikKesmeIsleyici                                  0     0      0       0
 ---------------------------------------------------------------------------------
 (8) Absolute function(Fake)                               0     0      0       0
 ---------------------------------------------------------------------------------
 Estimated maximum stack depth 8
 ---------------------------------------------------------------------------------

 Call Graph Graphs:

 _main (ROOT)
   _grvOlustur
   _portGorevciyiBaslat
     _grvGorevciyiBaslat
       _gostergeDegerleriGuncelle *
         _grvTikSayiminiAl
         _uckuyrukBos
         _uckuyrukKuyruktanAl
           _uckuyrukBos
       _gostergeTara *
         _grvTikSayiminiAl
       _uretici1 *
         _uckuyrukDolu
         _uckuyrukKuyrukla
           _uckuyrukDolu
       _uretici2 *
         _uckuyrukBos
         _uckuyrukKuyrukla
           _uckuyrukDolu
     _interruptIlkle
     _sisTimerIlkle
       _timer0KesmeIsleyiciKur
   _sisOsilatorIlkle
   _uckuyrukIlkle

 _interruptYonetici (ROOT)
   Absolute function(Fake) *
   _sisTimerKesmeIsleyici *
     Absolute function(Fake) *
     _grvTikKesmeIsleyici *
     _sisTimerIsleyiciVarsayilan *

 Address spaces:
Name               Size   Autos  Total    Cost      Usage
BIGRAM             F37      0       0      37        0.0%
EEDATA             400      0       0       0        0.0%
BITBANK14          100      0       0      33        0.0%
BANK14             100      0       0      34        0.0%
BITBANK13          100      0       0      31        0.0%
BANK13             100      0       0      32        0.0%
BITBANK12          100      0       0      29        0.0%
BANK12             100      0       0      30        0.0%
BITBANK11          100      0       0      27        0.0%
BANK11             100      0       0      28        0.0%
BITBANK10          100      0       0      25        0.0%
BANK10             100      0       0      26        0.0%
BITBANK9           100      0       0      23        0.0%
BANK9              100      0       0      24        0.0%
BITBANK8           100      0       0      21        0.0%
BANK8              100      0       0      22        0.0%
BITBANK7           100      0       0      19        0.0%
BANK7              100      0       0      20        0.0%
BITBANK6           100      0       0      17        0.0%
BANK6              100      0       0      18        0.0%
BITBANK5           100      0       0      15        0.0%
BANK5              100      0       0      16        0.0%
BITBANK4           100      0       0      13        0.0%
BANK4              100      0       0      14        0.0%
BITBANK3           100      0       0      10        0.0%
BANK3              100      0       0      11        0.0%
BITBANK2           100      0       0       8        0.0%
BANK2              100      0       0       9        0.0%
BITBANK1           100      0       0       6        0.0%
BANK1              100      0       0       7        0.0%
BITBANK0            A0      0       0       4        0.0%
BANK0               A0      0      24       5       22.5%
BITCOMRAM           5E      0       0       0        0.0%
COMRAM              5E     23      4D       1       81.9%
BITBANK15           38      0       0      35        0.0%
BANK15              38      0       0      36        0.0%
BITSFR_1             0      0       0     200        0.0%
SFR_1                0      0       0     200        0.0%
BITSFR               0      0       0     200        0.0%
SFR                  0      0       0     200        0.0%
STACK                0      0       0       2        0.0%
NULL                 0      0       0       0        0.0%
ABS                  0      0      71      12        0.0%
DATA                 0      0      71       3        0.0%
CODE                 0      0       0       0        0.0%


Microchip Technology PIC18 Macro Assembler V2.31 build 20201012212115 
Symbol Table                                                                                   Sun Jun 13 17:36:27 2021

                                  _k1 001E                __end_of_interruptIlkle 18DC  
           __size_of_grvTikSayiminiAl 001C                                   l230 1864  
                                 l223 1802                                   l320 14A2  
                                 l297 13B0                                   u610 17F2  
                                 u620 17F4                                   u710 16A4  
                                 u640 1854                                   u650 1856  
                                 u730 1356                                   u830 123E  
                                 u910 10A0                                   u680 162E  
                                 u780 1448                                   u940 1106  
                                 u880 108A                                   tosl 000FFD  
                                 wreg 000FE8                      _sisOsilatorIlkle 18BA  
                                l2011 10E2                                  l2033 1148  
                                l2017 10FA                                  l2131 1592  
                                l2053 11A8                                  l2109 1522  
                                l2133 1594                                  l2063 11C2  
                                l2039 1160                                  l2153 15C6  
                                l2155 15C8                                  l2147 15A6  
                                l2067 11C6                                  l2075 11DA  
                                l2149 15AC                                  l1713 1632  
                                l2097 17B4                                  l1723 1666  
                                l2099 17BC                                  l1805 13D0  
                                l1901 1230                                  l1831 1442  
                                l1911 1258                                  l1841 1460  
                                l1809 13D4                                  l1761 1350  
                                l1817 13E8                                  l1739 16A8  
                                l1771 136E                                  l1931 129A  
                                l1923 127E                                  l1915 1262  
                                l1907 1242                                  l1749 16EC  
                                l1837 144C                                  l1829 1430  
                                l1767 135A                                  l1759 133E  
                                l1927 1290                                  l1919 1274  
                                l1697 185C                                  l1689 17FA  
                                l1865 14B8                                  l1849 1480  
                                l1953 12EE                                  l1961 1302  
                                l1875 14C2                                  l1795 13C6  
                                l1779 138E                                  l1939 12D0  
                                l1949 12EA                                  l1973 1016  
                                l1879 14C6                                  l1887 14DA  
                                l1975 1030                                  l1993 108E  
                                l1899 121E                                  l1987 1072  
                                u1038 1570                                  u1039 1582  
                                _LATB 000F8A                                  _LATC 000F8B  
                                _RCIF 007CF5                                  i2l42 006E  
                                i2l46 0076                                  i2l39 0060  
                                _TMR0 000FD6                                  _TXIE 007CEC  
                                _TXIF 007CF4                                  _main 16FE  
                                fsr0h 000FEA                                  fsr1h 000FE2  
                                fsr2h 000FDA                                  fsr0l 000FE9  
                                indf2 000FDF                                  fsr1l 000FE1  
                                fsr2l 000FD9                                  btemp 004E  
                                prodh 000FF4                                  prodl 000FF3  
                                start 00B2                          ___param_bank 000000  
                 _uartTxKesmeIsleyici 0013                       ?_interruptIlkle 002A  
                               ?_main 002A    __size_of_gostergeDegerleriGuncelle 011C  
                               _T0CON 000FD5                                 _TRISB 000F93  
                               _TRISC 000F94           __end_of_portGorevciyiBaslat 18BA  
              uckuyrukKuyrukla@kuyruk 003D                ?_sisTimerKesmeIsleyici 002A  
                     ??_uckuyrukIlkle 003A                                 pclath 000FFA  
                 _sisTimerDisIsleyici 000F                                 tablat 000FF5  
          __end_of_grvGorevciyiBaslat 159E       __size_of_timer0KesmeIsleyiciKur 000A  
                               ttemp5 004F                                 ttemp6 0052  
                               ttemp7 0056                                 status 000FD8  
                               wtemp8 004F                       __initialization 1806  
                        __end_of_main 174C                uckuyrukKuyruktanAl@bas 003E  
                              ??_main 004D                         __activetblptr 000003  
                      gostergeTara@s5 0001                   _grvTikKesmeIsleyici 18D2  
   __end_of_gostergeDegerleriGuncelle 1338                                _ANSELB 000F39  
                              _ANSELC 000F3A                   _uckuyrukKuyruktanAl 1690  
                              _INTCON 000FF2                                _OSCCON 000FD3  
                              _TMR0IF 007F92                  ?_grvTikKesmeIsleyici 002A  
         ?_sisTimerIsleyiciVarsayilan 002A             __size_of_uckuyrukKuyrukla 0076  
                 uckuyrukIlkle@kuyruk 0038                  ?_uckuyrukKuyruktanAl 003B  
                              clear_0 181E                                clear_1 182A  
                    _grvTikSayiminiAl 1886                _timer0KesmeIsleyiciKur 18C8  
                         grvOlustur@s 003C                          __pdataCOMRAM 004D  
                        __mediumconst 0000                                tblptrh 000FF7  
                              tblptrl 000FF6                                tblptru 000FF8  
                       ?_gostergeTara 0042                      __end_of_uretici1 142A  
                    __end_of_uretici2 151C                        uretici1@tutucu 0042  
                        ?_uckuyrukBos 0038                        uretici2@tutucu 0042  
                          __accesstop 0060               __end_of__initialization 1830  
               ??_grvTikKesmeIsleyici 002A                         ___rparam_used 000001  
                      __pcstackCOMRAM 002A              __end_of_sisOsilatorIlkle 18C8  
                uckuyrukKuyrukla@veri 003E                 ??_uckuyrukKuyruktanAl 003C  
               __end_of_sisTimerIlkle 17D0                  uckuyrukKuyruktanAl@b 003D  
                      ??_gostergeTara 0043            _intconYedek@portmacro$F434 001B  
          _intconYedek@portmacro$F682 0019              uretici1@VAZGECIS_BAYRAGI 0045  
                        uretici1@cift 0017                            __pbssBANK0 0060  
                    ??_interruptIlkle 0038                      _uckuyrukDolu$591 003B  
             ??_sisTimerKesmeIsleyici 002A                               _OSCCON2 000FD2  
                             _OSCTUNE 000F9B                               i2u46_48 1874  
                             i2u54_48 004E            gostergeDegerleriGuncelle@b 0046  
                             __Hparam 0000                      _uckuyrukKuyrukla 161A  
                             __Lparam 0000                    _grvGorevciyiBaslat 151C  
                        __psmallconst 1000                             ?_uretici1 0042  
                           ?_uretici2 0042                            _grvOlustur 159E  
                             __pcinit 1806                               __ramtop 1000  
                             __ptext0 16FE                               __ptext1 174C  
                             __ptext2 18BA                               __ptext3 18A2  
                             __ptext4 1790                               __ptext5 18C8  
                             __ptext6 18D8                               __ptext7 151C  
                             __ptext8 1014                               __ptext9 121C  
                           _T0CONbits 000FD5                   ?_grvGorevciyiBaslat 002A  
      timer0KesmeIsleyiciKur@isleyici 0038                               _kuyruk1 0026  
                end_of_initialization 1830                          grvOlustur@is 0038  
            __end_of_grvTikSayiminiAl 18A2                 __end_of_uckuyrukIlkle 1790  
        __size_of_portGorevciyiBaslat 0018                  __size_of_uckuyrukBos 002E  
                ??_grvGorevciyiBaslat 0048                  __end_of_gostergeTara 121C  
            uretici2@VAZGECIS_BAYRAGI 0045                               postdec2 000FDD  
             ?_timer0KesmeIsleyiciKur 0038                               postinc0 000FEE  
                             postinc1 000FE6                               postinc2 000FDE  
                          ??_uretici1 0043                            ??_uretici2 0043  
                       ?_uckuyrukDolu 0038            ?_gostergeDegerleriGuncelle 0042  
                 _uartRxKesmeIsleyici 0011        __end_of_timer0KesmeIsleyiciKur 18D2  
                   ?_sisOsilatorIlkle 002A                           ?_grvOlustur 0038  
                       __pidataCOMRAM 18DE                 uckuyrukKuyrukla@konum 0041  
               uckuyrukKuyrukla@sayim 003F                    ??_sisOsilatorIlkle 0038  
                  uckuyrukDolu@kuyruk 0038                        ??_uckuyrukDolu 0039  
                 start_initialization 1806           __end_of_grvTikKesmeIsleyici 18D8  
                  gostergeTara@tutucu 0042           __end_of_uckuyrukKuyruktanAl 16FE  
     gostergeDegerleriGuncelle@tutucu 0042                           __pbssCOMRAM 0001  
      __size_of_sisTimerKesmeIsleyici 001E              __end_of_uckuyrukKuyrukla 1690  
       __end_of_sisTimerKesmeIsleyici 1886                   uckuyrukKuyrukla@kap 0040  
                 __size_of_grvOlustur 007C                 __size_of_gostergeTara 0208  
              __size_of_sisTimerIlkle 0040                           uretici2@tek 004D  
                     _uckuyrukBos$598 0039                             __pintcode 0008  
                 _portGorevciyiBaslat 18A2                     __size_of_uretici1 00F2  
                   __size_of_uretici2 00F2                     _interruptYonetici 0008  
                         __smallconst 1000                    ?_interruptYonetici 002A  
               grvGorevciyiBaslat@gkb 004C                          _gostergeTara 1014  
                 ??_interruptYonetici 002A                     ?_grvTikSayiminiAl 0038  
                ?_portGorevciyiBaslat 002A                              _LATBbits 000F8A  
                __end_of_uckuyrukDolu 1806                              _PIE1bits 000F9D  
                  ??_grvTikSayiminiAl 003A                             _tikSayimi 000D  
                            _PIR1bits 000F9E          ??_sisTimerIsleyiciVarsayilan 002A  
                            _RCONbits 000FD0                     uckuyrukBos@kuyruk 0038  
           __end_of_interruptYonetici 00B2                         _sisTimerIlkle 1790  
         gostergeDegerleriGuncelle@s2 0005               __size_of_interruptIlkle 0004  
         ??_gostergeDegerleriGuncelle 0043                         ??_uckuyrukBos 0039  
 __size_of_sisTimerIsleyiciVarsayilan 0002                 ??_portGorevciyiBaslat 004D  
         __size_of_grvGorevciyiBaslat 0082                              __Hrparam 0000  
__end_ofgostergeTara@BCDdenOrtakAnoda 1012          gostergeTara@BCDdenOrtakAnoda 1001  
                            __Lrparam 0000                     uckuyrukIlkle@veri 0039  
             grvGorevciyiBaslat@durum 004B             uckuyrukKuyruktanAl@kuyruk 003B  
                        ??_grvOlustur 003A                           _gorevHavuzu 0060  
                      ?_sisTimerIlkle 003A                           _gorevSayimi 001A  
              __size_of_uckuyrukIlkle 0044                              __ptext10 1338  
                            __ptext11 142A                              __ptext20 18D2  
                            __ptext12 161A                              __ptext21 18DC  
                            __ptext13 17D0                              __ptext22 0000  
                            __ptext14 1690                              __ptext15 183A  
                            __ptext16 1886                              __ptext17 159E  
                            __ptext19 1868             __size_of_sisOsilatorIlkle 000E  
                         _intconYedek 001C                  grvGorevciyiBaslat@is 0048  
                       __size_of_main 004E                    __end_of_grvOlustur 161A  
                            _gosterge 0009                   __end_of_uckuyrukBos 1868  
           _gostergeDegerleriGuncelle 121C                           _tmr0OnDeger 001D  
                            int$flags 004E                 grvTikSayiminiAl@sayim 003A  
                            _uretici1 1338                              _uretici2 142A  
          __size_of_interruptYonetici 00AA                         grvOlustur@gkb 003D  
                          _INTCONbits 000FF2                      uckuyrukIlkle@kap 003A  
                   ?_uckuyrukKuyrukla 003D                   _timer0KesmeIsleyici 0015  
                  ??_uckuyrukKuyrukla 003F                 __size_of_uckuyrukDolu 0036  
                            intlevel2 0000                         _uckuyrukIlkle 174C  
                 grvGorevciyiBaslat@s 004A    __end_of_sisTimerIsleyiciVarsayilan 18DE  
          _sisTimerIsleyiciVarsayilan 18DC          __size_of_grvTikKesmeIsleyici 0006  
                     ??_sisTimerIlkle 003C          __size_of_uckuyrukKuyruktanAl 006E  
                       _kuyruk1Erisim 0018                 sisTimerIlkle@isleyici 003A  
                      _interruptIlkle 18D8                          _uckuyrukDolu 17D0  
               _sisTimerKesmeIsleyici 1868                           _uckuyrukBos 183A  
            ??_timer0KesmeIsleyiciKur 003A                        ?_uckuyrukIlkle 0038  
