

Microchip MPLAB XC8 Assembler V2.31 build 20201012212115 
                                                                                               Sun Jun 13 17:22:24 2021

Microchip MPLAB XC8 C Compiler v2.31 (Free license) build 20201012212115 Og9 
     1                           	processor	18F46K22
     2                           	fnconf	rparam,??,?,0
     3                           	pagewidth 120
     4                           	opt	flic
     5                           	psect	idataCOMRAM,global,class=CODE,delta=1,noexec
     6                           	psect	smallconst,global,reloc=2,class=SMALLCONST,delta=1,noexec
     7                           	psect	cinit,global,reloc=2,class=CODE,delta=1
     8                           	psect	bssCOMRAM,global,class=COMRAM,space=1,delta=1,lowdata,noexec
     9                           	psect	dataCOMRAM,global,class=COMRAM,space=1,delta=1,lowdata,noexec
    10                           	psect	cstackBANK0,global,class=BANK0,space=1,delta=1,lowdata,noexec
    11                           	psect	cstackCOMRAM,global,class=COMRAM,space=1,delta=1,lowdata,noexec
    12                           	psect	text0,global,reloc=2,class=CODE,delta=1
    13                           	psect	text1,global,reloc=2,class=CODE,delta=1
    14                           	psect	text2,global,reloc=2,class=CODE,delta=1
    15                           	psect	text3,global,reloc=2,class=CODE,delta=1
    16                           	psect	text4,global,reloc=2,class=CODE,delta=1
    17                           	psect	text5,global,reloc=2,class=CODE,delta=1
    18                           	psect	text6,global,reloc=2,class=CODE,delta=1
    19                           	psect	text7,global,reloc=2,class=CODE,delta=1
    20                           	psect	text8,global,reloc=2,class=CODE,delta=1
    21                           	psect	text9,global,reloc=2,class=CODE,delta=1
    22                           	psect	text10,global,reloc=2,class=CODE,delta=1
    23                           	psect	text11,global,reloc=2,class=CODE,delta=1
    24                           	psect	text12,global,reloc=2,class=CODE,delta=1
    25                           	psect	text13,global,reloc=2,class=CODE,delta=1,group=1
    26                           	psect	intcode,global,reloc=2,class=CODE,delta=1
    27                           	psect	text15,global,reloc=2,class=CODE,delta=1
    28                           	psect	text16,global,reloc=2,class=CODE,delta=1
    29                           	psect	text17,global,reloc=2,class=CODE,delta=1
    30                           	psect	intsave_regs,global,class=BIGRAM,space=1,delta=1,noexec
    31                           	psect	text18,global,reloc=2,class=CODE,delta=1
    32                           	psect	rparam,global,class=COMRAM,space=1,delta=1,noexec
    33                           	psect	temp,global,ovrld,common,class=COMRAM,space=1,delta=1
    34                           	psect	idloc,global,abs,ovrld,class=IDLOC,space=5,delta=1,noexec
    35                           	psect	config,global,abs,ovrld,class=CONFIG,space=4,delta=1,noexec
    36  0000                     
    37                           ; Version 2.20
    38                           ; Generated 05/05/2020 GMT
    39                           ; 
    40                           ; Copyright © 2020, Microchip Technology Inc. and its subsidiaries ("Microchip")
    41                           ; All rights reserved.
    42                           ; 
    43                           ; This software is developed by Microchip Technology Inc. and its subsidiaries ("Microch
      +                          ip").
    44                           ; 
    45                           ; Redistribution and use in source and binary forms, with or without modification, are
    46                           ; permitted provided that the following conditions are met:
    47                           ; 
    48                           ;     1. Redistributions of source code must retain the above copyright notice, this lis
      +                          t of
    49                           ;        conditions and the following disclaimer.
    50                           ; 
    51                           ;     2. Redistributions in binary form must reproduce the above copyright notice, this 
      +                          list
    52                           ;        of conditions and the following disclaimer in the documentation and/or other
    53                           ;        materials provided with the distribution.
    54                           ; 
    55                           ;     3. Microchip's name may not be used to endorse or promote products derived from th
      +                          is
    56                           ;        software without specific prior written permission.
    57                           ; 
    58                           ; THIS SOFTWARE IS PROVIDED BY MICROCHIP "AS IS" AND ANY EXPRESS OR IMPLIED WARRANTIES,
    59                           ; INCLUDING, BUT NOT LIMITED TO, THE IMPLIED WARRANTIES OF MERCHANTABILITY AND FITNESS F
      +                          OR
    60                           ; PURPOSE ARE DISCLAIMED.  IN NO EVENT SHALL MICROCHIP BE LIABLE FOR ANY DIRECT, INDIREC
      +                          T,
    61                           ; INCIDENTAL, SPECIAL, EXEMPLARY, OR CONSEQUENTIAL DAMAGES (INCLUDING BUT NOT LIMITED TO
    62                           ; PROCUREMENT OF SUBSTITUTE GOODS OR SERVICES; LOSS OF USE, DATA OR PROFITS; OR BUSINESS
    63                           ; INTERRUPTION) HOWSOEVER CAUSED AND ON ANY THEORY OF LIABILITY, WHETHER IN CONTRACT, ST
      +                          RICT
    64                           ; LIABILITY, OR TORT (INCLUDING NEGLIGENCE OR OTHERWISE) ARISING IN ANY WAY OUT OF THE U
      +                          SE OF
    65                           ; THIS SOFTWARE, EVEN IF ADVISED OF THE POSSIBILITY OF SUCH DAMAGE.
    66                           ; 
    67                           ; 
    68                           ; Code-generator required, PIC18F46K22 Definitions
    69                           ; 
    70                           ; SFR Addresses
    71  0000                     
    72                           	psect	idataCOMRAM
    73  0019A6                     __pidataCOMRAM:
    74                           	callstack 0
    75                           
    76                           ;initializer for _icerik
    77  0019A6  0A                 	db	10
    78                           
    79                           	psect	smallconst
    80  001000                     __psmallconst:
    81                           	callstack 0
    82  001000  00                 	db	0
    83  001001  0E                 	db	14
    84  001002                     __end_ofledCakarlama1@sonSira:
    85                           	callstack 0
    86  001002                     ledCakarlama1@sureler:
    87                           	callstack 0
    88  001002  0032               	dw	50
    89  001004  003C               	dw	60
    90  001006  0046               	dw	70
    91  001008  0050               	dw	80
    92  00100A  005A               	dw	90
    93  00100C  0064               	dw	100
    94  00100E  00C8               	dw	200
    95  001010  012C               	dw	300
    96  001012  0190               	dw	400
    97  001014  01F4               	dw	500
    98  001016  0258               	dw	600
    99  001018  02BC               	dw	700
   100  00101A  0320               	dw	800
   101  00101C  0384               	dw	900
   102  00101E  03E8               	dw	1000
   103  001020                     __end_ofledCakarlama1@sureler:
   104                           	callstack 0
   105  0000                     _ANSELD	set	3899
   106  0000                     _ANSELBbits	set	3897
   107  0000                     _TMR0	set	4054
   108  0000                     _TRISD	set	3989
   109  0000                     _LATD	set	3980
   110  0000                     _ADRESL	set	4035
   111  0000                     _ADRESH	set	4036
   112  0000                     _ADCON0bits	set	4034
   113  0000                     _TRISAbits	set	3986
   114  0000                     _ADCON1	set	4033
   115  0000                     _ADCON2	set	4032
   116  0000                     _PORTBbits	set	3969
   117  0000                     _TRISBbits	set	3987
   118  0000                     _LATBbits	set	3978
   119  0000                     _INTCON	set	4082
   120  0000                     _OSCTUNE	set	3995
   121  0000                     _OSCCON2	set	4050
   122  0000                     _OSCCON	set	4051
   123  0000                     _T0CONbits	set	4053
   124  0000                     _T0CON	set	4053
   125  0000                     _PIR1bits	set	3998
   126  0000                     _PIE1bits	set	3997
   127  0000                     _INTCONbits	set	4082
   128  0000                     _RCONbits	set	4048
   129  0000                     _TXIF	set	31988
   130  0000                     _TXIE	set	31980
   131  0000                     _RCIF	set	31989
   132  0000                     _TMR0IF	set	32658
   133  001020  00                 	db	0	; dummy byte at the end
   134  0000                     
   135                           ; #config settings
   136                           
   137                           	psect	cinit
   138  001920                     __pcinit:
   139                           	callstack 0
   140  001920                     start_initialization:
   141                           	callstack 0
   142  001920                     __initialization:
   143                           	callstack 0
   144                           
   145                           ; Initialize objects allocated to COMRAM (1 bytes)
   146                           ; load TBLPTR registers with __pidataCOMRAM
   147  001920  0EA6               	movlw	low __pidataCOMRAM
   148  001922  6EF6               	movwf	tblptrl,c
   149  001924  0E19               	movlw	high __pidataCOMRAM
   150  001926  6EF7               	movwf	tblptrh,c
   151  001928  0E00               	movlw	low (__pidataCOMRAM shr (0+16))
   152  00192A  6EF8               	movwf	tblptru,c
   153  00192C  0009               	tblrd		*+	;fetch initializer
   154  00192E  CFF5 F04B          	movff	tablat,__pdataCOMRAM
   155                           
   156                           ; Clear objects allocated to COMRAM (47 bytes)
   157  001932  EE00  F001         	lfsr	0,__pbssCOMRAM
   158  001936  0E2F               	movlw	47
   159  001938                     clear_0:
   160  001938  6AEE               	clrf	postinc0,c
   161  00193A  06E8               	decf	wreg,f,c
   162  00193C  E1FD               	bnz	clear_0
   163  00193E                     end_of_initialization:
   164                           	callstack 0
   165  00193E                     __end_of__initialization:
   166                           	callstack 0
   167  00193E  904C               	bcf	int$flags,0,c	;clear compiler interrupt flag (level 1)
   168  001940  924C               	bcf	int$flags,1,c	;clear compiler interrupt flag (level 2)
   169  001942  0100               	movlb	0
   170  001944  EF02  F00C         	goto	_main	;jump to C main() function
   171                           
   172                           	psect	bssCOMRAM
   173  000001                     __pbssCOMRAM:
   174                           	callstack 0
   175  000001                     icerikDegistirici@s5:
   176                           	callstack 0
   177  000001                     	ds	4
   178  000005                     karaSimsekHiziOkuma@s4:
   179                           	callstack 0
   180  000005                     	ds	4
   181  000009                     karaSimsek@s3:
   182                           	callstack 0
   183  000009                     	ds	4
   184  00000D                     ledCakarlama2@s2:
   185                           	callstack 0
   186  00000D                     	ds	4
   187  000011                     ledCakarlama1@s1:
   188                           	callstack 0
   189  000011                     	ds	4
   190  000015                     _karaSimsekHizi:
   191                           	callstack 0
   192  000015                     	ds	2
   193  000017                     _gercekDeger:
   194                           	callstack 0
   195  000017                     	ds	2
   196  000019                     _tikSayimi:
   197                           	callstack 0
   198  000019                     	ds	2
   199  00001B                     _sisTimerDisIsleyici:
   200                           	callstack 0
   201  00001B                     	ds	2
   202  00001D                     _uartRxKesmeIsleyici:
   203                           	callstack 0
   204  00001D                     	ds	2
   205  00001F                     _uartTxKesmeIsleyici:
   206                           	callstack 0
   207  00001F                     	ds	2
   208  000021                     _timer0KesmeIsleyici:
   209                           	callstack 0
   210  000021                     	ds	2
   211  000023                     karaSimsek@sola:
   212                           	callstack 0
   213  000023                     	ds	1
   214  000024                     ledCakarlama1@artir:
   215                           	callstack 0
   216  000024                     	ds	1
   217  000025                     ledCakarlama1@secici:
   218                           	callstack 0
   219  000025                     	ds	1
   220  000026                     _gostergeDegeriHesaplandi:
   221                           	callstack 0
   222  000026                     	ds	1
   223  000027                     _karasimsekHiziOkundu:
   224                           	callstack 0
   225  000027                     	ds	1
   226  000028                     _karasimsekGostergeDegeri:
   227                           	callstack 0
   228  000028                     	ds	1
   229  000029                     _tamponD:
   230                           	callstack 0
   231  000029                     	ds	1
   232  00002A                     _karasimsek:
   233                           	callstack 0
   234  00002A                     	ds	1
   235  00002B                     _icerikDegisti:
   236                           	callstack 0
   237  00002B                     	ds	1
   238  00002C                     	ds	1
   239  00002D                     _intconYedek@portmacro$F371:
   240                           	callstack 0
   241  00002D                     	ds	1
   242  00002E                     	ds	1
   243  00002F                     	ds	1
   244                           
   245                           	psect	dataCOMRAM
   246  00004B                     __pdataCOMRAM:
   247                           	callstack 0
   248  00004B                     _icerik:
   249                           	callstack 0
   250  00004B                     	ds	1
   251                           
   252                           	psect	cstackBANK0
   253  000060                     __pcstackBANK0:
   254                           	callstack 0
   255  000060                     main@ig:
   256                           	callstack 0
   257                           
   258                           ; 2 bytes @ 0x0
   259  000060                     	ds	2
   260  000062                     main@lc1:
   261                           	callstack 0
   262                           
   263                           ; 2 bytes @ 0x2
   264  000062                     	ds	2
   265  000064                     main@ksmsk:
   266                           	callstack 0
   267                           
   268                           ; 2 bytes @ 0x4
   269  000064                     	ds	2
   270  000066                     main@kho:
   271                           	callstack 0
   272                           
   273                           ; 2 bytes @ 0x6
   274  000066                     	ds	2
   275  000068                     main@gdh:
   276                           	callstack 0
   277                           
   278                           ; 2 bytes @ 0x8
   279  000068                     	ds	2
   280  00006A                     main@id:
   281                           	callstack 0
   282                           
   283                           ; 2 bytes @ 0xA
   284  00006A                     	ds	2
   285  00006C                     main@lc2:
   286                           	callstack 0
   287                           
   288                           ; 2 bytes @ 0xC
   289  00006C                     	ds	2
   290                           
   291                           	psect	cstackCOMRAM
   292  000030                     __pcstackCOMRAM:
   293                           	callstack 0
   294  000030                     ??_interruptYonetici:
   295  000030                     
   296                           ; 1 bytes @ 0x0
   297  000030                     	ds	14
   298  00003E                     ?_grvTikSayiminiAl:
   299                           	callstack 0
   300  00003E                     ?___lwdiv:
   301                           	callstack 0
   302  00003E                     icerikGuncelleyici@tutucu:
   303                           	callstack 0
   304  00003E                     timer0KesmeIsleyiciKur@isleyici:
   305                           	callstack 0
   306  00003E                     ___lwdiv@dividend:
   307                           	callstack 0
   308                           
   309                           ; 2 bytes @ 0xE
   310  00003E                     	ds	1
   311  00003F                     ??_icerikGuncelleyici:
   312                           
   313                           ; 1 bytes @ 0xF
   314  00003F                     	ds	1
   315  000040                     sisTimerIlkle@isleyici:
   316                           	callstack 0
   317  000040                     grvTikSayiminiAl@sayim:
   318                           	callstack 0
   319  000040                     ___lwdiv@divisor:
   320                           	callstack 0
   321                           
   322                           ; 2 bytes @ 0x10
   323  000040                     	ds	2
   324  000042                     ledCakarlama1@tutucu:
   325                           	callstack 0
   326  000042                     ledCakarlama2@tutucu:
   327                           	callstack 0
   328  000042                     karaSimsek@tutucu:
   329                           	callstack 0
   330  000042                     icerikDegistirici@tutucu:
   331                           	callstack 0
   332  000042                     ___lwdiv@counter:
   333                           	callstack 0
   334                           
   335                           ; 1 bytes @ 0x12
   336  000042                     	ds	1
   337  000043                     ??_ledCakarlama1:
   338  000043                     ??_ledCakarlama2:
   339  000043                     ??_karaSimsek:
   340  000043                     ??_icerikDegistirici:
   341  000043                     ___lwdiv@quotient:
   342                           	callstack 0
   343                           
   344                           ; 2 bytes @ 0x13
   345  000043                     	ds	2
   346  000045                     karaSimsekHiziOkuma@tutucu:
   347                           	callstack 0
   348  000045                     gostergeDegeriHesapla@tutucu:
   349                           	callstack 0
   350                           
   351                           ; 1 bytes @ 0x15
   352  000045                     	ds	1
   353  000046                     ??_karaSimsekHiziOkuma:
   354  000046                     ??_gostergeDegeriHesapla:
   355  000046                     _icerikDegistirici$907:
   356                           	callstack 0
   357                           
   358                           ; 2 bytes @ 0x16
   359  000046                     	ds	3
   360  000049                     karaSimsekHiziOkuma@sonuc:
   361                           	callstack 0
   362                           
   363                           ; 2 bytes @ 0x19
   364  000049                     	ds	2
   365  00004B                     
   366                           ; 1 bytes @ 0x1B
   367 ;;
   368 ;;Main: autosize = 0, tempsize = 0, incstack = 0, save=0
   369 ;;
   370 ;; *************** function _main *****************
   371 ;; Defined at:
   372 ;;		line 329 in file "ornek2.c"
   373 ;; Parameters:    Size  Location     Type
   374 ;;		None
   375 ;; Auto vars:     Size  Location     Type
   376 ;;  lc2             2   12[BANK0 ] struct .
   377 ;;  id              2   10[BANK0 ] struct .
   378 ;;  gdh             2    8[BANK0 ] struct .
   379 ;;  kho             2    6[BANK0 ] struct .
   380 ;;  ksmsk           2    4[BANK0 ] struct .
   381 ;;  lc1             2    2[BANK0 ] struct .
   382 ;;  ig              2    0[BANK0 ] struct .
   383 ;; Return value:  Size  Location     Type
   384 ;;                  1    wreg      void 
   385 ;; Registers used:
   386 ;;		wreg, fsr2l, fsr2h, status,2, status,0, tblptrl, tblptrh, tblptru, prodl, prodh, cstack
   387 ;; Tracked objects:
   388 ;;		On entry : 0/0
   389 ;;		On exit  : 0/0
   390 ;;		Unchanged: 0/0
   391 ;; Data sizes:     COMRAM   BANK0   BANK1   BANK2   BANK3   BANK4   BANK5   BANK6   BANK7   BANK8   BANK9  BANK10  BANK1
      +1  BANK12  BANK13  BANK14  BANK15
   392 ;;      Params:         0       0       0       0       0       0       0       0       0       0       0       0       
      +0       0       0       0       0
   393 ;;      Locals:         0      14       0       0       0       0       0       0       0       0       0       0       
      +0       0       0       0       0
   394 ;;      Temps:          0       0       0       0       0       0       0       0       0       0       0       0       
      +0       0       0       0       0
   395 ;;      Totals:         0      14       0       0       0       0       0       0       0       0       0       0       
      +0       0       0       0       0
   396 ;;Total ram usage:       14 bytes
   397 ;; Hardware stack levels required when called:    5
   398 ;; This function calls:
   399 ;;		_gostergeDegeriHesapla
   400 ;;		_icerikDegistirici
   401 ;;		_icerikGuncelleyici
   402 ;;		_interruptIlkle
   403 ;;		_karaSimsek
   404 ;;		_karaSimsekHiziOkuma
   405 ;;		_ledCakarlama1
   406 ;;		_ledCakarlama2
   407 ;;		_sisOsilatorIlkle
   408 ;;		_sisTimerIlkle
   409 ;; This function is called by:
   410 ;;		Startup code after reset
   411 ;; This function uses a non-reentrant model
   412 ;;
   413                           
   414                           	psect	text0
   415  001804                     __ptext0:
   416                           	callstack 0
   417  001804                     _main:
   418                           	callstack 26
   419                           
   420                           ;ornek2.c: 331:     sisOsilatorIlkle();
   421                           
   422                           ;incstack = 0
   423  001804  ECC1  F00C         	call	_sisOsilatorIlkle	;wreg free
   424                           
   425                           ;ornek2.c: 334:  interruptIlkle();
   426  001808  ECD0  F00C         	call	_interruptIlkle	;wreg free
   427                           
   428                           ;ornek2.c: 337:  sisTimerIlkle(grvTikKesmeIsleyici);
   429  00180C  0E9A               	movlw	low _grvTikKesmeIsleyici
   430  00180E  6E40               	movwf	sisTimerIlkle@isleyici^0,c
   431  001810  0E19               	movlw	high _grvTikKesmeIsleyici
   432  001812  6E41               	movwf	(sisTimerIlkle@isleyici+1)^0,c
   433  001814  EC70  F00C         	call	_sisTimerIlkle	;wreg free
   434                           
   435                           ;ornek2.c: 340:  INTCONbits.GIEH = 1;;
   436  001818  8EF2               	bsf	242,7,c	;volatile
   437                           
   438                           ;ornek2.c: 343:     gorev_t lc1, lc2, ksmsk, kho, gdh, ig, id;;ornek2.c: 345:     ( (gor
      +                          ev_t*) &lc1 )->sn = 0;
   439  00181A  0E00               	movlw	0
   440  00181C  0100               	movlb	0	; () banked
   441  00181E  6F63               	movwf	(main@lc1+1)& (0+255),b
   442  001820  0E00               	movlw	0
   443  001822  6F62               	movwf	main@lc1& (0+255),b
   444                           
   445                           ; BSR set to: 0
   446                           ;ornek2.c: 346:     ( (gorev_t*) &lc2 )->sn = 0;
   447  001824  0E00               	movlw	0
   448  001826  6F6D               	movwf	(main@lc2+1)& (0+255),b
   449  001828  0E00               	movlw	0
   450  00182A  6F6C               	movwf	main@lc2& (0+255),b
   451                           
   452                           ; BSR set to: 0
   453                           ;ornek2.c: 347:     ( (gorev_t*) &ksmsk )->sn = 0;
   454  00182C  0E00               	movlw	0
   455  00182E  6F65               	movwf	(main@ksmsk+1)& (0+255),b
   456  001830  0E00               	movlw	0
   457  001832  6F64               	movwf	main@ksmsk& (0+255),b
   458                           
   459                           ; BSR set to: 0
   460                           ;ornek2.c: 348:     ( (gorev_t*) &kho )->sn = 0;
   461  001834  0E00               	movlw	0
   462  001836  6F67               	movwf	(main@kho+1)& (0+255),b
   463  001838  0E00               	movlw	0
   464  00183A  6F66               	movwf	main@kho& (0+255),b
   465                           
   466                           ; BSR set to: 0
   467                           ;ornek2.c: 349:     ( (gorev_t*) &gdh )->sn = 0;
   468  00183C  0E00               	movlw	0
   469  00183E  6F69               	movwf	(main@gdh+1)& (0+255),b
   470  001840  0E00               	movlw	0
   471  001842  6F68               	movwf	main@gdh& (0+255),b
   472                           
   473                           ; BSR set to: 0
   474                           ;ornek2.c: 350:     ( (gorev_t*) &ig )->sn = 0;
   475  001844  0E00               	movlw	0
   476  001846  6F61               	movwf	(main@ig+1)& (0+255),b
   477  001848  0E00               	movlw	0
   478  00184A  6F60               	movwf	main@ig& (0+255),b
   479                           
   480                           ; BSR set to: 0
   481                           ;ornek2.c: 351:     ( (gorev_t*) &id )->sn = 0;
   482  00184C  0E00               	movlw	0
   483  00184E  6F6B               	movwf	(main@id+1)& (0+255),b
   484  001850  0E00               	movlw	0
   485  001852  6F6A               	movwf	main@id& (0+255),b
   486  001854                     l3072:
   487                           
   488                           ;ornek2.c: 355:         ledCakarlama1(&lc1);
   489  001854  0E62               	movlw	low main@lc1
   490  001856  6E42               	movwf	ledCakarlama1@tutucu^0,c
   491  001858  EC40  F009         	call	_ledCakarlama1	;wreg free
   492                           
   493                           ;ornek2.c: 356:         ledCakarlama2(&lc2);
   494  00185C  0E6C               	movlw	low main@lc2
   495  00185E  6E42               	movwf	ledCakarlama2@tutucu^0,c
   496  001860  EC11  F008         	call	_ledCakarlama2	;wreg free
   497                           
   498                           ;ornek2.c: 357:         karaSimsek(&ksmsk);
   499  001864  0E64               	movlw	low main@ksmsk
   500  001866  6E42               	movwf	karaSimsek@tutucu^0,c
   501  001868  EC49  F00B         	call	_karaSimsek	;wreg free
   502                           
   503                           ;ornek2.c: 358:         karaSimsekHiziOkuma(&kho);
   504  00186C  0E66               	movlw	low main@kho
   505  00186E  6E45               	movwf	karaSimsekHiziOkuma@tutucu^0,c
   506  001870  ECE7  F009         	call	_karaSimsekHiziOkuma	;wreg free
   507                           
   508                           ;ornek2.c: 359:         gostergeDegeriHesapla(&gdh);
   509  001874  0E68               	movlw	low main@gdh
   510  001876  6E45               	movwf	gostergeDegeriHesapla@tutucu^0,c
   511  001878  ECB4  F00B         	call	_gostergeDegeriHesapla	;wreg free
   512                           
   513                           ;ornek2.c: 360:         icerikGuncelleyici(&ig);
   514  00187C  0E60               	movlw	low main@ig
   515  00187E  6E3E               	movwf	icerikGuncelleyici@tutucu^0,c
   516  001880  EC65  F00A         	call	_icerikGuncelleyici	;wreg free
   517                           
   518                           ;ornek2.c: 361:         icerikDegistirici(&id);
   519  001884  0E6A               	movlw	low main@id
   520  001886  6E42               	movwf	icerikDegistirici@tutucu^0,c
   521  001888  ECDA  F00A         	call	_icerikDegistirici	;wreg free
   522  00188C  D7E3               	goto	l3072
   523  00188E                     __end_of_main:
   524                           	callstack 0
   525                           
   526 ;; *************** function _sisTimerIlkle *****************
   527 ;; Defined at:
   528 ;;		line 134 in file "sistimer.c"
   529 ;; Parameters:    Size  Location     Type
   530 ;;  isleyici        2   16[COMRAM] PTR FTN()void 
   531 ;;		 -> grvTikKesmeIsleyici(1), 
   532 ;; Auto vars:     Size  Location     Type
   533 ;;		None
   534 ;; Return value:  Size  Location     Type
   535 ;;                  1    wreg      void 
   536 ;; Registers used:
   537 ;;		wreg, status,2, status,0, cstack
   538 ;; Tracked objects:
   539 ;;		On entry : 0/0
   540 ;;		On exit  : 0/0
   541 ;;		Unchanged: 0/0
   542 ;; Data sizes:     COMRAM   BANK0   BANK1   BANK2   BANK3   BANK4   BANK5   BANK6   BANK7   BANK8   BANK9  BANK10  BANK1
      +1  BANK12  BANK13  BANK14  BANK15
   543 ;;      Params:         2       0       0       0       0       0       0       0       0       0       0       0       
      +0       0       0       0       0
   544 ;;      Locals:         0       0       0       0       0       0       0       0       0       0       0       0       
      +0       0       0       0       0
   545 ;;      Temps:          0       0       0       0       0       0       0       0       0       0       0       0       
      +0       0       0       0       0
   546 ;;      Totals:         2       0       0       0       0       0       0       0       0       0       0       0       
      +0       0       0       0       0
   547 ;;Total ram usage:        2 bytes
   548 ;; Hardware stack levels used:    1
   549 ;; Hardware stack levels required when called:    4
   550 ;; This function calls:
   551 ;;		_timer0KesmeIsleyiciKur
   552 ;; This function is called by:
   553 ;;		_main
   554 ;; This function uses a non-reentrant model
   555 ;;
   556                           
   557                           	psect	text1
   558  0018E0                     __ptext1:
   559                           	callstack 0
   560  0018E0                     _sisTimerIlkle:
   561                           	callstack 26
   562                           
   563                           ;sistimer.c: 135:     T0CON = 0;
   564                           
   565                           ;incstack = 0
   566  0018E0  0E00               	movlw	0
   567  0018E2  6ED5               	movwf	213,c	;volatile
   568                           
   569                           ;sistimer.c: 137:     T0CONbits.T08BIT = 0;
   570  0018E4  9CD5               	bcf	213,6,c	;volatile
   571                           
   572                           ;sistimer.c: 142:     T0CONbits.T0CS = 0;
   573  0018E6  9AD5               	bcf	213,5,c	;volatile
   574                           
   575                           ;sistimer.c: 145:     T0CONbits.PSA = 1;
   576  0018E8  86D5               	bsf	213,3,c	;volatile
   577                           
   578                           ;sistimer.c: 154:     TMR0 = (uint16_t) ((uint16_t)((65536)-((( (1000) - ( ( ( 52 ) * ( 
      +                          ( 1 * ( 100 ) ) / ( (16000000 / 4 ) / 1000000 ) ) ) / ( 100 ) ) )* (16000000/1000000))/(
      +                          4*(1)))-1));
   579  0018EA  0EF0               	movlw	240
   580  0018EC  6ED7               	movwf	215,c	;volatile
   581  0018EE  0E93               	movlw	147
   582  0018F0  6ED6               	movwf	214,c	;volatile
   583                           
   584                           ;sistimer.c: 160:     sisTimerDisIsleyici = isleyici == ((void*)0) ? sisTimerIsleyiciVar
      +                          sayilan : isleyici;
   585  0018F2  5040               	movf	sisTimerIlkle@isleyici^0,w,c
   586  0018F4  1041               	iorwf	(sisTimerIlkle@isleyici+1)^0,w,c
   587  0018F6  B4D8               	btfsc	status,2,c
   588  0018F8  D005               	goto	l2608
   589  0018FA  C040  F01B         	movff	sisTimerIlkle@isleyici,_sisTimerDisIsleyici
   590  0018FE  C041  F01C         	movff	sisTimerIlkle@isleyici+1,_sisTimerDisIsleyici+1
   591  001902  D004               	goto	l2610
   592  001904                     l2608:
   593  001904  0EA4               	movlw	low _sisTimerIsleyiciVarsayilan
   594  001906  6E1B               	movwf	_sisTimerDisIsleyici^0,c
   595  001908  0E19               	movlw	high _sisTimerIsleyiciVarsayilan
   596  00190A  6E1C               	movwf	(_sisTimerDisIsleyici+1)^0,c
   597  00190C                     l2610:
   598                           
   599                           ;sistimer.c: 162:     timer0KesmeIsleyiciKur(sisTimerKesmeIsleyici);
   600  00190C  0E48               	movlw	low _sisTimerKesmeIsleyici
   601  00190E  6E3E               	movwf	timer0KesmeIsleyiciKur@isleyici^0,c
   602  001910  0E19               	movlw	high _sisTimerKesmeIsleyici
   603  001912  6E3F               	movwf	(timer0KesmeIsleyiciKur@isleyici+1)^0,c
   604  001914  ECC8  F00C         	call	_timer0KesmeIsleyiciKur	;wreg free
   605                           
   606                           ;sistimer.c: 165:     INTCONbits.TMR0IF = 0;
   607  001918  94F2               	bcf	242,2,c	;volatile
   608                           
   609                           ;sistimer.c: 166:     INTCONbits.TMR0IE = 1;
   610  00191A  8AF2               	bsf	242,5,c	;volatile
   611                           
   612                           ;sistimer.c: 169:     T0CONbits.TMR0ON = 1;
   613  00191C  8ED5               	bsf	213,7,c	;volatile
   614  00191E  0012               	return		;funcret
   615  001920                     __end_of_sisTimerIlkle:
   616                           	callstack 0
   617                           
   618 ;; *************** function _timer0KesmeIsleyiciKur *****************
   619 ;; Defined at:
   620 ;;		line 38 in file "interrupt.c"
   621 ;; Parameters:    Size  Location     Type
   622 ;;  isleyici        2   14[COMRAM] PTR FTN()void 
   623 ;;		 -> sisTimerKesmeIsleyici(1), 
   624 ;; Auto vars:     Size  Location     Type
   625 ;;		None
   626 ;; Return value:  Size  Location     Type
   627 ;;                  1    wreg      void 
   628 ;; Registers used:
   629 ;;		wreg, status,2, status,0
   630 ;; Tracked objects:
   631 ;;		On entry : 0/0
   632 ;;		On exit  : 0/0
   633 ;;		Unchanged: 0/0
   634 ;; Data sizes:     COMRAM   BANK0   BANK1   BANK2   BANK3   BANK4   BANK5   BANK6   BANK7   BANK8   BANK9  BANK10  BANK1
      +1  BANK12  BANK13  BANK14  BANK15
   635 ;;      Params:         2       0       0       0       0       0       0       0       0       0       0       0       
      +0       0       0       0       0
   636 ;;      Locals:         0       0       0       0       0       0       0       0       0       0       0       0       
      +0       0       0       0       0
   637 ;;      Temps:          0       0       0       0       0       0       0       0       0       0       0       0       
      +0       0       0       0       0
   638 ;;      Totals:         2       0       0       0       0       0       0       0       0       0       0       0       
      +0       0       0       0       0
   639 ;;Total ram usage:        2 bytes
   640 ;; Hardware stack levels used:    1
   641 ;; Hardware stack levels required when called:    3
   642 ;; This function calls:
   643 ;;		Nothing
   644 ;; This function is called by:
   645 ;;		_sisTimerIlkle
   646 ;; This function uses a non-reentrant model
   647 ;;
   648                           
   649                           	psect	text2
   650  001990                     __ptext2:
   651                           	callstack 0
   652  001990                     _timer0KesmeIsleyiciKur:
   653                           	callstack 26
   654                           
   655                           ;interrupt.c: 39:     timer0KesmeIsleyici = isleyici;
   656                           
   657                           ;incstack = 0
   658  001990  C03E  F021         	movff	timer0KesmeIsleyiciKur@isleyici,_timer0KesmeIsleyici
   659  001994  C03F  F022         	movff	timer0KesmeIsleyiciKur@isleyici+1,_timer0KesmeIsleyici+1
   660  001998  0012               	return		;funcret
   661  00199A                     __end_of_timer0KesmeIsleyiciKur:
   662                           	callstack 0
   663                           
   664 ;; *************** function _sisOsilatorIlkle *****************
   665 ;; Defined at:
   666 ;;		line 27 in file "osilator.c"
   667 ;; Parameters:    Size  Location     Type
   668 ;;		None
   669 ;; Auto vars:     Size  Location     Type
   670 ;;		None
   671 ;; Return value:  Size  Location     Type
   672 ;;                  1    wreg      void 
   673 ;; Registers used:
   674 ;;		wreg, status,2
   675 ;; Tracked objects:
   676 ;;		On entry : 0/0
   677 ;;		On exit  : 0/0
   678 ;;		Unchanged: 0/0
   679 ;; Data sizes:     COMRAM   BANK0   BANK1   BANK2   BANK3   BANK4   BANK5   BANK6   BANK7   BANK8   BANK9  BANK10  BANK1
      +1  BANK12  BANK13  BANK14  BANK15
   680 ;;      Params:         0       0       0       0       0       0       0       0       0       0       0       0       
      +0       0       0       0       0
   681 ;;      Locals:         0       0       0       0       0       0       0       0       0       0       0       0       
      +0       0       0       0       0
   682 ;;      Temps:          0       0       0       0       0       0       0       0       0       0       0       0       
      +0       0       0       0       0
   683 ;;      Totals:         0       0       0       0       0       0       0       0       0       0       0       0       
      +0       0       0       0       0
   684 ;;Total ram usage:        0 bytes
   685 ;; Hardware stack levels used:    1
   686 ;; Hardware stack levels required when called:    3
   687 ;; This function calls:
   688 ;;		Nothing
   689 ;; This function is called by:
   690 ;;		_main
   691 ;; This function uses a non-reentrant model
   692 ;;
   693                           
   694                           	psect	text3
   695  001982                     __ptext3:
   696                           	callstack 0
   697  001982                     _sisOsilatorIlkle:
   698                           	callstack 27
   699                           
   700                           ;osilator.c: 29:     OSCCON = 0b01110011;
   701                           
   702                           ;incstack = 0
   703  001982  0E73               	movlw	115
   704  001984  6ED3               	movwf	211,c	;volatile
   705                           
   706                           ;osilator.c: 31:     OSCCON2 = 0x04;
   707  001986  0E04               	movlw	4
   708  001988  6ED2               	movwf	210,c	;volatile
   709                           
   710                           ;osilator.c: 33:     OSCTUNE = 0x00;
   711  00198A  0E00               	movlw	0
   712  00198C  6E9B               	movwf	155,c	;volatile
   713  00198E  0012               	return		;funcret
   714  001990                     __end_of_sisOsilatorIlkle:
   715                           	callstack 0
   716                           
   717 ;; *************** function _ledCakarlama2 *****************
   718 ;; Defined at:
   719 ;;		line 122 in file "ornek2.c"
   720 ;; Parameters:    Size  Location     Type
   721 ;;  tutucu          1   18[COMRAM] PTR void 
   722 ;;		 -> main@lc2(2), 
   723 ;; Auto vars:     Size  Location     Type
   724 ;;  VAZGECIS_BAY    1    0        unsigned char 
   725 ;; Return value:  Size  Location     Type
   726 ;;                  1    wreg      unsigned char 
   727 ;; Registers used:
   728 ;;		wreg, fsr2l, fsr2h, status,2, status,0, cstack
   729 ;; Tracked objects:
   730 ;;		On entry : 0/0
   731 ;;		On exit  : 0/0
   732 ;;		Unchanged: 0/0
   733 ;; Data sizes:     COMRAM   BANK0   BANK1   BANK2   BANK3   BANK4   BANK5   BANK6   BANK7   BANK8   BANK9  BANK10  BANK1
      +1  BANK12  BANK13  BANK14  BANK15
   734 ;;      Params:         1       0       0       0       0       0       0       0       0       0       0       0       
      +0       0       0       0       0
   735 ;;      Locals:         1       0       0       0       0       0       0       0       0       0       0       0       
      +0       0       0       0       0
   736 ;;      Temps:          2       0       0       0       0       0       0       0       0       0       0       0       
      +0       0       0       0       0
   737 ;;      Totals:         4       0       0       0       0       0       0       0       0       0       0       0       
      +0       0       0       0       0
   738 ;;Total ram usage:        4 bytes
   739 ;; Hardware stack levels used:    1
   740 ;; Hardware stack levels required when called:    4
   741 ;; This function calls:
   742 ;;		_grvTikSayiminiAl
   743 ;; This function is called by:
   744 ;;		_main
   745 ;; This function uses a non-reentrant model
   746 ;;
   747                           
   748                           	psect	text4
   749  001022                     __ptext4:
   750                           	callstack 0
   751  001022                     _ledCakarlama2:
   752                           	callstack 26
   753                           
   754                           ;incstack = 0
   755  001022  D109               	goto	l2764
   756  001024                     l196:
   757                           
   758                           ;ornek2.c: 125:  static sure_t s2;;ornek2.c: 128:  LATBbits.LATB5 = 0;
   759  001024  9A8A               	bcf	138,5,c	;volatile
   760                           
   761                           ;ornek2.c: 129:  ANSELBbits.ANSB5 = 0;
   762  001026  010F               	movlb	15	; () banked
   763  001028  9B39               	bcf	57,5,b	;volatile
   764                           
   765                           ;ornek2.c: 130:  TRISBbits.TRISB5 = 0;
   766  00102A  9A93               	bcf	147,5,c	;volatile
   767  00102C                     l2680:
   768                           
   769                           ;ornek2.c: 134:   PORTBbits.RB5 = !PORTBbits.RB5;
   770  00102C  BA81               	btfsc	129,5,c	;volatile
   771  00102E  D003               	goto	u1260
   772  001030  6A43               	clrf	??_ledCakarlama2^0,c
   773  001032  2A43               	incf	??_ledCakarlama2^0,f,c
   774  001034  D001               	goto	u1278
   775  001036                     u1260:
   776  001036  6A43               	clrf	??_ledCakarlama2^0,c
   777  001038                     u1278:
   778  001038  3A43               	swapf	??_ledCakarlama2^0,f,c
   779  00103A  4643               	rlncf	??_ledCakarlama2^0,f,c
   780  00103C  5081               	movf	129,w,c	;volatile
   781  00103E  1843               	xorwf	??_ledCakarlama2^0,w,c
   782  001040  0BDF               	andlw	-33
   783  001042  1843               	xorwf	??_ledCakarlama2^0,w,c
   784  001044  6E81               	movwf	129,c	;volatile
   785                           
   786                           ;ornek2.c: 136:   ( (sure_t*) &s2 )->kacTik = (50u / (1000u / 1000u)); ( (sure_t*) &s2 )
      +                          ->baslangic = grvTikSayiminiAl(); ( (gorev_t*) tutucu )->sn = 136; case 136:; if(!(( (gr
      +                          vTikSayiminiAl() - ( (sure_t*) &s2 )->baslangic) >= ( (sure_t*) &s2 )->kacTik ))){ retur
      +                          n 0; };
   787  001046  0E00               	movlw	0
   788  001048  6E10               	movwf	(ledCakarlama2@s2+3)^0,c
   789  00104A  0E32               	movlw	50
   790  00104C  6E0F               	movwf	(ledCakarlama2@s2+2)^0,c
   791  00104E  ECB3  F00C         	call	_grvTikSayiminiAl	;wreg free
   792  001052  C03E  F00D         	movff	?_grvTikSayiminiAl,ledCakarlama2@s2
   793  001056  C03F  F00E         	movff	?_grvTikSayiminiAl+1,ledCakarlama2@s2+1
   794  00105A  5042               	movf	ledCakarlama2@tutucu^0,w,c
   795  00105C  6ED9               	movwf	fsr2l,c
   796  00105E  6ADA               	clrf	fsr2h,c
   797  001060  0E88               	movlw	136
   798  001062  6EDE               	movwf	postinc2,c
   799  001064  0E00               	movlw	0
   800  001066  6EDD               	movwf	postdec2,c
   801  001068                     l2688:
   802  001068  ECB3  F00C         	call	_grvTikSayiminiAl	;wreg free
   803  00106C  500D               	movf	ledCakarlama2@s2^0,w,c
   804  00106E  5E3E               	subwf	?_grvTikSayiminiAl^0,f,c
   805  001070  500E               	movf	(ledCakarlama2@s2+1)^0,w,c
   806  001072  5A3F               	subwfb	(?_grvTikSayiminiAl+1)^0,f,c
   807  001074  500F               	movf	(ledCakarlama2@s2+2)^0,w,c
   808  001076  5C3E               	subwf	?_grvTikSayiminiAl^0,w,c
   809  001078  5010               	movf	(ledCakarlama2@s2+3)^0,w,c
   810  00107A  583F               	subwfb	(?_grvTikSayiminiAl+1)^0,w,c
   811  00107C  A0D8               	btfss	status,0,c
   812  00107E  0012               	return	
   813                           
   814                           ;ornek2.c: 138:   PORTBbits.RB5 = !PORTBbits.RB5;
   815  001080  BA81               	btfsc	129,5,c	;volatile
   816  001082  D003               	goto	u1290
   817  001084  6A43               	clrf	??_ledCakarlama2^0,c
   818  001086  2A43               	incf	??_ledCakarlama2^0,f,c
   819  001088  D001               	goto	u1308
   820  00108A                     u1290:
   821  00108A  6A43               	clrf	??_ledCakarlama2^0,c
   822  00108C                     u1308:
   823  00108C  3A43               	swapf	??_ledCakarlama2^0,f,c
   824  00108E  4643               	rlncf	??_ledCakarlama2^0,f,c
   825  001090  5081               	movf	129,w,c	;volatile
   826  001092  1843               	xorwf	??_ledCakarlama2^0,w,c
   827  001094  0BDF               	andlw	-33
   828  001096  1843               	xorwf	??_ledCakarlama2^0,w,c
   829  001098  6E81               	movwf	129,c	;volatile
   830                           
   831                           ;ornek2.c: 140:   ( (sure_t*) &s2 )->kacTik = (50u / (1000u / 1000u)); ( (sure_t*) &s2 )
      +                          ->baslangic = grvTikSayiminiAl(); ( (gorev_t*) tutucu )->sn = 140; case 140:; if(!(( (gr
      +                          vTikSayiminiAl() - ( (sure_t*) &s2 )->baslangic) >= ( (sure_t*) &s2 )->kacTik ))){ retur
      +                          n 0; };
   832  00109A  0E00               	movlw	0
   833  00109C  6E10               	movwf	(ledCakarlama2@s2+3)^0,c
   834  00109E  0E32               	movlw	50
   835  0010A0  6E0F               	movwf	(ledCakarlama2@s2+2)^0,c
   836  0010A2  ECB3  F00C         	call	_grvTikSayiminiAl	;wreg free
   837  0010A6  C03E  F00D         	movff	?_grvTikSayiminiAl,ledCakarlama2@s2
   838  0010AA  C03F  F00E         	movff	?_grvTikSayiminiAl+1,ledCakarlama2@s2+1
   839  0010AE  5042               	movf	ledCakarlama2@tutucu^0,w,c
   840  0010B0  6ED9               	movwf	fsr2l,c
   841  0010B2  6ADA               	clrf	fsr2h,c
   842  0010B4  0E8C               	movlw	140
   843  0010B6  6EDE               	movwf	postinc2,c
   844  0010B8  0E00               	movlw	0
   845  0010BA  6EDD               	movwf	postdec2,c
   846  0010BC                     l2700:
   847  0010BC  ECB3  F00C         	call	_grvTikSayiminiAl	;wreg free
   848  0010C0  500D               	movf	ledCakarlama2@s2^0,w,c
   849  0010C2  5E3E               	subwf	?_grvTikSayiminiAl^0,f,c
   850  0010C4  500E               	movf	(ledCakarlama2@s2+1)^0,w,c
   851  0010C6  5A3F               	subwfb	(?_grvTikSayiminiAl+1)^0,f,c
   852  0010C8  500F               	movf	(ledCakarlama2@s2+2)^0,w,c
   853  0010CA  5C3E               	subwf	?_grvTikSayiminiAl^0,w,c
   854  0010CC  5010               	movf	(ledCakarlama2@s2+3)^0,w,c
   855  0010CE  583F               	subwfb	(?_grvTikSayiminiAl+1)^0,w,c
   856  0010D0  A0D8               	btfss	status,0,c
   857  0010D2  0012               	return	
   858                           
   859                           ;ornek2.c: 142:   PORTBbits.RB5 = !PORTBbits.RB5;
   860  0010D4  BA81               	btfsc	129,5,c	;volatile
   861  0010D6  D003               	goto	u1320
   862  0010D8  6A43               	clrf	??_ledCakarlama2^0,c
   863  0010DA  2A43               	incf	??_ledCakarlama2^0,f,c
   864  0010DC  D001               	goto	u1338
   865  0010DE                     u1320:
   866  0010DE  6A43               	clrf	??_ledCakarlama2^0,c
   867  0010E0                     u1338:
   868  0010E0  3A43               	swapf	??_ledCakarlama2^0,f,c
   869  0010E2  4643               	rlncf	??_ledCakarlama2^0,f,c
   870  0010E4  5081               	movf	129,w,c	;volatile
   871  0010E6  1843               	xorwf	??_ledCakarlama2^0,w,c
   872  0010E8  0BDF               	andlw	-33
   873  0010EA  1843               	xorwf	??_ledCakarlama2^0,w,c
   874  0010EC  6E81               	movwf	129,c	;volatile
   875                           
   876                           ;ornek2.c: 144:   ( (sure_t*) &s2 )->kacTik = (50u / (1000u / 1000u)); ( (sure_t*) &s2 )
      +                          ->baslangic = grvTikSayiminiAl(); ( (gorev_t*) tutucu )->sn = 144; case 144:; if(!(( (gr
      +                          vTikSayiminiAl() - ( (sure_t*) &s2 )->baslangic) >= ( (sure_t*) &s2 )->kacTik ))){ retur
      +                          n 0; };
   877  0010EE  0E00               	movlw	0
   878  0010F0  6E10               	movwf	(ledCakarlama2@s2+3)^0,c
   879  0010F2  0E32               	movlw	50
   880  0010F4  6E0F               	movwf	(ledCakarlama2@s2+2)^0,c
   881  0010F6  ECB3  F00C         	call	_grvTikSayiminiAl	;wreg free
   882  0010FA  C03E  F00D         	movff	?_grvTikSayiminiAl,ledCakarlama2@s2
   883  0010FE  C03F  F00E         	movff	?_grvTikSayiminiAl+1,ledCakarlama2@s2+1
   884  001102  5042               	movf	ledCakarlama2@tutucu^0,w,c
   885  001104  6ED9               	movwf	fsr2l,c
   886  001106  6ADA               	clrf	fsr2h,c
   887  001108  0E90               	movlw	144
   888  00110A  6EDE               	movwf	postinc2,c
   889  00110C  0E00               	movlw	0
   890  00110E  6EDD               	movwf	postdec2,c
   891  001110                     l2712:
   892  001110  ECB3  F00C         	call	_grvTikSayiminiAl	;wreg free
   893  001114  500D               	movf	ledCakarlama2@s2^0,w,c
   894  001116  5E3E               	subwf	?_grvTikSayiminiAl^0,f,c
   895  001118  500E               	movf	(ledCakarlama2@s2+1)^0,w,c
   896  00111A  5A3F               	subwfb	(?_grvTikSayiminiAl+1)^0,f,c
   897  00111C  500F               	movf	(ledCakarlama2@s2+2)^0,w,c
   898  00111E  5C3E               	subwf	?_grvTikSayiminiAl^0,w,c
   899  001120  5010               	movf	(ledCakarlama2@s2+3)^0,w,c
   900  001122  583F               	subwfb	(?_grvTikSayiminiAl+1)^0,w,c
   901  001124  A0D8               	btfss	status,0,c
   902  001126  0012               	return	
   903                           
   904                           ;ornek2.c: 146:   PORTBbits.RB5 = !PORTBbits.RB5;
   905  001128  BA81               	btfsc	129,5,c	;volatile
   906  00112A  D003               	goto	u1350
   907  00112C  6A43               	clrf	??_ledCakarlama2^0,c
   908  00112E  2A43               	incf	??_ledCakarlama2^0,f,c
   909  001130  D001               	goto	u1368
   910  001132                     u1350:
   911  001132  6A43               	clrf	??_ledCakarlama2^0,c
   912  001134                     u1368:
   913  001134  3A43               	swapf	??_ledCakarlama2^0,f,c
   914  001136  4643               	rlncf	??_ledCakarlama2^0,f,c
   915  001138  5081               	movf	129,w,c	;volatile
   916  00113A  1843               	xorwf	??_ledCakarlama2^0,w,c
   917  00113C  0BDF               	andlw	-33
   918  00113E  1843               	xorwf	??_ledCakarlama2^0,w,c
   919  001140  6E81               	movwf	129,c	;volatile
   920                           
   921                           ;ornek2.c: 148:   ( (sure_t*) &s2 )->kacTik = (50u / (1000u / 1000u)); ( (sure_t*) &s2 )
      +                          ->baslangic = grvTikSayiminiAl(); ( (gorev_t*) tutucu )->sn = 148; case 148:; if(!(( (gr
      +                          vTikSayiminiAl() - ( (sure_t*) &s2 )->baslangic) >= ( (sure_t*) &s2 )->kacTik ))){ retur
      +                          n 0; };
   922  001142  0E00               	movlw	0
   923  001144  6E10               	movwf	(ledCakarlama2@s2+3)^0,c
   924  001146  0E32               	movlw	50
   925  001148  6E0F               	movwf	(ledCakarlama2@s2+2)^0,c
   926  00114A  ECB3  F00C         	call	_grvTikSayiminiAl	;wreg free
   927  00114E  C03E  F00D         	movff	?_grvTikSayiminiAl,ledCakarlama2@s2
   928  001152  C03F  F00E         	movff	?_grvTikSayiminiAl+1,ledCakarlama2@s2+1
   929  001156  5042               	movf	ledCakarlama2@tutucu^0,w,c
   930  001158  6ED9               	movwf	fsr2l,c
   931  00115A  6ADA               	clrf	fsr2h,c
   932  00115C  0E94               	movlw	148
   933  00115E  6EDE               	movwf	postinc2,c
   934  001160  0E00               	movlw	0
   935  001162  6EDD               	movwf	postdec2,c
   936  001164                     l2724:
   937  001164  ECB3  F00C         	call	_grvTikSayiminiAl	;wreg free
   938  001168  500D               	movf	ledCakarlama2@s2^0,w,c
   939  00116A  5E3E               	subwf	?_grvTikSayiminiAl^0,f,c
   940  00116C  500E               	movf	(ledCakarlama2@s2+1)^0,w,c
   941  00116E  5A3F               	subwfb	(?_grvTikSayiminiAl+1)^0,f,c
   942  001170  500F               	movf	(ledCakarlama2@s2+2)^0,w,c
   943  001172  5C3E               	subwf	?_grvTikSayiminiAl^0,w,c
   944  001174  5010               	movf	(ledCakarlama2@s2+3)^0,w,c
   945  001176  583F               	subwfb	(?_grvTikSayiminiAl+1)^0,w,c
   946  001178  A0D8               	btfss	status,0,c
   947  00117A  0012               	return	
   948                           
   949                           ;ornek2.c: 150:   PORTBbits.RB5 = !PORTBbits.RB5;
   950  00117C  BA81               	btfsc	129,5,c	;volatile
   951  00117E  D003               	goto	u1380
   952  001180  6A43               	clrf	??_ledCakarlama2^0,c
   953  001182  2A43               	incf	??_ledCakarlama2^0,f,c
   954  001184  D001               	goto	u1398
   955  001186                     u1380:
   956  001186  6A43               	clrf	??_ledCakarlama2^0,c
   957  001188                     u1398:
   958  001188  3A43               	swapf	??_ledCakarlama2^0,f,c
   959  00118A  4643               	rlncf	??_ledCakarlama2^0,f,c
   960  00118C  5081               	movf	129,w,c	;volatile
   961  00118E  1843               	xorwf	??_ledCakarlama2^0,w,c
   962  001190  0BDF               	andlw	-33
   963  001192  1843               	xorwf	??_ledCakarlama2^0,w,c
   964  001194  6E81               	movwf	129,c	;volatile
   965                           
   966                           ;ornek2.c: 152:   ( (sure_t*) &s2 )->kacTik = (50u / (1000u / 1000u)); ( (sure_t*) &s2 )
      +                          ->baslangic = grvTikSayiminiAl(); ( (gorev_t*) tutucu )->sn = 152; case 152:; if(!(( (gr
      +                          vTikSayiminiAl() - ( (sure_t*) &s2 )->baslangic) >= ( (sure_t*) &s2 )->kacTik ))){ retur
      +                          n 0; };
   967  001196  0E00               	movlw	0
   968  001198  6E10               	movwf	(ledCakarlama2@s2+3)^0,c
   969  00119A  0E32               	movlw	50
   970  00119C  6E0F               	movwf	(ledCakarlama2@s2+2)^0,c
   971  00119E  ECB3  F00C         	call	_grvTikSayiminiAl	;wreg free
   972  0011A2  C03E  F00D         	movff	?_grvTikSayiminiAl,ledCakarlama2@s2
   973  0011A6  C03F  F00E         	movff	?_grvTikSayiminiAl+1,ledCakarlama2@s2+1
   974  0011AA  5042               	movf	ledCakarlama2@tutucu^0,w,c
   975  0011AC  6ED9               	movwf	fsr2l,c
   976  0011AE  6ADA               	clrf	fsr2h,c
   977  0011B0  0E98               	movlw	152
   978  0011B2  6EDE               	movwf	postinc2,c
   979  0011B4  0E00               	movlw	0
   980  0011B6  6EDD               	movwf	postdec2,c
   981  0011B8                     l2736:
   982  0011B8  ECB3  F00C         	call	_grvTikSayiminiAl	;wreg free
   983  0011BC  500D               	movf	ledCakarlama2@s2^0,w,c
   984  0011BE  5E3E               	subwf	?_grvTikSayiminiAl^0,f,c
   985  0011C0  500E               	movf	(ledCakarlama2@s2+1)^0,w,c
   986  0011C2  5A3F               	subwfb	(?_grvTikSayiminiAl+1)^0,f,c
   987  0011C4  500F               	movf	(ledCakarlama2@s2+2)^0,w,c
   988  0011C6  5C3E               	subwf	?_grvTikSayiminiAl^0,w,c
   989  0011C8  5010               	movf	(ledCakarlama2@s2+3)^0,w,c
   990  0011CA  583F               	subwfb	(?_grvTikSayiminiAl+1)^0,w,c
   991  0011CC  A0D8               	btfss	status,0,c
   992  0011CE  0012               	return	
   993                           
   994                           ;ornek2.c: 154:   PORTBbits.RB5 = !PORTBbits.RB5;
   995  0011D0  BA81               	btfsc	129,5,c	;volatile
   996  0011D2  D003               	goto	u1410
   997  0011D4  6A43               	clrf	??_ledCakarlama2^0,c
   998  0011D6  2A43               	incf	??_ledCakarlama2^0,f,c
   999  0011D8  D001               	goto	u1428
  1000  0011DA                     u1410:
  1001  0011DA  6A43               	clrf	??_ledCakarlama2^0,c
  1002  0011DC                     u1428:
  1003  0011DC  3A43               	swapf	??_ledCakarlama2^0,f,c
  1004  0011DE  4643               	rlncf	??_ledCakarlama2^0,f,c
  1005  0011E0  5081               	movf	129,w,c	;volatile
  1006  0011E2  1843               	xorwf	??_ledCakarlama2^0,w,c
  1007  0011E4  0BDF               	andlw	-33
  1008  0011E6  1843               	xorwf	??_ledCakarlama2^0,w,c
  1009  0011E8  6E81               	movwf	129,c	;volatile
  1010                           
  1011                           ;ornek2.c: 156:   ( (sure_t*) &s2 )->kacTik = (1000u / (1000u / 1000u)); ( (sure_t*) &s2
      +                           )->baslangic = grvTikSayiminiAl(); ( (gorev_t*) tutucu )->sn = 156; case 156:; if(!(( (
      +                          grvTikSayiminiAl() - ( (sure_t*) &s2 )->baslangic) >= ( (sure_t*) &s2 )->kacTik ))){ ret
      +                          urn 0; };
  1012  0011EA  0E03               	movlw	3
  1013  0011EC  6E10               	movwf	(ledCakarlama2@s2+3)^0,c
  1014  0011EE  0EE8               	movlw	232
  1015  0011F0  6E0F               	movwf	(ledCakarlama2@s2+2)^0,c
  1016  0011F2  ECB3  F00C         	call	_grvTikSayiminiAl	;wreg free
  1017  0011F6  C03E  F00D         	movff	?_grvTikSayiminiAl,ledCakarlama2@s2
  1018  0011FA  C03F  F00E         	movff	?_grvTikSayiminiAl+1,ledCakarlama2@s2+1
  1019  0011FE  5042               	movf	ledCakarlama2@tutucu^0,w,c
  1020  001200  6ED9               	movwf	fsr2l,c
  1021  001202  6ADA               	clrf	fsr2h,c
  1022  001204  0E9C               	movlw	156
  1023  001206  6EDE               	movwf	postinc2,c
  1024  001208  0E00               	movlw	0
  1025  00120A  6EDD               	movwf	postdec2,c
  1026  00120C                     l2748:
  1027  00120C  ECB3  F00C         	call	_grvTikSayiminiAl	;wreg free
  1028  001210  500D               	movf	ledCakarlama2@s2^0,w,c
  1029  001212  5E3E               	subwf	?_grvTikSayiminiAl^0,f,c
  1030  001214  500E               	movf	(ledCakarlama2@s2+1)^0,w,c
  1031  001216  5A3F               	subwfb	(?_grvTikSayiminiAl+1)^0,f,c
  1032  001218  500F               	movf	(ledCakarlama2@s2+2)^0,w,c
  1033  00121A  5C3E               	subwf	?_grvTikSayiminiAl^0,w,c
  1034  00121C  5010               	movf	(ledCakarlama2@s2+3)^0,w,c
  1035  00121E  583F               	subwfb	(?_grvTikSayiminiAl+1)^0,w,c
  1036  001220  A0D8               	btfss	status,0,c
  1037  001222  0012               	return	
  1038  001224  D703               	goto	l2680
  1039  001226                     l2758:
  1040  001226  5042               	movf	ledCakarlama2@tutucu^0,w,c
  1041  001228  6ED9               	movwf	fsr2l,c
  1042  00122A  6ADA               	clrf	fsr2h,c
  1043  00122C  0E00               	movlw	0
  1044  00122E  6EDE               	movwf	postinc2,c
  1045  001230  0E00               	movlw	0
  1046  001232  6EDD               	movwf	postdec2,c
  1047  001234  0012               	return	
  1048  001236                     l2764:
  1049  001236  5042               	movf	ledCakarlama2@tutucu^0,w,c
  1050  001238  6ED9               	movwf	fsr2l,c
  1051  00123A  6ADA               	clrf	fsr2h,c
  1052  00123C  CFDE F043          	movff	postinc2,??_ledCakarlama2
  1053  001240  CFDD F044          	movff	postdec2,??_ledCakarlama2+1
  1054                           
  1055                           ; Switch on 2 bytes has been partitioned into a top level switch of size 1, and 1 sub-sw
      +                          itches
  1056                           ; Switch size 1, requested type "simple"
  1057                           ; Number of cases is 1, Range of values is 0 to 0
  1058                           ; switch strategies available:
  1059                           ; Name         Instructions Cycles
  1060                           ; simple_byte            4     3 (average)
  1061                           ;	Chosen strategy is simple_byte
  1062  001244  5044               	movf	(??_ledCakarlama2+1)^0,w,c
  1063  001246  0A00               	xorlw	0	; case 0
  1064  001248  A4D8               	btfss	status,2,c
  1065  00124A  D7ED               	goto	l2758
  1066                           
  1067                           ; Switch size 1, requested type "simple"
  1068                           ; Number of cases is 8, Range of values is 0 to 159
  1069                           ; switch strategies available:
  1070                           ; Name         Instructions Cycles
  1071                           ; simple_byte           25    13 (average)
  1072                           ;	Chosen strategy is simple_byte
  1073  00124C  5043               	movf	??_ledCakarlama2^0,w,c
  1074  00124E  0A00               	xorlw	0	; case 0
  1075  001250  B4D8               	btfsc	status,2,c
  1076  001252  D6E8               	goto	l196
  1077  001254  0A88               	xorlw	136	; case 136
  1078  001256  B4D8               	btfsc	status,2,c
  1079  001258  D707               	goto	l2688
  1080  00125A  0A04               	xorlw	4	; case 140
  1081  00125C  B4D8               	btfsc	status,2,c
  1082  00125E  D72E               	goto	l2700
  1083  001260  0A1C               	xorlw	28	; case 144
  1084  001262  B4D8               	btfsc	status,2,c
  1085  001264  D755               	goto	l2712
  1086  001266  0A04               	xorlw	4	; case 148
  1087  001268  B4D8               	btfsc	status,2,c
  1088  00126A  D77C               	goto	l2724
  1089  00126C  0A0C               	xorlw	12	; case 152
  1090  00126E  B4D8               	btfsc	status,2,c
  1091  001270  D7A3               	goto	l2736
  1092  001272  0A04               	xorlw	4	; case 156
  1093  001274  B4D8               	btfsc	status,2,c
  1094  001276  D7CA               	goto	l2748
  1095  001278  0A03               	xorlw	3	; case 159
  1096  00127A  B4D8               	btfsc	status,2,c
  1097  00127C  0012               	return		;funcret
  1098  00127E  D7D3               	goto	l2758
  1099  001280                     __end_of_ledCakarlama2:
  1100                           	callstack 0
  1101                           
  1102 ;; *************** function _ledCakarlama1 *****************
  1103 ;; Defined at:
  1104 ;;		line 61 in file "ornek2.c"
  1105 ;; Parameters:    Size  Location     Type
  1106 ;;  tutucu          1   18[COMRAM] PTR void 
  1107 ;;		 -> main@lc1(2), 
  1108 ;; Auto vars:     Size  Location     Type
  1109 ;;  VAZGECIS_BAY    1    0        unsigned char 
  1110 ;; Return value:  Size  Location     Type
  1111 ;;                  1    wreg      unsigned char 
  1112 ;; Registers used:
  1113 ;;		wreg, fsr2l, fsr2h, status,2, status,0, tblptrl, tblptrh, tblptru, prodl, prodh, cstack
  1114 ;; Tracked objects:
  1115 ;;		On entry : 0/0
  1116 ;;		On exit  : 0/0
  1117 ;;		Unchanged: 0/0
  1118 ;; Data sizes:     COMRAM   BANK0   BANK1   BANK2   BANK3   BANK4   BANK5   BANK6   BANK7   BANK8   BANK9  BANK10  BANK1
      +1  BANK12  BANK13  BANK14  BANK15
  1119 ;;      Params:         1       0       0       0       0       0       0       0       0       0       0       0       
      +0       0       0       0       0
  1120 ;;      Locals:         1       0       0       0       0       0       0       0       0       0       0       0       
      +0       0       0       0       0
  1121 ;;      Temps:          2       0       0       0       0       0       0       0       0       0       0       0       
      +0       0       0       0       0
  1122 ;;      Totals:         4       0       0       0       0       0       0       0       0       0       0       0       
      +0       0       0       0       0
  1123 ;;Total ram usage:        4 bytes
  1124 ;; Hardware stack levels used:    1
  1125 ;; Hardware stack levels required when called:    4
  1126 ;; This function calls:
  1127 ;;		_grvTikSayiminiAl
  1128 ;; This function is called by:
  1129 ;;		_main
  1130 ;; This function uses a non-reentrant model
  1131 ;;
  1132                           
  1133                           	psect	text5
  1134  001280                     __ptext5:
  1135                           	callstack 0
  1136  001280                     _ledCakarlama1:
  1137                           	callstack 26
  1138                           
  1139                           ;incstack = 0
  1140  001280  D08D               	goto	l2672
  1141  001282                     l166:
  1142                           
  1143                           ;ornek2.c: 69:  static sure_t s1;;ornek2.c: 70:  static char secici;;ornek2.c: 71:  stat
      +                          ic _Bool artir;;ornek2.c: 74:  static const unsigned int sureler[] = {;ornek2.c: 79:  st
      +                          atic const char sonSira = sizeof(sureler) / sizeof(unsigned int) - 1;;ornek2.c: 82:  LAT
      +                          Bbits.LATB1 = 0;
  1144  001282  928A               	bcf	138,1,c	;volatile
  1145                           
  1146                           ;ornek2.c: 83:  ANSELBbits.ANSB1 = 0;
  1147  001284  010F               	movlb	15	; () banked
  1148  001286  9339               	bcf	57,1,b	;volatile
  1149                           
  1150                           ;ornek2.c: 84:  TRISBbits.TRISB1 = 0;
  1151  001288  9293               	bcf	147,1,c	;volatile
  1152                           
  1153                           ; BSR set to: 15
  1154                           ;ornek2.c: 85:  secici = 0;
  1155  00128A  0E00               	movlw	0
  1156  00128C  6E25               	movwf	ledCakarlama1@secici^0,c
  1157                           
  1158                           ;ornek2.c: 86:  artir = 1;
  1159  00128E  0E01               	movlw	1
  1160  001290  6E24               	movwf	ledCakarlama1@artir^0,c
  1161  001292                     l177:
  1162                           
  1163                           ;ornek2.c: 90:   if(artir){
  1164  001292  5024               	movf	ledCakarlama1@artir^0,w,c
  1165  001294  B4D8               	btfsc	status,2,c
  1166  001296  D008               	goto	l2630
  1167                           
  1168                           ;ornek2.c: 91:    if(secici == sonSira){
  1169  001298  0E0E               	movlw	14
  1170  00129A  1825               	xorwf	ledCakarlama1@secici^0,w,c
  1171  00129C  A4D8               	btfss	status,2,c
  1172  00129E  D002               	goto	l2628
  1173                           
  1174                           ;ornek2.c: 92:     artir = 0;
  1175  0012A0  0E00               	movlw	0
  1176  0012A2  D006               	goto	L1
  1177  0012A4                     l2628:
  1178                           
  1179                           ;ornek2.c: 94:     secici++;
  1180  0012A4  2A25               	incf	ledCakarlama1@secici^0,f,c
  1181  0012A6  D007               	goto	l2636
  1182  0012A8                     l2630:
  1183                           
  1184                           ;ornek2.c: 97:    if(secici == 0){
  1185  0012A8  5025               	movf	ledCakarlama1@secici^0,w,c
  1186  0012AA  A4D8               	btfss	status,2,c
  1187  0012AC  D003               	goto	l2634
  1188                           
  1189                           ;ornek2.c: 98:     artir = 1;
  1190  0012AE  0E01               	movlw	1
  1191  0012B0                     L1:
  1192  0012B0  6E24               	movwf	ledCakarlama1@artir^0,c
  1193                           
  1194                           ;ornek2.c: 99:    } else{
  1195  0012B2  D001               	goto	l2636
  1196  0012B4                     l2634:
  1197                           
  1198                           ;ornek2.c: 100:     secici--;
  1199  0012B4  0625               	decf	ledCakarlama1@secici^0,f,c
  1200  0012B6                     l2636:
  1201                           
  1202                           ;ornek2.c: 104:   PORTBbits.RB1 = !PORTBbits.RB1;
  1203  0012B6  B281               	btfsc	129,1,c	;volatile
  1204  0012B8  D003               	goto	u1200
  1205  0012BA  6A43               	clrf	??_ledCakarlama1^0,c
  1206  0012BC  2A43               	incf	??_ledCakarlama1^0,f,c
  1207  0012BE  D001               	goto	u1218
  1208  0012C0                     u1200:
  1209  0012C0  6A43               	clrf	??_ledCakarlama1^0,c
  1210  0012C2                     u1218:
  1211  0012C2  4643               	rlncf	??_ledCakarlama1^0,f,c
  1212  0012C4  5081               	movf	129,w,c	;volatile
  1213  0012C6  1843               	xorwf	??_ledCakarlama1^0,w,c
  1214  0012C8  0BFD               	andlw	-3
  1215  0012CA  1843               	xorwf	??_ledCakarlama1^0,w,c
  1216  0012CC  6E81               	movwf	129,c	;volatile
  1217                           
  1218                           ;ornek2.c: 106:   ( (sure_t*) &s1 )->kacTik = (sureler[secici] / (1000u / 1000u)); ( (su
      +                          re_t*) &s1 )->baslangic = grvTikSayiminiAl(); ( (gorev_t*) tutucu )->sn = 106; case 106:
      +                          ; if(!(( (grvTikSayiminiAl() - ( (sure_t*) &s1 )->baslangic) >= ( (sure_t*) &s1 )->kacTi
      +                          k ))){ return 0; };
  1219  0012CE  5025               	movf	ledCakarlama1@secici^0,w,c
  1220  0012D0  0D02               	mullw	2
  1221  0012D2  50F3               	movf	243,w,c
  1222  0012D4  0F02               	addlw	low ledCakarlama1@sureler
  1223  0012D6  6E43               	movwf	??_ledCakarlama1^0,c
  1224  0012D8  C043  FFF6         	movff	??_ledCakarlama1,tblptrl
  1225  0012DC                     	if	1	;There is more than 1 active tblptr byte
  1226  0012DC  0E10               	movlw	high __smallconst
  1227  0012DE  6EF7               	movwf	tblptrh,c
  1228  0012E0                     	endif
  1229  0012E0                     	if	1	;Program memory is < 0x10000, tblptru is always zero
  1230  0012E0  6AF8               	clrf	tblptru,c
  1231  0012E2                     	endif
  1232  0012E2                     	if	0	;tblptru may be non-zero
  1233  0012E2                     	endif
  1234  0012E2  0009               	tblrd		*+
  1235  0012E4  CFF5 F013          	movff	tablat,ledCakarlama1@s1+2
  1236  0012E8  000A               	tblrd		*-
  1237  0012EA  CFF5 F014          	movff	tablat,ledCakarlama1@s1+3
  1238  0012EE  ECB3  F00C         	call	_grvTikSayiminiAl	;wreg free
  1239  0012F2  C03E  F011         	movff	?_grvTikSayiminiAl,ledCakarlama1@s1
  1240  0012F6  C03F  F012         	movff	?_grvTikSayiminiAl+1,ledCakarlama1@s1+1
  1241  0012FA  5042               	movf	ledCakarlama1@tutucu^0,w,c
  1242  0012FC  6ED9               	movwf	fsr2l,c
  1243  0012FE  6ADA               	clrf	fsr2h,c
  1244  001300  0E6A               	movlw	106
  1245  001302  6EDE               	movwf	postinc2,c
  1246  001304  0E00               	movlw	0
  1247  001306  6EDD               	movwf	postdec2,c
  1248  001308                     l2644:
  1249  001308  ECB3  F00C         	call	_grvTikSayiminiAl	;wreg free
  1250  00130C  5011               	movf	ledCakarlama1@s1^0,w,c
  1251  00130E  5E3E               	subwf	?_grvTikSayiminiAl^0,f,c
  1252  001310  5012               	movf	(ledCakarlama1@s1+1)^0,w,c
  1253  001312  5A3F               	subwfb	(?_grvTikSayiminiAl+1)^0,f,c
  1254  001314  5013               	movf	(ledCakarlama1@s1+2)^0,w,c
  1255  001316  5C3E               	subwf	?_grvTikSayiminiAl^0,w,c
  1256  001318  5014               	movf	(ledCakarlama1@s1+3)^0,w,c
  1257  00131A  583F               	subwfb	(?_grvTikSayiminiAl+1)^0,w,c
  1258  00131C  A0D8               	btfss	status,0,c
  1259  00131E  0012               	return	
  1260                           
  1261                           ;ornek2.c: 108:   PORTBbits.RB1 = !PORTBbits.RB1;
  1262  001320  B281               	btfsc	129,1,c	;volatile
  1263  001322  D003               	goto	u1230
  1264  001324  6A43               	clrf	??_ledCakarlama1^0,c
  1265  001326  2A43               	incf	??_ledCakarlama1^0,f,c
  1266  001328  D001               	goto	u1248
  1267  00132A                     u1230:
  1268  00132A  6A43               	clrf	??_ledCakarlama1^0,c
  1269  00132C                     u1248:
  1270  00132C  4643               	rlncf	??_ledCakarlama1^0,f,c
  1271  00132E  5081               	movf	129,w,c	;volatile
  1272  001330  1843               	xorwf	??_ledCakarlama1^0,w,c
  1273  001332  0BFD               	andlw	-3
  1274  001334  1843               	xorwf	??_ledCakarlama1^0,w,c
  1275  001336  6E81               	movwf	129,c	;volatile
  1276                           
  1277                           ;ornek2.c: 110:   ( (sure_t*) &s1 )->kacTik = (sureler[secici] / (1000u / 1000u)); ( (su
      +                          re_t*) &s1 )->baslangic = grvTikSayiminiAl(); ( (gorev_t*) tutucu )->sn = 110; case 110:
      +                          ; if(!(( (grvTikSayiminiAl() - ( (sure_t*) &s1 )->baslangic) >= ( (sure_t*) &s1 )->kacTi
      +                          k ))){ return 0; };
  1278  001338  5025               	movf	ledCakarlama1@secici^0,w,c
  1279  00133A  0D02               	mullw	2
  1280  00133C  50F3               	movf	243,w,c
  1281  00133E  0F02               	addlw	low ledCakarlama1@sureler
  1282  001340  6E43               	movwf	??_ledCakarlama1^0,c
  1283  001342  C043  FFF6         	movff	??_ledCakarlama1,tblptrl
  1284  001346                     	if	1	;There is more than 1 active tblptr byte
  1285  001346  0E10               	movlw	high __smallconst
  1286  001348  6EF7               	movwf	tblptrh,c
  1287  00134A                     	endif
  1288  00134A                     	if	1	;Program memory is < 0x10000, tblptru is always zero
  1289  00134A  6AF8               	clrf	tblptru,c
  1290  00134C                     	endif
  1291  00134C                     	if	0	;tblptru may be non-zero
  1292  00134C                     	endif
  1293  00134C  0009               	tblrd		*+
  1294  00134E  CFF5 F013          	movff	tablat,ledCakarlama1@s1+2
  1295  001352  000A               	tblrd		*-
  1296  001354  CFF5 F014          	movff	tablat,ledCakarlama1@s1+3
  1297  001358  ECB3  F00C         	call	_grvTikSayiminiAl	;wreg free
  1298  00135C  C03E  F011         	movff	?_grvTikSayiminiAl,ledCakarlama1@s1
  1299  001360  C03F  F012         	movff	?_grvTikSayiminiAl+1,ledCakarlama1@s1+1
  1300  001364  5042               	movf	ledCakarlama1@tutucu^0,w,c
  1301  001366  6ED9               	movwf	fsr2l,c
  1302  001368  6ADA               	clrf	fsr2h,c
  1303  00136A  0E6E               	movlw	110
  1304  00136C  6EDE               	movwf	postinc2,c
  1305  00136E  0E00               	movlw	0
  1306  001370  6EDD               	movwf	postdec2,c
  1307  001372                     l2656:
  1308  001372  ECB3  F00C         	call	_grvTikSayiminiAl	;wreg free
  1309  001376  5011               	movf	ledCakarlama1@s1^0,w,c
  1310  001378  5E3E               	subwf	?_grvTikSayiminiAl^0,f,c
  1311  00137A  5012               	movf	(ledCakarlama1@s1+1)^0,w,c
  1312  00137C  5A3F               	subwfb	(?_grvTikSayiminiAl+1)^0,f,c
  1313  00137E  5013               	movf	(ledCakarlama1@s1+2)^0,w,c
  1314  001380  5C3E               	subwf	?_grvTikSayiminiAl^0,w,c
  1315  001382  5014               	movf	(ledCakarlama1@s1+3)^0,w,c
  1316  001384  583F               	subwfb	(?_grvTikSayiminiAl+1)^0,w,c
  1317  001386  A0D8               	btfss	status,0,c
  1318  001388  0012               	return	
  1319  00138A  D783               	goto	l177
  1320  00138C                     l2666:
  1321  00138C  5042               	movf	ledCakarlama1@tutucu^0,w,c
  1322  00138E  6ED9               	movwf	fsr2l,c
  1323  001390  6ADA               	clrf	fsr2h,c
  1324  001392  0E00               	movlw	0
  1325  001394  6EDE               	movwf	postinc2,c
  1326  001396  0E00               	movlw	0
  1327  001398  6EDD               	movwf	postdec2,c
  1328  00139A  0012               	return	
  1329  00139C                     l2672:
  1330  00139C  5042               	movf	ledCakarlama1@tutucu^0,w,c
  1331  00139E  6ED9               	movwf	fsr2l,c
  1332  0013A0  6ADA               	clrf	fsr2h,c
  1333  0013A2  CFDE F043          	movff	postinc2,??_ledCakarlama1
  1334  0013A6  CFDD F044          	movff	postdec2,??_ledCakarlama1+1
  1335                           
  1336                           ; Switch on 2 bytes has been partitioned into a top level switch of size 1, and 1 sub-sw
      +                          itches
  1337                           ; Switch size 1, requested type "simple"
  1338                           ; Number of cases is 1, Range of values is 0 to 0
  1339                           ; switch strategies available:
  1340                           ; Name         Instructions Cycles
  1341                           ; simple_byte            4     3 (average)
  1342                           ;	Chosen strategy is simple_byte
  1343  0013AA  5044               	movf	(??_ledCakarlama1+1)^0,w,c
  1344  0013AC  0A00               	xorlw	0	; case 0
  1345  0013AE  A4D8               	btfss	status,2,c
  1346  0013B0  D7ED               	goto	l2666
  1347                           
  1348                           ; Switch size 1, requested type "simple"
  1349                           ; Number of cases is 4, Range of values is 0 to 114
  1350                           ; switch strategies available:
  1351                           ; Name         Instructions Cycles
  1352                           ; simple_byte           13     7 (average)
  1353                           ;	Chosen strategy is simple_byte
  1354  0013B2  5043               	movf	??_ledCakarlama1^0,w,c
  1355  0013B4  0A00               	xorlw	0	; case 0
  1356  0013B6  B4D8               	btfsc	status,2,c
  1357  0013B8  D764               	goto	l166
  1358  0013BA  0A6A               	xorlw	106	; case 106
  1359  0013BC  B4D8               	btfsc	status,2,c
  1360  0013BE  D7A4               	goto	l2644
  1361  0013C0  0A04               	xorlw	4	; case 110
  1362  0013C2  B4D8               	btfsc	status,2,c
  1363  0013C4  D7D6               	goto	l2656
  1364  0013C6  0A1C               	xorlw	28	; case 114
  1365  0013C8  B4D8               	btfsc	status,2,c
  1366  0013CA  0012               	return		;funcret
  1367  0013CC  D7DF               	goto	l2666
  1368  0013CE                     __end_of_ledCakarlama1:
  1369                           	callstack 0
  1370                           
  1371 ;; *************** function _karaSimsekHiziOkuma *****************
  1372 ;; Defined at:
  1373 ;;		line 206 in file "ornek2.c"
  1374 ;; Parameters:    Size  Location     Type
  1375 ;;  tutucu          1   21[COMRAM] PTR void 
  1376 ;;		 -> main@kho(2), 
  1377 ;; Auto vars:     Size  Location     Type
  1378 ;;  sonuc           2   25[COMRAM] unsigned short 
  1379 ;;  VAZGECIS_BAY    1    0        unsigned char 
  1380 ;; Return value:  Size  Location     Type
  1381 ;;                  1    wreg      unsigned char 
  1382 ;; Registers used:
  1383 ;;		wreg, fsr2l, fsr2h, status,2, status,0, cstack
  1384 ;; Tracked objects:
  1385 ;;		On entry : 0/0
  1386 ;;		On exit  : 0/0
  1387 ;;		Unchanged: 0/0
  1388 ;; Data sizes:     COMRAM   BANK0   BANK1   BANK2   BANK3   BANK4   BANK5   BANK6   BANK7   BANK8   BANK9  BANK10  BANK1
      +1  BANK12  BANK13  BANK14  BANK15
  1389 ;;      Params:         1       0       0       0       0       0       0       0       0       0       0       0       
      +0       0       0       0       0
  1390 ;;      Locals:         3       0       0       0       0       0       0       0       0       0       0       0       
      +0       0       0       0       0
  1391 ;;      Temps:          2       0       0       0       0       0       0       0       0       0       0       0       
      +0       0       0       0       0
  1392 ;;      Totals:         6       0       0       0       0       0       0       0       0       0       0       0       
      +0       0       0       0       0
  1393 ;;Total ram usage:        6 bytes
  1394 ;; Hardware stack levels used:    1
  1395 ;; Hardware stack levels required when called:    4
  1396 ;; This function calls:
  1397 ;;		___lwdiv
  1398 ;;		_grvTikSayiminiAl
  1399 ;; This function is called by:
  1400 ;;		_main
  1401 ;; This function uses a non-reentrant model
  1402 ;;
  1403                           
  1404                           	psect	text6
  1405  0013CE                     __ptext6:
  1406                           	callstack 0
  1407  0013CE                     _karaSimsekHiziOkuma:
  1408                           	callstack 26
  1409                           
  1410                           ;incstack = 0
  1411  0013CE  D064               	goto	l2876
  1412  0013D0                     l243:
  1413                           
  1414                           ;ornek2.c: 210:  static sure_t s4;;ornek2.c: 213:  PIE1bits.ADIE = 0;
  1415  0013D0  9C9D               	bcf	157,6,c	;volatile
  1416                           
  1417                           ;ornek2.c: 214:  PIR1bits.ADIF = 0;
  1418  0013D2  9C9E               	bcf	158,6,c	;volatile
  1419                           
  1420                           ;ornek2.c: 215:  ADCON2 = 0xAF;
  1421  0013D4  0EAF               	movlw	175
  1422  0013D6  6EC0               	movwf	192,c	;volatile
  1423                           
  1424                           ;ornek2.c: 216:  ADCON1 = 0;
  1425  0013D8  0E00               	movlw	0
  1426  0013DA  6EC1               	movwf	193,c	;volatile
  1427                           
  1428                           ;ornek2.c: 217:  TRISAbits.TRISA0 = 1;
  1429  0013DC  8092               	bsf	146,0,c	;volatile
  1430                           
  1431                           ;ornek2.c: 218:  ADCON0bits.ADON = 1;
  1432  0013DE  80C2               	bsf	194,0,c	;volatile
  1433  0013E0                     l2830:
  1434                           
  1435                           ;ornek2.c: 222:   ADCON0bits.GO = 1;
  1436  0013E0  82C2               	bsf	194,1,c	;volatile
  1437                           
  1438                           ;ornek2.c: 224:   ( (gorev_t*) tutucu )->sn = 224; case 224:; if(((ADCON0bits.GO))){ ret
      +                          urn 0; };
  1439  0013E2  5045               	movf	karaSimsekHiziOkuma@tutucu^0,w,c
  1440  0013E4  6ED9               	movwf	fsr2l,c
  1441  0013E6  6ADA               	clrf	fsr2h,c
  1442  0013E8  0EE0               	movlw	224
  1443  0013EA  6EDE               	movwf	postinc2,c
  1444  0013EC  0E00               	movlw	0
  1445  0013EE  6EDD               	movwf	postdec2,c
  1446  0013F0                     l2834:
  1447  0013F0  B2C2               	btfsc	194,1,c	;volatile
  1448  0013F2  0012               	return	
  1449                           
  1450                           ;ornek2.c: 226:   uint16_t sonuc;;ornek2.c: 227:   sonuc = 0;
  1451  0013F4  0E00               	movlw	0
  1452  0013F6  6E4A               	movwf	(karaSimsekHiziOkuma@sonuc+1)^0,c
  1453  0013F8  0E00               	movlw	0
  1454  0013FA  6E49               	movwf	karaSimsekHiziOkuma@sonuc^0,c
  1455                           
  1456                           ;ornek2.c: 228:   sonuc |= (uint16_t)ADRESH << 8;
  1457  0013FC  50C4               	movf	196,w,c	;volatile
  1458  0013FE  6E47               	movwf	(??_karaSimsekHiziOkuma+1)^0,c
  1459  001400  6A46               	clrf	??_karaSimsekHiziOkuma^0,c
  1460  001402  5046               	movf	??_karaSimsekHiziOkuma^0,w,c
  1461  001404  1249               	iorwf	karaSimsekHiziOkuma@sonuc^0,f,c
  1462  001406  5047               	movf	(??_karaSimsekHiziOkuma+1)^0,w,c
  1463  001408  124A               	iorwf	(karaSimsekHiziOkuma@sonuc+1)^0,f,c
  1464                           
  1465                           ;ornek2.c: 229:   sonuc |= (uint16_t)ADRESL;
  1466  00140A  50C3               	movf	195,w,c	;volatile
  1467  00140C  1249               	iorwf	karaSimsekHiziOkuma@sonuc^0,f,c
  1468                           
  1469                           ;ornek2.c: 230:   gercekDeger = sonuc;
  1470  00140E  C049  F017         	movff	karaSimsekHiziOkuma@sonuc,_gercekDeger
  1471  001412  C04A  F018         	movff	karaSimsekHiziOkuma@sonuc+1,_gercekDeger+1
  1472                           
  1473                           ;ornek2.c: 233:   if(sonuc <= 50){
  1474  001416  504A               	movf	(karaSimsekHiziOkuma@sonuc+1)^0,w,c
  1475  001418  E109               	bnz	l2850
  1476  00141A  0E33               	movlw	51
  1477  00141C  5C49               	subwf	karaSimsekHiziOkuma@sonuc^0,w,c
  1478  00141E  B0D8               	btfsc	status,0,c
  1479  001420  D005               	goto	l2850
  1480                           
  1481                           ;ornek2.c: 235:    karaSimsekHizi = 10;
  1482  001422  0E00               	movlw	0
  1483  001424  6E16               	movwf	(_karaSimsekHizi+1)^0,c
  1484  001426  0E0A               	movlw	10
  1485  001428  6E15               	movwf	_karaSimsekHizi^0,c
  1486                           
  1487                           ;ornek2.c: 236:   } else{
  1488  00142A  D00E               	goto	l2852
  1489  00142C                     l2850:
  1490                           
  1491                           ;ornek2.c: 237:    karaSimsekHizi = sonuc / 5;
  1492  00142C  C049  F03E         	movff	karaSimsekHiziOkuma@sonuc,___lwdiv@dividend
  1493  001430  C04A  F03F         	movff	karaSimsekHiziOkuma@sonuc+1,___lwdiv@dividend+1
  1494  001434  0E00               	movlw	0
  1495  001436  6E41               	movwf	(___lwdiv@divisor+1)^0,c
  1496  001438  0E05               	movlw	5
  1497  00143A  6E40               	movwf	___lwdiv@divisor^0,c
  1498  00143C  EC47  F00C         	call	___lwdiv	;wreg free
  1499  001440  C03E  F015         	movff	?___lwdiv,_karaSimsekHizi
  1500  001444  C03F  F016         	movff	?___lwdiv+1,_karaSimsekHizi+1
  1501  001448                     l2852:
  1502                           
  1503                           ;ornek2.c: 239:   karasimsekHiziOkundu = 1;
  1504  001448  0E01               	movlw	1
  1505  00144A  6E27               	movwf	_karasimsekHiziOkundu^0,c
  1506                           
  1507                           ;ornek2.c: 241:   ( (sure_t*) &s4 )->kacTik = (500u / (1000u / 1000u)); ( (sure_t*) &s4 
      +                          )->baslangic = grvTikSayiminiAl(); ( (gorev_t*) tutucu )->sn = 241; case 241:; if(!(( (g
      +                          rvTikSayiminiAl() - ( (sure_t*) &s4 )->baslangic) >= ( (sure_t*) &s4 )->kacTik ))){ retu
      +                          rn 0; };
  1508  00144C  0E01               	movlw	1
  1509  00144E  6E08               	movwf	(karaSimsekHiziOkuma@s4+3)^0,c
  1510  001450  0EF4               	movlw	244
  1511  001452  6E07               	movwf	(karaSimsekHiziOkuma@s4+2)^0,c
  1512  001454  ECB3  F00C         	call	_grvTikSayiminiAl	;wreg free
  1513  001458  C03E  F005         	movff	?_grvTikSayiminiAl,karaSimsekHiziOkuma@s4
  1514  00145C  C03F  F006         	movff	?_grvTikSayiminiAl+1,karaSimsekHiziOkuma@s4+1
  1515  001460  5045               	movf	karaSimsekHiziOkuma@tutucu^0,w,c
  1516  001462  6ED9               	movwf	fsr2l,c
  1517  001464  6ADA               	clrf	fsr2h,c
  1518  001466  0EF1               	movlw	241
  1519  001468  6EDE               	movwf	postinc2,c
  1520  00146A  0E00               	movlw	0
  1521  00146C  6EDD               	movwf	postdec2,c
  1522  00146E                     l2860:
  1523  00146E  ECB3  F00C         	call	_grvTikSayiminiAl	;wreg free
  1524  001472  5005               	movf	karaSimsekHiziOkuma@s4^0,w,c
  1525  001474  5E3E               	subwf	?_grvTikSayiminiAl^0,f,c
  1526  001476  5006               	movf	(karaSimsekHiziOkuma@s4+1)^0,w,c
  1527  001478  5A3F               	subwfb	(?_grvTikSayiminiAl+1)^0,f,c
  1528  00147A  5007               	movf	(karaSimsekHiziOkuma@s4+2)^0,w,c
  1529  00147C  5C3E               	subwf	?_grvTikSayiminiAl^0,w,c
  1530  00147E  5008               	movf	(karaSimsekHiziOkuma@s4+3)^0,w,c
  1531  001480  583F               	subwfb	(?_grvTikSayiminiAl+1)^0,w,c
  1532  001482  A0D8               	btfss	status,0,c
  1533  001484  0012               	return	
  1534  001486  D7AC               	goto	l2830
  1535  001488                     l2870:
  1536  001488  5045               	movf	karaSimsekHiziOkuma@tutucu^0,w,c
  1537  00148A  6ED9               	movwf	fsr2l,c
  1538  00148C  6ADA               	clrf	fsr2h,c
  1539  00148E  0E00               	movlw	0
  1540  001490  6EDE               	movwf	postinc2,c
  1541  001492  0E00               	movlw	0
  1542  001494  6EDD               	movwf	postdec2,c
  1543  001496  0012               	return	
  1544  001498                     l2876:
  1545  001498  5045               	movf	karaSimsekHiziOkuma@tutucu^0,w,c
  1546  00149A  6ED9               	movwf	fsr2l,c
  1547  00149C  6ADA               	clrf	fsr2h,c
  1548  00149E  CFDE F046          	movff	postinc2,??_karaSimsekHiziOkuma
  1549  0014A2  CFDD F047          	movff	postdec2,??_karaSimsekHiziOkuma+1
  1550                           
  1551                           ; Switch on 2 bytes has been partitioned into a top level switch of size 1, and 1 sub-sw
      +                          itches
  1552                           ; Switch size 1, requested type "simple"
  1553                           ; Number of cases is 1, Range of values is 0 to 0
  1554                           ; switch strategies available:
  1555                           ; Name         Instructions Cycles
  1556                           ; simple_byte            4     3 (average)
  1557                           ;	Chosen strategy is simple_byte
  1558  0014A6  5047               	movf	(??_karaSimsekHiziOkuma+1)^0,w,c
  1559  0014A8  0A00               	xorlw	0	; case 0
  1560  0014AA  A4D8               	btfss	status,2,c
  1561  0014AC  D7ED               	goto	l2870
  1562                           
  1563                           ; Switch size 1, requested type "simple"
  1564                           ; Number of cases is 4, Range of values is 0 to 244
  1565                           ; switch strategies available:
  1566                           ; Name         Instructions Cycles
  1567                           ; simple_byte           13     7 (average)
  1568                           ;	Chosen strategy is simple_byte
  1569  0014AE  5046               	movf	??_karaSimsekHiziOkuma^0,w,c
  1570  0014B0  0A00               	xorlw	0	; case 0
  1571  0014B2  B4D8               	btfsc	status,2,c
  1572  0014B4  D78D               	goto	l243
  1573  0014B6  0AE0               	xorlw	224	; case 224
  1574  0014B8  B4D8               	btfsc	status,2,c
  1575  0014BA  D79A               	goto	l2834
  1576  0014BC  0A11               	xorlw	17	; case 241
  1577  0014BE  B4D8               	btfsc	status,2,c
  1578  0014C0  D7D6               	goto	l2860
  1579  0014C2  0A05               	xorlw	5	; case 244
  1580  0014C4  B4D8               	btfsc	status,2,c
  1581  0014C6  0012               	return		;funcret
  1582  0014C8  D7DF               	goto	l2870
  1583  0014CA                     __end_of_karaSimsekHiziOkuma:
  1584                           	callstack 0
  1585                           
  1586 ;; *************** function _karaSimsek *****************
  1587 ;; Defined at:
  1588 ;;		line 169 in file "ornek2.c"
  1589 ;; Parameters:    Size  Location     Type
  1590 ;;  tutucu          1   18[COMRAM] PTR void 
  1591 ;;		 -> main@ksmsk(2), 
  1592 ;; Auto vars:     Size  Location     Type
  1593 ;;  VAZGECIS_BAY    1    0        unsigned char 
  1594 ;; Return value:  Size  Location     Type
  1595 ;;                  1    wreg      unsigned char 
  1596 ;; Registers used:
  1597 ;;		wreg, fsr2l, fsr2h, status,2, status,0, cstack
  1598 ;; Tracked objects:
  1599 ;;		On entry : 0/0
  1600 ;;		On exit  : 0/0
  1601 ;;		Unchanged: 0/0
  1602 ;; Data sizes:     COMRAM   BANK0   BANK1   BANK2   BANK3   BANK4   BANK5   BANK6   BANK7   BANK8   BANK9  BANK10  BANK1
      +1  BANK12  BANK13  BANK14  BANK15
  1603 ;;      Params:         1       0       0       0       0       0       0       0       0       0       0       0       
      +0       0       0       0       0
  1604 ;;      Locals:         1       0       0       0       0       0       0       0       0       0       0       0       
      +0       0       0       0       0
  1605 ;;      Temps:          2       0       0       0       0       0       0       0       0       0       0       0       
      +0       0       0       0       0
  1606 ;;      Totals:         4       0       0       0       0       0       0       0       0       0       0       0       
      +0       0       0       0       0
  1607 ;;Total ram usage:        4 bytes
  1608 ;; Hardware stack levels used:    1
  1609 ;; Hardware stack levels required when called:    4
  1610 ;; This function calls:
  1611 ;;		_grvTikSayiminiAl
  1612 ;; This function is called by:
  1613 ;;		_main
  1614 ;; This function uses a non-reentrant model
  1615 ;;
  1616                           
  1617                           	psect	text7
  1618  001692                     __ptext7:
  1619                           	callstack 0
  1620  001692                     _karaSimsek:
  1621                           	callstack 26
  1622                           
  1623                           ;incstack = 0
  1624  001692  D051               	goto	l2816
  1625  001694                     l2772:
  1626                           
  1627                           ;ornek2.c: 173:  static sure_t s3;;ornek2.c: 174:  static _Bool sola;;ornek2.c: 176:  ka
      +                          rasimsek = 1;
  1628  001694  0E01               	movlw	1
  1629  001696  6E2A               	movwf	_karasimsek^0,c
  1630                           
  1631                           ;ornek2.c: 177:  sola = 1;
  1632  001698  0E01               	movlw	1
  1633  00169A  6E23               	movwf	karaSimsek@sola^0,c
  1634                           
  1635                           ;ornek2.c: 178:  karaSimsekHizi = 50;
  1636  00169C  0E00               	movlw	0
  1637  00169E  6E16               	movwf	(_karaSimsekHizi+1)^0,c
  1638  0016A0  0E32               	movlw	50
  1639  0016A2  6E15               	movwf	_karaSimsekHizi^0,c
  1640  0016A4                     l2774:
  1641                           
  1642                           ;ornek2.c: 182:   ( (gorev_t*) tutucu )->sn = 182; case 182:; if(!(icerik == 10)){ retur
      +                          n 0; };
  1643  0016A4  5042               	movf	karaSimsek@tutucu^0,w,c
  1644  0016A6  6ED9               	movwf	fsr2l,c
  1645  0016A8  6ADA               	clrf	fsr2h,c
  1646  0016AA  0EB6               	movlw	182
  1647  0016AC  6EDE               	movwf	postinc2,c
  1648  0016AE  0E00               	movlw	0
  1649  0016B0  6EDD               	movwf	postdec2,c
  1650  0016B2                     l2776:
  1651  0016B2  0E0A               	movlw	10
  1652  0016B4  184B               	xorwf	_icerik^0,w,c
  1653  0016B6  A4D8               	btfss	status,2,c
  1654  0016B8  0012               	return	
  1655                           
  1656                           ;ornek2.c: 183:   if(sola){
  1657  0016BA  5023               	movf	karaSimsek@sola^0,w,c
  1658  0016BC  B4D8               	btfsc	status,2,c
  1659  0016BE  D008               	goto	l2786
  1660                           
  1661                           ;ornek2.c: 184:    karasimsek <<= 1;
  1662  0016C0  90D8               	bcf	status,0,c
  1663  0016C2  362A               	rlcf	_karasimsek^0,f,c
  1664                           
  1665                           ;ornek2.c: 186:    if(karasimsek == 0x80)
  1666  0016C4  0E80               	movlw	128
  1667  0016C6  182A               	xorwf	_karasimsek^0,w,c
  1668  0016C8  A4D8               	btfss	status,2,c
  1669  0016CA  D009               	goto	l2790
  1670                           
  1671                           ;ornek2.c: 187:     sola = 0;
  1672  0016CC  0E00               	movlw	0
  1673  0016CE  D006               	goto	L2
  1674  0016D0                     l2786:
  1675                           
  1676                           ;ornek2.c: 190:    karasimsek >>= 1;
  1677  0016D0  90D8               	bcf	status,0,c
  1678  0016D2  322A               	rrcf	_karasimsek^0,f,c
  1679                           
  1680                           ;ornek2.c: 192:    if(karasimsek == 1)
  1681  0016D4  042A               	decf	_karasimsek^0,w,c
  1682  0016D6  A4D8               	btfss	status,2,c
  1683  0016D8  D002               	goto	l2790
  1684                           
  1685                           ;ornek2.c: 193:     sola = 1;
  1686  0016DA  0E01               	movlw	1
  1687  0016DC                     L2:
  1688  0016DC  6E23               	movwf	karaSimsek@sola^0,c
  1689  0016DE                     l2790:
  1690                           
  1691                           ;ornek2.c: 195:   if(icerik == 10) icerikDegisti = 1;
  1692  0016DE  0E0A               	movlw	10
  1693  0016E0  184B               	xorwf	_icerik^0,w,c
  1694  0016E2  A4D8               	btfss	status,2,c
  1695  0016E4  D002               	goto	l2794
  1696  0016E6  0E01               	movlw	1
  1697  0016E8  6E2B               	movwf	_icerikDegisti^0,c
  1698  0016EA                     l2794:
  1699                           
  1700                           ;ornek2.c: 197:   ( (sure_t*) &s3 )->kacTik = (karaSimsekHizi / (1000u / 1000u)); ( (sur
      +                          e_t*) &s3 )->baslangic = grvTikSayiminiAl(); ( (gorev_t*) tutucu )->sn = 197; case 197:;
      +                           if(!(( (grvTikSayiminiAl() - ( (sure_t*) &s3 )->baslangic) >= ( (sure_t*) &s3 )->kacTik
      +                           ))){ return 0; };
  1701  0016EA  C015  F00B         	movff	_karaSimsekHizi,karaSimsek@s3+2
  1702  0016EE  C016  F00C         	movff	_karaSimsekHizi+1,karaSimsek@s3+3
  1703  0016F2  ECB3  F00C         	call	_grvTikSayiminiAl	;wreg free
  1704  0016F6  C03E  F009         	movff	?_grvTikSayiminiAl,karaSimsek@s3
  1705  0016FA  C03F  F00A         	movff	?_grvTikSayiminiAl+1,karaSimsek@s3+1
  1706  0016FE  5042               	movf	karaSimsek@tutucu^0,w,c
  1707  001700  6ED9               	movwf	fsr2l,c
  1708  001702  6ADA               	clrf	fsr2h,c
  1709  001704  0EC5               	movlw	197
  1710  001706  6EDE               	movwf	postinc2,c
  1711  001708  0E00               	movlw	0
  1712  00170A  6EDD               	movwf	postdec2,c
  1713  00170C                     l2800:
  1714  00170C  ECB3  F00C         	call	_grvTikSayiminiAl	;wreg free
  1715  001710  5009               	movf	karaSimsek@s3^0,w,c
  1716  001712  5E3E               	subwf	?_grvTikSayiminiAl^0,f,c
  1717  001714  500A               	movf	(karaSimsek@s3+1)^0,w,c
  1718  001716  5A3F               	subwfb	(?_grvTikSayiminiAl+1)^0,f,c
  1719  001718  500B               	movf	(karaSimsek@s3+2)^0,w,c
  1720  00171A  5C3E               	subwf	?_grvTikSayiminiAl^0,w,c
  1721  00171C  500C               	movf	(karaSimsek@s3+3)^0,w,c
  1722  00171E  583F               	subwfb	(?_grvTikSayiminiAl+1)^0,w,c
  1723  001720  A0D8               	btfss	status,0,c
  1724  001722  0012               	return	
  1725  001724  D7BF               	goto	l2774
  1726  001726                     l2810:
  1727  001726  5042               	movf	karaSimsek@tutucu^0,w,c
  1728  001728  6ED9               	movwf	fsr2l,c
  1729  00172A  6ADA               	clrf	fsr2h,c
  1730  00172C  0E00               	movlw	0
  1731  00172E  6EDE               	movwf	postinc2,c
  1732  001730  0E00               	movlw	0
  1733  001732  6EDD               	movwf	postdec2,c
  1734  001734  0012               	return	
  1735  001736                     l2816:
  1736  001736  5042               	movf	karaSimsek@tutucu^0,w,c
  1737  001738  6ED9               	movwf	fsr2l,c
  1738  00173A  6ADA               	clrf	fsr2h,c
  1739  00173C  CFDE F043          	movff	postinc2,??_karaSimsek
  1740  001740  CFDD F044          	movff	postdec2,??_karaSimsek+1
  1741                           
  1742                           ; Switch on 2 bytes has been partitioned into a top level switch of size 1, and 1 sub-sw
      +                          itches
  1743                           ; Switch size 1, requested type "simple"
  1744                           ; Number of cases is 1, Range of values is 0 to 0
  1745                           ; switch strategies available:
  1746                           ; Name         Instructions Cycles
  1747                           ; simple_byte            4     3 (average)
  1748                           ;	Chosen strategy is simple_byte
  1749  001744  5044               	movf	(??_karaSimsek+1)^0,w,c
  1750  001746  0A00               	xorlw	0	; case 0
  1751  001748  A4D8               	btfss	status,2,c
  1752  00174A  D7ED               	goto	l2810
  1753                           
  1754                           ; Switch size 1, requested type "simple"
  1755                           ; Number of cases is 4, Range of values is 0 to 200
  1756                           ; switch strategies available:
  1757                           ; Name         Instructions Cycles
  1758                           ; simple_byte           13     7 (average)
  1759                           ;	Chosen strategy is simple_byte
  1760  00174C  5043               	movf	??_karaSimsek^0,w,c
  1761  00174E  0A00               	xorlw	0	; case 0
  1762  001750  B4D8               	btfsc	status,2,c
  1763  001752  D7A0               	goto	l2772
  1764  001754  0AB6               	xorlw	182	; case 182
  1765  001756  B4D8               	btfsc	status,2,c
  1766  001758  D7AC               	goto	l2776
  1767  00175A  0A73               	xorlw	115	; case 197
  1768  00175C  B4D8               	btfsc	status,2,c
  1769  00175E  D7D6               	goto	l2800
  1770  001760  0A0D               	xorlw	13	; case 200
  1771  001762  B4D8               	btfsc	status,2,c
  1772  001764  0012               	return		;funcret
  1773  001766  D7DF               	goto	l2810
  1774  001768                     __end_of_karaSimsek:
  1775                           	callstack 0
  1776                           
  1777 ;; *************** function _interruptIlkle *****************
  1778 ;; Defined at:
  1779 ;;		line 31 in file "interrupt.c"
  1780 ;; Parameters:    Size  Location     Type
  1781 ;;		None
  1782 ;; Auto vars:     Size  Location     Type
  1783 ;;		None
  1784 ;; Return value:  Size  Location     Type
  1785 ;;                  1    wreg      void 
  1786 ;; Registers used:
  1787 ;;		None
  1788 ;; Tracked objects:
  1789 ;;		On entry : 0/0
  1790 ;;		On exit  : 0/0
  1791 ;;		Unchanged: 0/0
  1792 ;; Data sizes:     COMRAM   BANK0   BANK1   BANK2   BANK3   BANK4   BANK5   BANK6   BANK7   BANK8   BANK9  BANK10  BANK1
      +1  BANK12  BANK13  BANK14  BANK15
  1793 ;;      Params:         0       0       0       0       0       0       0       0       0       0       0       0       
      +0       0       0       0       0
  1794 ;;      Locals:         0       0       0       0       0       0       0       0       0       0       0       0       
      +0       0       0       0       0
  1795 ;;      Temps:          0       0       0       0       0       0       0       0       0       0       0       0       
      +0       0       0       0       0
  1796 ;;      Totals:         0       0       0       0       0       0       0       0       0       0       0       0       
      +0       0       0       0       0
  1797 ;;Total ram usage:        0 bytes
  1798 ;; Hardware stack levels used:    1
  1799 ;; Hardware stack levels required when called:    3
  1800 ;; This function calls:
  1801 ;;		Nothing
  1802 ;; This function is called by:
  1803 ;;		_main
  1804 ;; This function uses a non-reentrant model
  1805 ;;
  1806                           
  1807                           	psect	text8
  1808  0019A0                     __ptext8:
  1809                           	callstack 0
  1810  0019A0                     _interruptIlkle:
  1811                           	callstack 27
  1812                           
  1813                           ;interrupt.c: 34:     RCONbits.IPEN = 0;
  1814                           
  1815                           ;incstack = 0
  1816  0019A0  9ED0               	bcf	208,7,c	;volatile
  1817  0019A2  0012               	return		;funcret
  1818  0019A4                     __end_of_interruptIlkle:
  1819                           	callstack 0
  1820                           
  1821 ;; *************** function _icerikGuncelleyici *****************
  1822 ;; Defined at:
  1823 ;;		line 260 in file "ornek2.c"
  1824 ;; Parameters:    Size  Location     Type
  1825 ;;  tutucu          1   14[COMRAM] PTR void 
  1826 ;;		 -> main@ig(2), 
  1827 ;; Auto vars:     Size  Location     Type
  1828 ;;  VAZGECIS_BAY    1    0        unsigned char 
  1829 ;; Return value:  Size  Location     Type
  1830 ;;                  1    wreg      unsigned char 
  1831 ;; Registers used:
  1832 ;;		wreg, fsr2l, fsr2h, status,2, status,0
  1833 ;; Tracked objects:
  1834 ;;		On entry : 0/0
  1835 ;;		On exit  : 0/0
  1836 ;;		Unchanged: 0/0
  1837 ;; Data sizes:     COMRAM   BANK0   BANK1   BANK2   BANK3   BANK4   BANK5   BANK6   BANK7   BANK8   BANK9  BANK10  BANK1
      +1  BANK12  BANK13  BANK14  BANK15
  1838 ;;      Params:         1       0       0       0       0       0       0       0       0       0       0       0       
      +0       0       0       0       0
  1839 ;;      Locals:         1       0       0       0       0       0       0       0       0       0       0       0       
      +0       0       0       0       0
  1840 ;;      Temps:          2       0       0       0       0       0       0       0       0       0       0       0       
      +0       0       0       0       0
  1841 ;;      Totals:         4       0       0       0       0       0       0       0       0       0       0       0       
      +0       0       0       0       0
  1842 ;;Total ram usage:        4 bytes
  1843 ;; Hardware stack levels used:    1
  1844 ;; Hardware stack levels required when called:    3
  1845 ;; This function calls:
  1846 ;;		Nothing
  1847 ;; This function is called by:
  1848 ;;		_main
  1849 ;; This function uses a non-reentrant model
  1850 ;;
  1851                           
  1852                           	psect	text9
  1853  0014CA                     __ptext9:
  1854                           	callstack 0
  1855  0014CA                     _icerikGuncelleyici:
  1856                           	callstack 27
  1857                           
  1858                           ;incstack = 0
  1859  0014CA  D058               	goto	l2974
  1860  0014CC                     l2926:
  1861                           
  1862                           ;ornek2.c: 273:  LATD = 0;
  1863  0014CC  0E00               	movlw	0
  1864  0014CE  6E8C               	movwf	140,c	;volatile
  1865                           
  1866                           ;ornek2.c: 274:  ANSELD = 0;
  1867  0014D0  0E00               	movlw	0
  1868  0014D2  010F               	movlb	15	; () banked
  1869  0014D4  6F3B               	movwf	59,b	;volatile
  1870                           
  1871                           ;ornek2.c: 275:  TRISD = 0;
  1872  0014D6  0E00               	movlw	0
  1873  0014D8  6E95               	movwf	149,c	;volatile
  1874  0014DA                     
  1875                           ;ornek2.c: 276:  LATD = 0x1;
  1876  0014DA  0E01               	movlw	1
  1877  0014DC                     L3:
  1878  0014DC  6E8C               	movwf	140,c	;volatile
  1879  0014DE                     l2928:
  1880                           
  1881                           ;ornek2.c: 279:   ( (gorev_t*) tutucu )->sn = 279; case 279:; if(!(icerikDegisti == 1)){
      +                           return 0; };
  1882  0014DE  503E               	movf	icerikGuncelleyici@tutucu^0,w,c
  1883  0014E0  6ED9               	movwf	fsr2l,c
  1884  0014E2  6ADA               	clrf	fsr2h,c
  1885  0014E4  0E17               	movlw	23
  1886  0014E6  6EDE               	movwf	postinc2,c
  1887  0014E8  0E01               	movlw	1
  1888  0014EA  6EDD               	movwf	postdec2,c
  1889  0014EC                     l2930:
  1890  0014EC  042B               	decf	_icerikDegisti^0,w,c
  1891  0014EE  A4D8               	btfss	status,2,c
  1892  0014F0  0012               	return	
  1893                           
  1894                           ;ornek2.c: 280:   icerikDegisti = 0;
  1895  0014F2  0E00               	movlw	0
  1896  0014F4  6E2B               	movwf	_icerikDegisti^0,c
  1897                           
  1898                           ;ornek2.c: 281:   if(icerik == 10){
  1899  0014F6  0E0A               	movlw	10
  1900  0014F8  184B               	xorwf	_icerik^0,w,c
  1901  0014FA  A4D8               	btfss	status,2,c
  1902  0014FC  D003               	goto	l2940
  1903                           
  1904                           ;ornek2.c: 282:    LATD = karasimsek;
  1905  0014FE  C02A  FF8C         	movff	_karasimsek,3980	;volatile
  1906                           
  1907                           ;ornek2.c: 283:   } else if(icerik == 20){
  1908  001502  D7ED               	goto	l2928
  1909  001504                     l2940:
  1910  001504  0E14               	movlw	20
  1911  001506  184B               	xorwf	_icerik^0,w,c
  1912  001508  B4D8               	btfsc	status,2,c
  1913  00150A  D00F               	goto	l2960
  1914  00150C  D7E8               	goto	l2928
  1915  00150E                     l285:
  1916  00150E  688C               	setf	140,c	;volatile
  1917  001510  D7E6               	goto	l2928
  1918  001512                     l2944:
  1919  001512  0E7F               	movlw	127
  1920  001514  D7E3               	goto	L3
  1921  001516                     l2946:
  1922  001516  0E3F               	movlw	63
  1923  001518  D7E1               	goto	L3
  1924  00151A                     l2948:
  1925  00151A  0E1F               	movlw	31
  1926  00151C  D7DF               	goto	L3
  1927  00151E                     l2950:
  1928  00151E  0E0F               	movlw	15
  1929  001520  D7DD               	goto	L3
  1930  001522                     l2952:
  1931  001522  0E07               	movlw	7
  1932  001524  D7DB               	goto	L3
  1933  001526                     l2954:
  1934  001526  0E03               	movlw	3
  1935  001528  D7D9               	goto	L3
  1936  00152A                     l2960:
  1937  00152A  5028               	movf	_karasimsekGostergeDegeri^0,w,c
  1938  00152C  6E3F               	movwf	??_icerikGuncelleyici^0,c
  1939  00152E  6A40               	clrf	(??_icerikGuncelleyici+1)^0,c
  1940                           
  1941                           ; Switch on 2 bytes has been partitioned into a top level switch of size 1, and 1 sub-sw
      +                          itches
  1942                           ; Switch size 1, requested type "simple"
  1943                           ; Number of cases is 1, Range of values is 0 to 0
  1944                           ; switch strategies available:
  1945                           ; Name         Instructions Cycles
  1946                           ; simple_byte            4     3 (average)
  1947                           ;	Chosen strategy is simple_byte
  1948  001530  5040               	movf	(??_icerikGuncelleyici+1)^0,w,c
  1949  001532  0A00               	xorlw	0	; case 0
  1950  001534  A4D8               	btfss	status,2,c
  1951  001536  D7D3               	goto	l2928
  1952                           
  1953                           ; Switch size 1, requested type "simple"
  1954                           ; Number of cases is 8, Range of values is 0 to 7
  1955                           ; switch strategies available:
  1956                           ; Name         Instructions Cycles
  1957                           ; simple_byte           25    13 (average)
  1958                           ;	Chosen strategy is simple_byte
  1959  001538  503F               	movf	??_icerikGuncelleyici^0,w,c
  1960  00153A  0A00               	xorlw	0	; case 0
  1961  00153C  B4D8               	btfsc	status,2,c
  1962  00153E  D7E7               	goto	l285
  1963  001540  0A01               	xorlw	1	; case 1
  1964  001542  B4D8               	btfsc	status,2,c
  1965  001544  D7E6               	goto	l2944
  1966  001546  0A03               	xorlw	3	; case 2
  1967  001548  B4D8               	btfsc	status,2,c
  1968  00154A  D7E5               	goto	l2946
  1969  00154C  0A01               	xorlw	1	; case 3
  1970  00154E  B4D8               	btfsc	status,2,c
  1971  001550  D7E4               	goto	l2948
  1972  001552  0A07               	xorlw	7	; case 4
  1973  001554  B4D8               	btfsc	status,2,c
  1974  001556  D7E3               	goto	l2950
  1975  001558  0A01               	xorlw	1	; case 5
  1976  00155A  B4D8               	btfsc	status,2,c
  1977  00155C  D7E2               	goto	l2952
  1978  00155E  0A03               	xorlw	3	; case 6
  1979  001560  B4D8               	btfsc	status,2,c
  1980  001562  D7E1               	goto	l2954
  1981  001564  0A01               	xorlw	1	; case 7
  1982  001566  B4D8               	btfsc	status,2,c
  1983  001568  D7B8               	goto	L4
  1984  00156A  D7B9               	goto	l2928
  1985  00156C                     l2968:
  1986  00156C  503E               	movf	icerikGuncelleyici@tutucu^0,w,c
  1987  00156E  6ED9               	movwf	fsr2l,c
  1988  001570  6ADA               	clrf	fsr2h,c
  1989  001572  0E00               	movlw	0
  1990  001574  6EDE               	movwf	postinc2,c
  1991  001576  0E00               	movlw	0
  1992  001578  6EDD               	movwf	postdec2,c
  1993  00157A  0012               	return	
  1994  00157C                     l2974:
  1995  00157C  503E               	movf	icerikGuncelleyici@tutucu^0,w,c
  1996  00157E  6ED9               	movwf	fsr2l,c
  1997  001580  6ADA               	clrf	fsr2h,c
  1998  001582  CFDE F03F          	movff	postinc2,??_icerikGuncelleyici
  1999  001586  CFDD F040          	movff	postdec2,??_icerikGuncelleyici+1
  2000                           
  2001                           ; Switch on 2 bytes has been partitioned into a top level switch of size 1, and 2 sub-sw
      +                          itches
  2002                           ; Switch size 1, requested type "simple"
  2003                           ; Number of cases is 2, Range of values is 0 to 1
  2004                           ; switch strategies available:
  2005                           ; Name         Instructions Cycles
  2006                           ; simple_byte            7     4 (average)
  2007                           ;	Chosen strategy is simple_byte
  2008  00158A  5040               	movf	(??_icerikGuncelleyici+1)^0,w,c
  2009  00158C  0A00               	xorlw	0	; case 0
  2010  00158E  B4D8               	btfsc	status,2,c
  2011  001590  D004               	goto	l3346
  2012  001592  0A01               	xorlw	1	; case 1
  2013  001594  B4D8               	btfsc	status,2,c
  2014  001596  D006               	goto	l3348
  2015  001598  D7E9               	goto	l2968
  2016  00159A                     l3346:
  2017                           
  2018                           ; Switch size 1, requested type "simple"
  2019                           ; Number of cases is 1, Range of values is 0 to 0
  2020                           ; switch strategies available:
  2021                           ; Name         Instructions Cycles
  2022                           ; simple_byte            4     3 (average)
  2023                           ;	Chosen strategy is simple_byte
  2024  00159A  503F               	movf	??_icerikGuncelleyici^0,w,c
  2025  00159C  0A00               	xorlw	0	; case 0
  2026  00159E  B4D8               	btfsc	status,2,c
  2027  0015A0  D795               	goto	l2926
  2028  0015A2  D7E4               	goto	l2968
  2029  0015A4                     l3348:
  2030                           
  2031                           ; Switch size 1, requested type "simple"
  2032                           ; Number of cases is 2, Range of values is 23 to 41
  2033                           ; switch strategies available:
  2034                           ; Name         Instructions Cycles
  2035                           ; simple_byte            7     4 (average)
  2036                           ;	Chosen strategy is simple_byte
  2037  0015A4  503F               	movf	??_icerikGuncelleyici^0,w,c
  2038  0015A6  0A17               	xorlw	23	; case 23
  2039  0015A8  B4D8               	btfsc	status,2,c
  2040  0015AA  D7A0               	goto	l2930
  2041  0015AC  0A3E               	xorlw	62	; case 41
  2042  0015AE  B4D8               	btfsc	status,2,c
  2043  0015B0  0012               	return		;funcret
  2044  0015B2  D7DC               	goto	l2968
  2045  0015B4                     __end_of_icerikGuncelleyici:
  2046                           	callstack 0
  2047                           
  2048 ;; *************** function _icerikDegistirici *****************
  2049 ;; Defined at:
  2050 ;;		line 300 in file "ornek2.c"
  2051 ;; Parameters:    Size  Location     Type
  2052 ;;  tutucu          1   18[COMRAM] PTR void 
  2053 ;;		 -> main@id(2), 
  2054 ;; Auto vars:     Size  Location     Type
  2055 ;;  VAZGECIS_BAY    1    0        unsigned char 
  2056 ;; Return value:  Size  Location     Type
  2057 ;;                  1    wreg      unsigned char 
  2058 ;; Registers used:
  2059 ;;		wreg, fsr2l, fsr2h, status,2, status,0, cstack
  2060 ;; Tracked objects:
  2061 ;;		On entry : 0/0
  2062 ;;		On exit  : 0/0
  2063 ;;		Unchanged: 0/0
  2064 ;; Data sizes:     COMRAM   BANK0   BANK1   BANK2   BANK3   BANK4   BANK5   BANK6   BANK7   BANK8   BANK9  BANK10  BANK1
      +1  BANK12  BANK13  BANK14  BANK15
  2065 ;;      Params:         1       0       0       0       0       0       0       0       0       0       0       0       
      +0       0       0       0       0
  2066 ;;      Locals:         3       0       0       0       0       0       0       0       0       0       0       0       
      +0       0       0       0       0
  2067 ;;      Temps:          2       0       0       0       0       0       0       0       0       0       0       0       
      +0       0       0       0       0
  2068 ;;      Totals:         6       0       0       0       0       0       0       0       0       0       0       0       
      +0       0       0       0       0
  2069 ;;Total ram usage:        6 bytes
  2070 ;; Hardware stack levels used:    1
  2071 ;; Hardware stack levels required when called:    4
  2072 ;; This function calls:
  2073 ;;		_grvTikSayiminiAl
  2074 ;; This function is called by:
  2075 ;;		_main
  2076 ;; This function uses a non-reentrant model
  2077 ;;
  2078                           
  2079                           	psect	text10
  2080  0015B4                     __ptext10:
  2081                           	callstack 0
  2082  0015B4                     _icerikDegistirici:
  2083                           	callstack 26
  2084                           
  2085                           ;incstack = 0
  2086  0015B4  D04C               	goto	l3040
  2087  0015B6                     l304:
  2088                           
  2089                           ;ornek2.c: 306:  ANSELBbits.ANSB4 = 0;
  2090  0015B6  010F               	movlb	15	; () banked
  2091  0015B8  9939               	bcf	57,4,b	;volatile
  2092                           
  2093                           ;ornek2.c: 307:  LATBbits.LATB4 = 0;
  2094  0015BA  988A               	bcf	138,4,c	;volatile
  2095                           
  2096                           ;ornek2.c: 308:  TRISBbits.TRISB4 = 1;
  2097  0015BC  8893               	bsf	147,4,c	;volatile
  2098  0015BE                     l2996:
  2099                           
  2100                           ;ornek2.c: 311:   ( (gorev_t*) tutucu )->sn = 311; case 311:; if(!(PORTBbits.RB4 == 0)){
      +                           return 0; };
  2101  0015BE  5042               	movf	icerikDegistirici@tutucu^0,w,c
  2102  0015C0  6ED9               	movwf	fsr2l,c
  2103  0015C2  6ADA               	clrf	fsr2h,c
  2104  0015C4  0E37               	movlw	55
  2105  0015C6  6EDE               	movwf	postinc2,c
  2106  0015C8  0E01               	movlw	1
  2107  0015CA  6EDD               	movwf	postdec2,c
  2108  0015CC                     l2998:
  2109  0015CC  B881               	btfsc	129,4,c	;volatile
  2110  0015CE  0012               	return	
  2111                           
  2112                           ;ornek2.c: 312:   ( (sure_t*) &s5 )->kacTik = (100u / (1000u / 1000u)); ( (sure_t*) &s5 
      +                          )->baslangic = grvTikSayiminiAl(); ( (gorev_t*) tutucu )->sn = 312; case 312:; if(!(( (g
      +                          rvTikSayiminiAl() - ( (sure_t*) &s5 )->baslangic) >= ( (sure_t*) &s5 )->kacTik ))){ retu
      +                          rn 0; };
  2113  0015D0  0E00               	movlw	0
  2114  0015D2  6E04               	movwf	(icerikDegistirici@s5+3)^0,c
  2115  0015D4  0E64               	movlw	100
  2116  0015D6  6E03               	movwf	(icerikDegistirici@s5+2)^0,c
  2117  0015D8  ECB3  F00C         	call	_grvTikSayiminiAl	;wreg free
  2118  0015DC  C03E  F001         	movff	?_grvTikSayiminiAl,icerikDegistirici@s5
  2119  0015E0  C03F  F002         	movff	?_grvTikSayiminiAl+1,icerikDegistirici@s5+1
  2120  0015E4  5042               	movf	icerikDegistirici@tutucu^0,w,c
  2121  0015E6  6ED9               	movwf	fsr2l,c
  2122  0015E8  6ADA               	clrf	fsr2h,c
  2123  0015EA  0E38               	movlw	56
  2124  0015EC  6EDE               	movwf	postinc2,c
  2125  0015EE  0E01               	movlw	1
  2126  0015F0  6EDD               	movwf	postdec2,c
  2127  0015F2                     l3008:
  2128  0015F2  ECB3  F00C         	call	_grvTikSayiminiAl	;wreg free
  2129  0015F6  5001               	movf	icerikDegistirici@s5^0,w,c
  2130  0015F8  5E3E               	subwf	?_grvTikSayiminiAl^0,f,c
  2131  0015FA  5002               	movf	(icerikDegistirici@s5+1)^0,w,c
  2132  0015FC  5A3F               	subwfb	(?_grvTikSayiminiAl+1)^0,f,c
  2133  0015FE  5003               	movf	(icerikDegistirici@s5+2)^0,w,c
  2134  001600  5C3E               	subwf	?_grvTikSayiminiAl^0,w,c
  2135  001602  5004               	movf	(icerikDegistirici@s5+3)^0,w,c
  2136  001604  583F               	subwfb	(?_grvTikSayiminiAl+1)^0,w,c
  2137  001606  A0D8               	btfss	status,0,c
  2138  001608  0012               	return	
  2139                           
  2140                           ;ornek2.c: 314:   if(PORTBbits.RB4 != 0) continue;
  2141  00160A  B881               	btfsc	129,4,c	;volatile
  2142  00160C  D7D8               	goto	l2996
  2143                           
  2144                           ;ornek2.c: 319:   icerik = icerik == 10 ? 20 : 10;
  2145  00160E  0E0A               	movlw	10
  2146  001610  184B               	xorwf	_icerik^0,w,c
  2147  001612  B4D8               	btfsc	status,2,c
  2148  001614  D004               	goto	l3018
  2149  001616  0E00               	movlw	0
  2150  001618  6E47               	movwf	(_icerikDegistirici$907+1)^0,c
  2151  00161A  0E0A               	movlw	10
  2152  00161C  D003               	goto	L5
  2153  00161E                     l3018:
  2154  00161E  0E00               	movlw	0
  2155  001620  6E47               	movwf	(_icerikDegistirici$907+1)^0,c
  2156  001622  0E14               	movlw	20
  2157  001624                     L5:
  2158  001624  6E46               	movwf	_icerikDegistirici$907^0,c
  2159  001626  C046  F04B         	movff	_icerikDegistirici$907,_icerik
  2160                           
  2161                           ;ornek2.c: 322:   ( (gorev_t*) tutucu )->sn = 322; case 322:; if((PORTBbits.RB4 == 0)){ 
      +                          return 0; };
  2162  00162A  5042               	movf	icerikDegistirici@tutucu^0,w,c
  2163  00162C  6ED9               	movwf	fsr2l,c
  2164  00162E  6ADA               	clrf	fsr2h,c
  2165  001630  0E42               	movlw	66
  2166  001632  6EDE               	movwf	postinc2,c
  2167  001634  0E01               	movlw	1
  2168  001636  6EDD               	movwf	postdec2,c
  2169  001638                     l3024:
  2170  001638  A881               	btfss	129,4,c	;volatile
  2171  00163A  0012               	return	
  2172  00163C  D7C0               	goto	l2996
  2173  00163E                     l3034:
  2174  00163E  5042               	movf	icerikDegistirici@tutucu^0,w,c
  2175  001640  6ED9               	movwf	fsr2l,c
  2176  001642  6ADA               	clrf	fsr2h,c
  2177  001644  0E00               	movlw	0
  2178  001646  6EDE               	movwf	postinc2,c
  2179  001648  0E00               	movlw	0
  2180  00164A  6EDD               	movwf	postdec2,c
  2181  00164C  0012               	return	
  2182  00164E                     l3040:
  2183  00164E  5042               	movf	icerikDegistirici@tutucu^0,w,c
  2184  001650  6ED9               	movwf	fsr2l,c
  2185  001652  6ADA               	clrf	fsr2h,c
  2186  001654  CFDE F043          	movff	postinc2,??_icerikDegistirici
  2187  001658  CFDD F044          	movff	postdec2,??_icerikDegistirici+1
  2188                           
  2189                           ; Switch on 2 bytes has been partitioned into a top level switch of size 1, and 2 sub-sw
      +                          itches
  2190                           ; Switch size 1, requested type "simple"
  2191                           ; Number of cases is 2, Range of values is 0 to 1
  2192                           ; switch strategies available:
  2193                           ; Name         Instructions Cycles
  2194                           ; simple_byte            7     4 (average)
  2195                           ;	Chosen strategy is simple_byte
  2196  00165C  5044               	movf	(??_icerikDegistirici+1)^0,w,c
  2197  00165E  0A00               	xorlw	0	; case 0
  2198  001660  B4D8               	btfsc	status,2,c
  2199  001662  D004               	goto	l3350
  2200  001664  0A01               	xorlw	1	; case 1
  2201  001666  B4D8               	btfsc	status,2,c
  2202  001668  D006               	goto	l3352
  2203  00166A  D7E9               	goto	l3034
  2204  00166C                     l3350:
  2205                           
  2206                           ; Switch size 1, requested type "simple"
  2207                           ; Number of cases is 1, Range of values is 0 to 0
  2208                           ; switch strategies available:
  2209                           ; Name         Instructions Cycles
  2210                           ; simple_byte            4     3 (average)
  2211                           ;	Chosen strategy is simple_byte
  2212  00166C  5043               	movf	??_icerikDegistirici^0,w,c
  2213  00166E  0A00               	xorlw	0	; case 0
  2214  001670  B4D8               	btfsc	status,2,c
  2215  001672  D7A1               	goto	l304
  2216  001674  D7E4               	goto	l3034
  2217  001676                     l3352:
  2218                           
  2219                           ; Switch size 1, requested type "simple"
  2220                           ; Number of cases is 4, Range of values is 55 to 69
  2221                           ; switch strategies available:
  2222                           ; Name         Instructions Cycles
  2223                           ; simple_byte           13     7 (average)
  2224                           ;	Chosen strategy is simple_byte
  2225  001676  5043               	movf	??_icerikDegistirici^0,w,c
  2226  001678  0A37               	xorlw	55	; case 55
  2227  00167A  B4D8               	btfsc	status,2,c
  2228  00167C  D7A7               	goto	l2998
  2229  00167E  0A0F               	xorlw	15	; case 56
  2230  001680  B4D8               	btfsc	status,2,c
  2231  001682  D7B7               	goto	l3008
  2232  001684  0A7A               	xorlw	122	; case 66
  2233  001686  B4D8               	btfsc	status,2,c
  2234  001688  D7D7               	goto	l3024
  2235  00168A  0A07               	xorlw	7	; case 69
  2236  00168C  B4D8               	btfsc	status,2,c
  2237  00168E  0012               	return		;funcret
  2238  001690  D7D6               	goto	l3034
  2239  001692                     __end_of_icerikDegistirici:
  2240                           	callstack 0
  2241                           
  2242 ;; *************** function _grvTikSayiminiAl *****************
  2243 ;; Defined at:
  2244 ;;		line 109 in file "../../../../../kaynak/gorev.c"
  2245 ;; Parameters:    Size  Location     Type
  2246 ;;		None
  2247 ;; Auto vars:     Size  Location     Type
  2248 ;;  sayim           2   16[COMRAM] unsigned int 
  2249 ;; Return value:  Size  Location     Type
  2250 ;;                  2   14[COMRAM] unsigned int 
  2251 ;; Registers used:
  2252 ;;		None
  2253 ;; Tracked objects:
  2254 ;;		On entry : 0/F
  2255 ;;		On exit  : 0/0
  2256 ;;		Unchanged: 0/0
  2257 ;; Data sizes:     COMRAM   BANK0   BANK1   BANK2   BANK3   BANK4   BANK5   BANK6   BANK7   BANK8   BANK9  BANK10  BANK1
      +1  BANK12  BANK13  BANK14  BANK15
  2258 ;;      Params:         2       0       0       0       0       0       0       0       0       0       0       0       
      +0       0       0       0       0
  2259 ;;      Locals:         2       0       0       0       0       0       0       0       0       0       0       0       
      +0       0       0       0       0
  2260 ;;      Temps:          0       0       0       0       0       0       0       0       0       0       0       0       
      +0       0       0       0       0
  2261 ;;      Totals:         4       0       0       0       0       0       0       0       0       0       0       0       
      +0       0       0       0       0
  2262 ;;Total ram usage:        4 bytes
  2263 ;; Hardware stack levels used:    1
  2264 ;; Hardware stack levels required when called:    3
  2265 ;; This function calls:
  2266 ;;		Nothing
  2267 ;; This function is called by:
  2268 ;;		_ledCakarlama1
  2269 ;;		_ledCakarlama2
  2270 ;;		_karaSimsek
  2271 ;;		_karaSimsekHiziOkuma
  2272 ;;		_icerikDegistirici
  2273 ;; This function uses a non-reentrant model
  2274 ;;
  2275                           
  2276                           	psect	text11
  2277  001966                     __ptext11:
  2278                           	callstack 0
  2279  001966                     _grvTikSayiminiAl:
  2280                           	callstack 26
  2281                           
  2282                           ;../../../../../kaynak/gorev.c: 110:  unsigned int sayim;;../../../../../kaynak/gorev.c:
      +                           112:  intconYedek = INTCON; INTCONbits.GIEH = 0;;
  2283                           
  2284                           ;incstack = 0
  2285  001966  CFF2 F02D          	movff	4082,_intconYedek@portmacro$F371	;volatile
  2286  00196A  9EF2               	bcf	242,7,c	;volatile
  2287                           
  2288                           ;../../../../../kaynak/gorev.c: 113:  sayim = tikSayimi;
  2289  00196C  C019  F040         	movff	_tikSayimi,grvTikSayiminiAl@sayim
  2290  001970  C01A  F041         	movff	_tikSayimi+1,grvTikSayiminiAl@sayim+1
  2291                           
  2292                           ;../../../../../kaynak/gorev.c: 115:  if(intconYedek & 0x80){ INTCONbits.GIEH = 1;; };
  2293  001974  BE2D               	btfsc	_intconYedek@portmacro$F371^0,7,c
  2294  001976  8EF2               	bsf	242,7,c	;volatile
  2295                           
  2296                           ;../../../../../kaynak/gorev.c: 116:  return sayim;
  2297  001978  C040  F03E         	movff	grvTikSayiminiAl@sayim,?_grvTikSayiminiAl
  2298  00197C  C041  F03F         	movff	grvTikSayiminiAl@sayim+1,?_grvTikSayiminiAl+1
  2299  001980  0012               	return		;funcret
  2300  001982                     __end_of_grvTikSayiminiAl:
  2301                           	callstack 0
  2302                           
  2303 ;; *************** function _gostergeDegeriHesapla *****************
  2304 ;; Defined at:
  2305 ;;		line 247 in file "ornek2.c"
  2306 ;; Parameters:    Size  Location     Type
  2307 ;;  tutucu          1   21[COMRAM] PTR void 
  2308 ;;		 -> main@gdh(2), 
  2309 ;; Auto vars:     Size  Location     Type
  2310 ;;  VAZGECIS_BAY    1    0        unsigned char 
  2311 ;; Return value:  Size  Location     Type
  2312 ;;                  1    wreg      unsigned char 
  2313 ;; Registers used:
  2314 ;;		wreg, fsr2l, fsr2h, status,2, status,0, cstack
  2315 ;; Tracked objects:
  2316 ;;		On entry : 0/0
  2317 ;;		On exit  : 0/0
  2318 ;;		Unchanged: 0/0
  2319 ;; Data sizes:     COMRAM   BANK0   BANK1   BANK2   BANK3   BANK4   BANK5   BANK6   BANK7   BANK8   BANK9  BANK10  BANK1
      +1  BANK12  BANK13  BANK14  BANK15
  2320 ;;      Params:         1       0       0       0       0       0       0       0       0       0       0       0       
      +0       0       0       0       0
  2321 ;;      Locals:         1       0       0       0       0       0       0       0       0       0       0       0       
      +0       0       0       0       0
  2322 ;;      Temps:          2       0       0       0       0       0       0       0       0       0       0       0       
      +0       0       0       0       0
  2323 ;;      Totals:         4       0       0       0       0       0       0       0       0       0       0       0       
      +0       0       0       0       0
  2324 ;;Total ram usage:        4 bytes
  2325 ;; Hardware stack levels used:    1
  2326 ;; Hardware stack levels required when called:    4
  2327 ;; This function calls:
  2328 ;;		___lwdiv
  2329 ;; This function is called by:
  2330 ;;		_main
  2331 ;; This function uses a non-reentrant model
  2332 ;;
  2333                           
  2334                           	psect	text12
  2335  001768                     __ptext12:
  2336                           	callstack 0
  2337  001768                     _gostergeDegeriHesapla:
  2338                           	callstack 26
  2339                           
  2340                           ;incstack = 0
  2341  001768  D02E               	goto	l2914
  2342  00176A                     l2884:
  2343                           
  2344                           ;ornek2.c: 251:   ( (gorev_t*) tutucu )->sn = 251; case 251:; if(!(icerik == 20)){ retur
      +                          n 0; };
  2345  00176A  5045               	movf	gostergeDegeriHesapla@tutucu^0,w,c
  2346  00176C  6ED9               	movwf	fsr2l,c
  2347  00176E  6ADA               	clrf	fsr2h,c
  2348  001770  0EFB               	movlw	251
  2349  001772  6EDE               	movwf	postinc2,c
  2350  001774  0E00               	movlw	0
  2351  001776  6EDD               	movwf	postdec2,c
  2352  001778                     l2886:
  2353  001778  0E14               	movlw	20
  2354  00177A  184B               	xorwf	_icerik^0,w,c
  2355  00177C  A4D8               	btfss	status,2,c
  2356  00177E  0012               	return	
  2357                           
  2358                           ;ornek2.c: 252:   ( (gorev_t*) tutucu )->sn = 252; case 252:; if(!(karasimsekHiziOkundu 
      +                          == 1)){ return 0; };
  2359  001780  5045               	movf	gostergeDegeriHesapla@tutucu^0,w,c
  2360  001782  6ED9               	movwf	fsr2l,c
  2361  001784  6ADA               	clrf	fsr2h,c
  2362  001786  0EFC               	movlw	252
  2363  001788  6EDE               	movwf	postinc2,c
  2364  00178A  0E00               	movlw	0
  2365  00178C  6EDD               	movwf	postdec2,c
  2366  00178E                     l2892:
  2367  00178E  0427               	decf	_karasimsekHiziOkundu^0,w,c
  2368  001790  A4D8               	btfss	status,2,c
  2369  001792  0012               	return	
  2370                           
  2371                           ;ornek2.c: 253:   karasimsekHiziOkundu = 0;
  2372  001794  0E00               	movlw	0
  2373  001796  6E27               	movwf	_karasimsekHiziOkundu^0,c
  2374                           
  2375                           ;ornek2.c: 254:   karasimsekGostergeDegeri = (uint8_t) (gercekDeger / (uint8_t) ((1024u 
      +                          - 50u) / (7u - 0u)));
  2376  001798  C017  F03E         	movff	_gercekDeger,___lwdiv@dividend
  2377  00179C  C018  F03F         	movff	_gercekDeger+1,___lwdiv@dividend+1
  2378  0017A0  0E00               	movlw	0
  2379  0017A2  6E41               	movwf	(___lwdiv@divisor+1)^0,c
  2380  0017A4  0E8B               	movlw	139
  2381  0017A6  6E40               	movwf	___lwdiv@divisor^0,c
  2382  0017A8  EC47  F00C         	call	___lwdiv	;wreg free
  2383  0017AC  503E               	movf	?___lwdiv^0,w,c
  2384  0017AE  6E28               	movwf	_karasimsekGostergeDegeri^0,c
  2385                           
  2386                           ;ornek2.c: 255:   icerikDegisti = 1;
  2387  0017B0  0E01               	movlw	1
  2388  0017B2  6E2B               	movwf	_icerikDegisti^0,c
  2389  0017B4  D7DA               	goto	l2884
  2390  0017B6                     l2908:
  2391  0017B6  5045               	movf	gostergeDegeriHesapla@tutucu^0,w,c
  2392  0017B8  6ED9               	movwf	fsr2l,c
  2393  0017BA  6ADA               	clrf	fsr2h,c
  2394  0017BC  0E00               	movlw	0
  2395  0017BE  6EDE               	movwf	postinc2,c
  2396  0017C0  0E00               	movlw	0
  2397  0017C2  6EDD               	movwf	postdec2,c
  2398  0017C4  0012               	return	
  2399  0017C6                     l2914:
  2400  0017C6  5045               	movf	gostergeDegeriHesapla@tutucu^0,w,c
  2401  0017C8  6ED9               	movwf	fsr2l,c
  2402  0017CA  6ADA               	clrf	fsr2h,c
  2403  0017CC  CFDE F046          	movff	postinc2,??_gostergeDegeriHesapla
  2404  0017D0  CFDD F047          	movff	postdec2,??_gostergeDegeriHesapla+1
  2405                           
  2406                           ; Switch on 2 bytes has been partitioned into a top level switch of size 1, and 2 sub-sw
      +                          itches
  2407                           ; Switch size 1, requested type "simple"
  2408                           ; Number of cases is 2, Range of values is 0 to 1
  2409                           ; switch strategies available:
  2410                           ; Name         Instructions Cycles
  2411                           ; simple_byte            7     4 (average)
  2412                           ;	Chosen strategy is simple_byte
  2413  0017D4  5047               	movf	(??_gostergeDegeriHesapla+1)^0,w,c
  2414  0017D6  0A00               	xorlw	0	; case 0
  2415  0017D8  B4D8               	btfsc	status,2,c
  2416  0017DA  D004               	goto	l3354
  2417  0017DC  0A01               	xorlw	1	; case 1
  2418  0017DE  B4D8               	btfsc	status,2,c
  2419  0017E0  D00C               	goto	l3356
  2420  0017E2  D7E9               	goto	l2908
  2421  0017E4                     l3354:
  2422                           
  2423                           ; Switch size 1, requested type "simple"
  2424                           ; Number of cases is 3, Range of values is 0 to 252
  2425                           ; switch strategies available:
  2426                           ; Name         Instructions Cycles
  2427                           ; simple_byte           10     6 (average)
  2428                           ;	Chosen strategy is simple_byte
  2429  0017E4  5046               	movf	??_gostergeDegeriHesapla^0,w,c
  2430  0017E6  0A00               	xorlw	0	; case 0
  2431  0017E8  B4D8               	btfsc	status,2,c
  2432  0017EA  D7BF               	goto	l2884
  2433  0017EC  0AFB               	xorlw	251	; case 251
  2434  0017EE  B4D8               	btfsc	status,2,c
  2435  0017F0  D7C3               	goto	l2886
  2436  0017F2  0A07               	xorlw	7	; case 252
  2437  0017F4  B4D8               	btfsc	status,2,c
  2438  0017F6  D7CB               	goto	l2892
  2439  0017F8  D7DE               	goto	l2908
  2440  0017FA                     l3356:
  2441                           
  2442                           ; Switch size 1, requested type "simple"
  2443                           ; Number of cases is 1, Range of values is 1 to 1
  2444                           ; switch strategies available:
  2445                           ; Name         Instructions Cycles
  2446                           ; simple_byte            4     3 (average)
  2447                           ;	Chosen strategy is simple_byte
  2448  0017FA  5046               	movf	??_gostergeDegeriHesapla^0,w,c
  2449  0017FC  0A01               	xorlw	1	; case 1
  2450  0017FE  B4D8               	btfsc	status,2,c
  2451  001800  0012               	return		;funcret
  2452  001802  D7D9               	goto	l2908
  2453  001804                     __end_of_gostergeDegeriHesapla:
  2454                           	callstack 0
  2455                           
  2456 ;; *************** function ___lwdiv *****************
  2457 ;; Defined at:
  2458 ;;		line 7 in file "/opt/microchip/xc8/v2.31/pic/sources/c99/common/lwdiv.c"
  2459 ;; Parameters:    Size  Location     Type
  2460 ;;  dividend        2   14[COMRAM] unsigned int 
  2461 ;;  divisor         2   16[COMRAM] unsigned int 
  2462 ;; Auto vars:     Size  Location     Type
  2463 ;;  quotient        2   19[COMRAM] unsigned int 
  2464 ;;  counter         1   18[COMRAM] unsigned char 
  2465 ;; Return value:  Size  Location     Type
  2466 ;;                  2   14[COMRAM] unsigned int 
  2467 ;; Registers used:
  2468 ;;		wreg, status,2, status,0
  2469 ;; Tracked objects:
  2470 ;;		On entry : 0/0
  2471 ;;		On exit  : 0/0
  2472 ;;		Unchanged: 0/0
  2473 ;; Data sizes:     COMRAM   BANK0   BANK1   BANK2   BANK3   BANK4   BANK5   BANK6   BANK7   BANK8   BANK9  BANK10  BANK1
      +1  BANK12  BANK13  BANK14  BANK15
  2474 ;;      Params:         4       0       0       0       0       0       0       0       0       0       0       0       
      +0       0       0       0       0
  2475 ;;      Locals:         3       0       0       0       0       0       0       0       0       0       0       0       
      +0       0       0       0       0
  2476 ;;      Temps:          0       0       0       0       0       0       0       0       0       0       0       0       
      +0       0       0       0       0
  2477 ;;      Totals:         7       0       0       0       0       0       0       0       0       0       0       0       
      +0       0       0       0       0
  2478 ;;Total ram usage:        7 bytes
  2479 ;; Hardware stack levels used:    1
  2480 ;; Hardware stack levels required when called:    3
  2481 ;; This function calls:
  2482 ;;		Nothing
  2483 ;; This function is called by:
  2484 ;;		_karaSimsekHiziOkuma
  2485 ;;		_gostergeDegeriHesapla
  2486 ;; This function uses a non-reentrant model
  2487 ;;
  2488                           
  2489                           	psect	text13
  2490  00188E                     __ptext13:
  2491                           	callstack 0
  2492  00188E                     ___lwdiv:
  2493                           	callstack 26
  2494                           
  2495                           ;incstack = 0
  2496  00188E  0E00               	movlw	0
  2497  001890  6E44               	movwf	(___lwdiv@quotient+1)^0,c
  2498  001892  0E00               	movlw	0
  2499  001894  6E43               	movwf	___lwdiv@quotient^0,c
  2500  001896  5040               	movf	___lwdiv@divisor^0,w,c
  2501  001898  1041               	iorwf	(___lwdiv@divisor+1)^0,w,c
  2502  00189A  B4D8               	btfsc	status,2,c
  2503  00189C  D01C               	goto	l824
  2504  00189E  0E01               	movlw	1
  2505  0018A0  6E42               	movwf	___lwdiv@counter^0,c
  2506  0018A2  D004               	goto	l2580
  2507  0018A4                     l2578:
  2508  0018A4  90D8               	bcf	status,0,c
  2509  0018A6  3640               	rlcf	___lwdiv@divisor^0,f,c
  2510  0018A8  3641               	rlcf	(___lwdiv@divisor+1)^0,f,c
  2511  0018AA  2A42               	incf	___lwdiv@counter^0,f,c
  2512  0018AC                     l2580:
  2513  0018AC  AE41               	btfss	(___lwdiv@divisor+1)^0,7,c
  2514  0018AE  D7FA               	goto	l2578
  2515  0018B0                     u1140:
  2516  0018B0  90D8               	bcf	status,0,c
  2517  0018B2  3643               	rlcf	___lwdiv@quotient^0,f,c
  2518  0018B4  3644               	rlcf	(___lwdiv@quotient+1)^0,f,c
  2519  0018B6  5040               	movf	___lwdiv@divisor^0,w,c
  2520  0018B8  5C3E               	subwf	___lwdiv@dividend^0,w,c
  2521  0018BA  5041               	movf	(___lwdiv@divisor+1)^0,w,c
  2522  0018BC  583F               	subwfb	(___lwdiv@dividend+1)^0,w,c
  2523  0018BE  A0D8               	btfss	status,0,c
  2524  0018C0  D005               	goto	l2590
  2525  0018C2  5040               	movf	___lwdiv@divisor^0,w,c
  2526  0018C4  5E3E               	subwf	___lwdiv@dividend^0,f,c
  2527  0018C6  5041               	movf	(___lwdiv@divisor+1)^0,w,c
  2528  0018C8  5A3F               	subwfb	(___lwdiv@dividend+1)^0,f,c
  2529  0018CA  8043               	bsf	___lwdiv@quotient^0,0,c
  2530  0018CC                     l2590:
  2531  0018CC  90D8               	bcf	status,0,c
  2532  0018CE  3241               	rrcf	(___lwdiv@divisor+1)^0,f,c
  2533  0018D0  3240               	rrcf	___lwdiv@divisor^0,f,c
  2534  0018D2  2E42               	decfsz	___lwdiv@counter^0,f,c
  2535  0018D4  D7ED               	goto	u1140
  2536  0018D6                     l824:
  2537  0018D6  C043  F03E         	movff	___lwdiv@quotient,?___lwdiv
  2538  0018DA  C044  F03F         	movff	___lwdiv@quotient+1,?___lwdiv+1
  2539  0018DE  0012               	return		;funcret
  2540  0018E0                     __end_of___lwdiv:
  2541                           	callstack 0
  2542                           
  2543 ;; *************** function _interruptYonetici *****************
  2544 ;; Defined at:
  2545 ;;		line 50 in file "interrupt.c"
  2546 ;; Parameters:    Size  Location     Type
  2547 ;;		None
  2548 ;; Auto vars:     Size  Location     Type
  2549 ;;		None
  2550 ;; Return value:  Size  Location     Type
  2551 ;;                  1    wreg      void 
  2552 ;; Registers used:
  2553 ;;		wreg, fsr0l, fsr0h, fsr1l, fsr1h, fsr1l, fsr1h, fsr2l, fsr2h, status,2, status,0, pclath, btemp, btemp+1, btemp+2, b
      +temp+3, btemp+4, btemp+5, btemp+6, btemp+7, btemp+8, btemp+9, btemp+10, btemp+11, btemp+12, btemp+13, btemp+14, btemp+15
      +, btemp+16, btemp+17, btemp+18, btemp+19, btemp+20, btemp+21, btemp+22, btemp+23, btemp+24, btemp+25, btemp+26, btemp+27
      +, btemp+28, btemp+29, btemp+30, btemp+31, tosl, structret, tblptrl, tblptrh, tblptru, prodl, prodh, bsr, cstack
  2554 ;; Tracked objects:
  2555 ;;		On entry : 0/0
  2556 ;;		On exit  : 0/0
  2557 ;;		Unchanged: 0/0
  2558 ;; Data sizes:     COMRAM   BANK0   BANK1   BANK2   BANK3   BANK4   BANK5   BANK6   BANK7   BANK8   BANK9  BANK10  BANK1
      +1  BANK12  BANK13  BANK14  BANK15
  2559 ;;      Params:         0       0       0       0       0       0       0       0       0       0       0       0       
      +0       0       0       0       0
  2560 ;;      Locals:         0       0       0       0       0       0       0       0       0       0       0       0       
      +0       0       0       0       0
  2561 ;;      Temps:         14       0       0       0       0       0       0       0       0       0       0       0       
      +0       0       0       0       0
  2562 ;;      Totals:        14       0       0       0       0       0       0       0       0       0       0       0       
      +0       0       0       0       0
  2563 ;;Total ram usage:       14 bytes
  2564 ;; Hardware stack levels used:    1
  2565 ;; Hardware stack levels required when called:    2
  2566 ;; This function calls:
  2567 ;;		Absolute function
  2568 ;;		_sisTimerKesmeIsleyici
  2569 ;; This function is called by:
  2570 ;;		Interrupt level 2
  2571 ;; This function uses a non-reentrant model
  2572 ;;
  2573                           
  2574                           	psect	intcode
  2575  000008                     __pintcode:
  2576                           	callstack 0
  2577  000008                     _interruptYonetici:
  2578                           	callstack 26
  2579                           
  2580                           ;incstack = 0
  2581  000008  824C               	bsf	btemp,1,c	;set compiler interrupt flag (level 2)
  2582  00000A  CFFA F030          	movff	pclath,??_interruptYonetici
  2583  00000E  CFFB F031          	movff	pclatu,??_interruptYonetici+1
  2584  000012  CFE9 F032          	movff	fsr0l,??_interruptYonetici+2
  2585  000016  CFEA F033          	movff	fsr0h,??_interruptYonetici+3
  2586  00001A  CFE1 F034          	movff	fsr1l,??_interruptYonetici+4
  2587  00001E  CFE2 F035          	movff	fsr1h,??_interruptYonetici+5
  2588  000022  CFD9 F036          	movff	fsr2l,??_interruptYonetici+6
  2589  000026  CFDA F037          	movff	fsr2h,??_interruptYonetici+7
  2590  00002A  CFF3 F038          	movff	prodl,??_interruptYonetici+8
  2591  00002E  CFF4 F039          	movff	prodh,??_interruptYonetici+9
  2592  000032  CFF6 F03A          	movff	tblptrl,??_interruptYonetici+10
  2593  000036  CFF7 F03B          	movff	tblptrh,??_interruptYonetici+11
  2594  00003A  CFF8 F03C          	movff	tblptru,??_interruptYonetici+12
  2595  00003E  CFF5 F03D          	movff	tablat,??_interruptYonetici+13
  2596                           
  2597                           ;interrupt.c: 52:     if(INTCONbits.TMR0IF == 1 && INTCONbits.TMR0IF == 1){
  2598  000042  B4F2               	btfsc	242,2,c	;volatile
  2599  000044  A4F2               	btfss	242,2,c	;volatile
  2600  000046  D00C               	goto	i2l39
  2601                           
  2602                           ;interrupt.c: 53:         TMR0IF = 0;
  2603  000048  94F2               	bcf	4082,2,c	;volatile
  2604                           
  2605                           ;interrupt.c: 54:         (*timer0KesmeIsleyici)();
  2606  00004A  D801               	call	i2u55_48
  2607  00004C  D014               	goto	i2l46
  2608  00004E                     i2u55_48:
  2609  00004E  0005               	push	
  2610  000050  6EFA               	movwf	pclath,c
  2611  000052  5021               	movf	_timer0KesmeIsleyici^0,w,c
  2612  000054  6EFD               	movwf	tosl,c
  2613  000056  5022               	movf	(_timer0KesmeIsleyici+1)^0,w,c
  2614  000058  6EFE               	movwf	tosh,c
  2615  00005A  6AFF               	clrf	tosu,c
  2616  00005C  50FA               	movf	pclath,w,c
  2617  00005E  0012               	return		;indir
  2618  000060                     i2l39:
  2619  000060  ACF2               	btfss	242,6,c	;volatile
  2620  000062  D009               	goto	i2l46
  2621                           
  2622                           ;interrupt.c: 57:         if(PIE1bits.RCIE == 1 && PIR1bits.RCIF == 1){
  2623  000064  BA9D               	btfsc	157,5,c	;volatile
  2624  000066  AA9E               	btfss	158,5,c	;volatile
  2625  000068  D002               	goto	i2l42
  2626                           
  2627                           ;interrupt.c: 58:             RCIF = 0;
  2628  00006A  9A9E               	bcf	3998,5,c	;volatile
  2629                           
  2630                           ;interrupt.c: 59:         }
  2631  00006C  D004               	goto	i2l46
  2632  00006E                     i2l42:
  2633  00006E  B89D               	btfsc	3997,4,c	;volatile
  2634  000070  A89E               	btfss	3998,4,c	;volatile
  2635  000072  D001               	goto	i2l46
  2636                           
  2637                           ;interrupt.c: 61:             TXIF = 0;
  2638  000074  989E               	bcf	3998,4,c	;volatile
  2639  000076                     i2l46:
  2640  000076  C03D  FFF5         	movff	??_interruptYonetici+13,tablat
  2641  00007A  C03C  FFF8         	movff	??_interruptYonetici+12,tblptru
  2642  00007E  C03B  FFF7         	movff	??_interruptYonetici+11,tblptrh
  2643  000082  C03A  FFF6         	movff	??_interruptYonetici+10,tblptrl
  2644  000086  C039  FFF4         	movff	??_interruptYonetici+9,prodh
  2645  00008A  C038  FFF3         	movff	??_interruptYonetici+8,prodl
  2646  00008E  C037  FFDA         	movff	??_interruptYonetici+7,fsr2h
  2647  000092  C036  FFD9         	movff	??_interruptYonetici+6,fsr2l
  2648  000096  C035  FFE2         	movff	??_interruptYonetici+5,fsr1h
  2649  00009A  C034  FFE1         	movff	??_interruptYonetici+4,fsr1l
  2650  00009E  C033  FFEA         	movff	??_interruptYonetici+3,fsr0h
  2651  0000A2  C032  FFE9         	movff	??_interruptYonetici+2,fsr0l
  2652  0000A6  C031  FFFB         	movff	??_interruptYonetici+1,pclatu
  2653  0000AA  C030  FFFA         	movff	??_interruptYonetici,pclath
  2654  0000AE  924C               	bcf	btemp,1,c	;clear compiler interrupt flag (level 2)
  2655  0000B0  0011               	retfie		f
  2656  0000B2                     __end_of_interruptYonetici:
  2657                           	callstack 0
  2658                           
  2659 ;; *************** function _sisTimerKesmeIsleyici *****************
  2660 ;; Defined at:
  2661 ;;		line 125 in file "sistimer.c"
  2662 ;; Parameters:    Size  Location     Type
  2663 ;;		None
  2664 ;; Auto vars:     Size  Location     Type
  2665 ;;		None
  2666 ;; Return value:  Size  Location     Type
  2667 ;;                  1    wreg      void 
  2668 ;; Registers used:
  2669 ;;		wreg, fsr0l, fsr0h, fsr1l, fsr1h, fsr1l, fsr1h, fsr2l, fsr2h, status,2, status,0, pclath, btemp, btemp+1, btemp+2, b
      +temp+3, btemp+4, btemp+5, btemp+6, btemp+7, btemp+8, btemp+9, btemp+10, btemp+11, btemp+12, btemp+13, btemp+14, btemp+15
      +, btemp+16, btemp+17, btemp+18, btemp+19, btemp+20, btemp+21, btemp+22, btemp+23, btemp+24, btemp+25, btemp+26, btemp+27
      +, btemp+28, btemp+29, btemp+30, btemp+31, tosl, structret, tblptrl, tblptrh, tblptru, prodl, prodh, bsr, cstack
  2670 ;; Tracked objects:
  2671 ;;		On entry : 0/0
  2672 ;;		On exit  : 0/0
  2673 ;;		Unchanged: 0/0
  2674 ;; Data sizes:     COMRAM   BANK0   BANK1   BANK2   BANK3   BANK4   BANK5   BANK6   BANK7   BANK8   BANK9  BANK10  BANK1
      +1  BANK12  BANK13  BANK14  BANK15
  2675 ;;      Params:         0       0       0       0       0       0       0       0       0       0       0       0       
      +0       0       0       0       0
  2676 ;;      Locals:         0       0       0       0       0       0       0       0       0       0       0       0       
      +0       0       0       0       0
  2677 ;;      Temps:          0       0       0       0       0       0       0       0       0       0       0       0       
      +0       0       0       0       0
  2678 ;;      Totals:         0       0       0       0       0       0       0       0       0       0       0       0       
      +0       0       0       0       0
  2679 ;;Total ram usage:        0 bytes
  2680 ;; Hardware stack levels used:    1
  2681 ;; Hardware stack levels required when called:    1
  2682 ;; This function calls:
  2683 ;;		Absolute function
  2684 ;;		_grvTikKesmeIsleyici
  2685 ;;		_sisTimerIsleyiciVarsayilan
  2686 ;; This function is called by:
  2687 ;;		_sisTimerIlkle
  2688 ;;		_interruptYonetici
  2689 ;; This function uses a non-reentrant model
  2690 ;;
  2691                           
  2692                           	psect	text15
  2693  001948                     __ptext15:
  2694                           	callstack 0
  2695  001948                     _sisTimerKesmeIsleyici:
  2696                           	callstack 26
  2697                           
  2698                           ;sistimer.c: 127:     TMR0 = (uint16_t) ((uint16_t)((65536)-((( (1000) - ( ( ( 52 ) * ( 
      +                          ( 1 * ( 100 ) ) / ( (16000000 / 4 ) / 1000000 ) ) ) / ( 100 ) ) )* (16000000/1000000))/(
      +                          4*(1)))-1));
  2699                           
  2700                           ;incstack = 0
  2701  001948  0EF0               	movlw	240
  2702  00194A  6ED7               	movwf	215,c	;volatile
  2703  00194C  0E93               	movlw	147
  2704  00194E  6ED6               	movwf	214,c	;volatile
  2705                           
  2706                           ;sistimer.c: 131:     (*sisTimerDisIsleyici)();
  2707  001950  D801               	call	i2u5_48
  2708  001952  0012               	return	
  2709  001954                     i2u5_48:
  2710  001954  0005               	push	
  2711  001956  6EFA               	movwf	pclath,c
  2712  001958  501B               	movf	_sisTimerDisIsleyici^0,w,c
  2713  00195A  6EFD               	movwf	tosl,c
  2714  00195C  501C               	movf	(_sisTimerDisIsleyici+1)^0,w,c
  2715  00195E  6EFE               	movwf	tosh,c
  2716  001960  6AFF               	clrf	tosu,c
  2717  001962  50FA               	movf	pclath,w,c
  2718  001964  0012               	return		;indir
  2719  001966                     __end_of_sisTimerKesmeIsleyici:
  2720                           	callstack 0
  2721                           
  2722 ;; *************** function _grvTikKesmeIsleyici *****************
  2723 ;; Defined at:
  2724 ;;		line 122 in file "../../../../../kaynak/gorev.c"
  2725 ;; Parameters:    Size  Location     Type
  2726 ;;		None
  2727 ;; Auto vars:     Size  Location     Type
  2728 ;;		None
  2729 ;; Return value:  Size  Location     Type
  2730 ;;                  1    wreg      void 
  2731 ;; Registers used:
  2732 ;;		status,2, status,0
  2733 ;; Tracked objects:
  2734 ;;		On entry : 0/0
  2735 ;;		On exit  : 0/0
  2736 ;;		Unchanged: 0/0
  2737 ;; Data sizes:     COMRAM   BANK0   BANK1   BANK2   BANK3   BANK4   BANK5   BANK6   BANK7   BANK8   BANK9  BANK10  BANK1
      +1  BANK12  BANK13  BANK14  BANK15
  2738 ;;      Params:         0       0       0       0       0       0       0       0       0       0       0       0       
      +0       0       0       0       0
  2739 ;;      Locals:         0       0       0       0       0       0       0       0       0       0       0       0       
      +0       0       0       0       0
  2740 ;;      Temps:          0       0       0       0       0       0       0       0       0       0       0       0       
      +0       0       0       0       0
  2741 ;;      Totals:         0       0       0       0       0       0       0       0       0       0       0       0       
      +0       0       0       0       0
  2742 ;;Total ram usage:        0 bytes
  2743 ;; Hardware stack levels used:    1
  2744 ;; This function calls:
  2745 ;;		Nothing
  2746 ;; This function is called by:
  2747 ;;		_main
  2748 ;;		_sisTimerKesmeIsleyici
  2749 ;; This function uses a non-reentrant model
  2750 ;;
  2751                           
  2752                           	psect	text16
  2753  00199A                     __ptext16:
  2754                           	callstack 0
  2755  00199A                     _grvTikKesmeIsleyici:
  2756                           	callstack 26
  2757                           
  2758                           ;../../../../../kaynak/gorev.c: 123:  tikSayimi++;
  2759                           
  2760                           ;incstack = 0
  2761  00199A  4A19               	infsnz	_tikSayimi^0,f,c
  2762  00199C  2A1A               	incf	(_tikSayimi+1)^0,f,c
  2763  00199E  0012               	return		;funcret
  2764  0019A0                     __end_of_grvTikKesmeIsleyici:
  2765                           	callstack 0
  2766                           
  2767 ;; *************** function _sisTimerIsleyiciVarsayilan *****************
  2768 ;; Defined at:
  2769 ;;		line 121 in file "sistimer.c"
  2770 ;; Parameters:    Size  Location     Type
  2771 ;;		None
  2772 ;; Auto vars:     Size  Location     Type
  2773 ;;		None
  2774 ;; Return value:  Size  Location     Type
  2775 ;;                  1    wreg      void 
  2776 ;; Registers used:
  2777 ;;		None
  2778 ;; Tracked objects:
  2779 ;;		On entry : 0/0
  2780 ;;		On exit  : 0/0
  2781 ;;		Unchanged: 0/0
  2782 ;; Data sizes:     COMRAM   BANK0   BANK1   BANK2   BANK3   BANK4   BANK5   BANK6   BANK7   BANK8   BANK9  BANK10  BANK1
      +1  BANK12  BANK13  BANK14  BANK15
  2783 ;;      Params:         0       0       0       0       0       0       0       0       0       0       0       0       
      +0       0       0       0       0
  2784 ;;      Locals:         0       0       0       0       0       0       0       0       0       0       0       0       
      +0       0       0       0       0
  2785 ;;      Temps:          0       0       0       0       0       0       0       0       0       0       0       0       
      +0       0       0       0       0
  2786 ;;      Totals:         0       0       0       0       0       0       0       0       0       0       0       0       
      +0       0       0       0       0
  2787 ;;Total ram usage:        0 bytes
  2788 ;; Hardware stack levels used:    1
  2789 ;; This function calls:
  2790 ;;		Nothing
  2791 ;; This function is called by:
  2792 ;;		_sisTimerIlkle
  2793 ;;		_sisTimerKesmeIsleyici
  2794 ;; This function uses a non-reentrant model
  2795 ;;
  2796                           
  2797                           	psect	text17
  2798  0019A4                     __ptext17:
  2799                           	callstack 0
  2800  0019A4                     _sisTimerIsleyiciVarsayilan:
  2801                           	callstack 26
  2802                           
  2803                           ;incstack = 0
  2804  0019A4  0012               	return		;funcret
  2805  0019A6                     __end_of_sisTimerIsleyiciVarsayilan:
  2806                           	callstack 0
  2807                           
  2808                           	psect	text18
  2809  000000                     __ptext18:
  2810                           	callstack 0
  2811                           
  2812                           	psect	rparam
  2813  0000                     
  2814                           	psect	temp
  2815  00004C                     btemp:
  2816                           	callstack 0
  2817  00004C                     	ds	1
  2818  0000                     int$flags	set	btemp
  2819  0000                     wtemp8	set	btemp+1
  2820  0000                     ttemp5	set	btemp+1
  2821  0000                     ttemp6	set	btemp+4
  2822  0000                     ttemp7	set	btemp+8
  2823                           
  2824                           	psect	idloc
  2825                           
  2826                           ;Config register IDLOC0 @ 0x200000
  2827                           ;	unspecified, using default values
  2828  200000                     	org	2097152
  2829  200000  FF                 	db	255
  2830                           
  2831                           ;Config register IDLOC1 @ 0x200001
  2832                           ;	unspecified, using default values
  2833  200001                     	org	2097153
  2834  200001  FF                 	db	255
  2835                           
  2836                           ;Config register IDLOC2 @ 0x200002
  2837                           ;	unspecified, using default values
  2838  200002                     	org	2097154
  2839  200002  FF                 	db	255
  2840                           
  2841                           ;Config register IDLOC3 @ 0x200003
  2842                           ;	unspecified, using default values
  2843  200003                     	org	2097155
  2844  200003  FF                 	db	255
  2845                           
  2846                           ;Config register IDLOC4 @ 0x200004
  2847                           ;	unspecified, using default values
  2848  200004                     	org	2097156
  2849  200004  FF                 	db	255
  2850                           
  2851                           ;Config register IDLOC5 @ 0x200005
  2852                           ;	unspecified, using default values
  2853  200005                     	org	2097157
  2854  200005  FF                 	db	255
  2855                           
  2856                           ;Config register IDLOC6 @ 0x200006
  2857                           ;	unspecified, using default values
  2858  200006                     	org	2097158
  2859  200006  FF                 	db	255
  2860                           
  2861                           ;Config register IDLOC7 @ 0x200007
  2862                           ;	unspecified, using default values
  2863  200007                     	org	2097159
  2864  200007  FF                 	db	255
  2865                           
  2866                           	psect	config
  2867                           
  2868                           ; Padding undefined space
  2869  300000                     	org	3145728
  2870  300000  FF                 	db	255
  2871                           
  2872                           ;Config register CONFIG1H @ 0x300001
  2873                           ;	Oscillator Selection bits
  2874                           ;	FOSC = INTIO67, Internal oscillator block
  2875                           ;	4X PLL Enable
  2876                           ;	PLLCFG = ON, Oscillator multiplied by 4
  2877                           ;	Primary clock enable bit
  2878                           ;	PRICLKEN = ON, Primary clock is always enabled
  2879                           ;	Fail-Safe Clock Monitor Enable bit
  2880                           ;	FCMEN = OFF, Fail-Safe Clock Monitor disabled
  2881                           ;	Internal/External Oscillator Switchover bit
  2882                           ;	IESO = OFF, Oscillator Switchover mode disabled
  2883  300001                     	org	3145729
  2884  300001  38                 	db	56
  2885                           
  2886                           ;Config register CONFIG2L @ 0x300002
  2887                           ;	Power-up Timer Enable bit
  2888                           ;	PWRTEN = ON, Power up timer enabled
  2889                           ;	Brown-out Reset Enable bits
  2890                           ;	BOREN = SBORDIS, Brown-out Reset enabled in hardware only (SBOREN is disabled)
  2891                           ;	Brown Out Reset Voltage bits
  2892                           ;	BORV = 250, VBOR set to 2.50 V nominal
  2893  300002                     	org	3145730
  2894  300002  0E                 	db	14
  2895                           
  2896                           ;Config register CONFIG2H @ 0x300003
  2897                           ;	Watchdog Timer Enable bits
  2898                           ;	WDTEN = OFF, Watch dog timer is always disabled. SWDTEN has no effect.
  2899                           ;	Watchdog Timer Postscale Select bits
  2900                           ;	WDTPS = 32768, 1:32768
  2901  300003                     	org	3145731
  2902  300003  3C                 	db	60
  2903                           
  2904                           ; Padding undefined space
  2905  300004                     	org	3145732
  2906  300004  FF                 	db	255
  2907                           
  2908                           ;Config register CONFIG3H @ 0x300005
  2909                           ;	CCP2 MUX bit
  2910                           ;	CCP2MX = PORTC1, CCP2 input/output is multiplexed with RC1
  2911                           ;	PORTB A/D Enable bit
  2912                           ;	PBADEN = OFF, PORTB<5:0> pins are configured as digital I/O on Reset
  2913                           ;	P3A/CCP3 Mux bit
  2914                           ;	CCP3MX = PORTB5, P3A/CCP3 input/output is multiplexed with RB5
  2915                           ;	HFINTOSC Fast Start-up
  2916                           ;	HFOFST = ON, HFINTOSC output and ready status are not delayed by the oscillator stable
      +                           status
  2917                           ;	Timer3 Clock input mux bit
  2918                           ;	T3CMX = PORTC0, T3CKI is on RC0
  2919                           ;	ECCP2 B output mux bit
  2920                           ;	P2BMX = PORTD2, P2B is on RD2
  2921                           ;	MCLR Pin Enable bit
  2922                           ;	MCLRE = INTMCLR, RE3 input pin enabled; MCLR disabled
  2923  300005                     	org	3145733
  2924  300005  3D                 	db	61
  2925                           
  2926                           ;Config register CONFIG4L @ 0x300006
  2927                           ;	Stack Full/Underflow Reset Enable bit
  2928                           ;	STVREN = ON, Stack full/underflow will cause Reset
  2929                           ;	Single-Supply ICSP Enable bit
  2930                           ;	LVP = ON, Single-Supply ICSP enabled if MCLRE is also 1
  2931                           ;	Extended Instruction Set Enable bit
  2932                           ;	XINST = OFF, Instruction set extension and Indexed Addressing mode disabled (Legacy mo
      +                          de)
  2933                           ;	Background Debug
  2934                           ;	DEBUG = OFF, Disabled
  2935  300006                     	org	3145734
  2936  300006  85                 	db	133
  2937                           
  2938                           ; Padding undefined space
  2939  300007                     	org	3145735
  2940  300007  FF                 	db	255
  2941                           
  2942                           ;Config register CONFIG5L @ 0x300008
  2943                           ;	Code Protection Block 0
  2944                           ;	CP0 = OFF, Block 0 (000800-003FFFh) not code-protected
  2945                           ;	Code Protection Block 1
  2946                           ;	CP1 = OFF, Block 1 (004000-007FFFh) not code-protected
  2947                           ;	Code Protection Block 2
  2948                           ;	CP2 = OFF, Block 2 (008000-00BFFFh) not code-protected
  2949                           ;	Code Protection Block 3
  2950                           ;	CP3 = OFF, Block 3 (00C000-00FFFFh) not code-protected
  2951  300008                     	org	3145736
  2952  300008  0F                 	db	15
  2953                           
  2954                           ;Config register CONFIG5H @ 0x300009
  2955                           ;	Boot Block Code Protection bit
  2956                           ;	CPB = OFF, Boot block (000000-0007FFh) not code-protected
  2957                           ;	Data EEPROM Code Protection bit
  2958                           ;	CPD = OFF, Data EEPROM not code-protected
  2959  300009                     	org	3145737
  2960  300009  C0                 	db	192
  2961                           
  2962                           ;Config register CONFIG6L @ 0x30000A
  2963                           ;	Write Protection Block 0
  2964                           ;	WRT0 = OFF, Block 0 (000800-003FFFh) not write-protected
  2965                           ;	Write Protection Block 1
  2966                           ;	WRT1 = OFF, Block 1 (004000-007FFFh) not write-protected
  2967                           ;	Write Protection Block 2
  2968                           ;	WRT2 = OFF, Block 2 (008000-00BFFFh) not write-protected
  2969                           ;	Write Protection Block 3
  2970                           ;	WRT3 = OFF, Block 3 (00C000-00FFFFh) not write-protected
  2971  30000A                     	org	3145738
  2972  30000A  0F                 	db	15
  2973                           
  2974                           ;Config register CONFIG6H @ 0x30000B
  2975                           ;	Configuration Register Write Protection bit
  2976                           ;	WRTC = OFF, Configuration registers (300000-3000FFh) not write-protected
  2977                           ;	Boot Block Write Protection bit
  2978                           ;	WRTB = OFF, Boot Block (000000-0007FFh) not write-protected
  2979                           ;	Data EEPROM Write Protection bit
  2980                           ;	WRTD = OFF, Data EEPROM not write-protected
  2981  30000B                     	org	3145739
  2982  30000B  E0                 	db	224
  2983                           
  2984                           ;Config register CONFIG7L @ 0x30000C
  2985                           ;	Table Read Protection Block 0
  2986                           ;	EBTR0 = OFF, Block 0 (000800-003FFFh) not protected from table reads executed in other
      +                           blocks
  2987                           ;	Table Read Protection Block 1
  2988                           ;	EBTR1 = OFF, Block 1 (004000-007FFFh) not protected from table reads executed in other
      +                           blocks
  2989                           ;	Table Read Protection Block 2
  2990                           ;	EBTR2 = OFF, Block 2 (008000-00BFFFh) not protected from table reads executed in other
      +                           blocks
  2991                           ;	Table Read Protection Block 3
  2992                           ;	EBTR3 = OFF, Block 3 (00C000-00FFFFh) not protected from table reads executed in other
      +                           blocks
  2993  30000C                     	org	3145740
  2994  30000C  0F                 	db	15
  2995                           
  2996                           ;Config register CONFIG7H @ 0x30000D
  2997                           ;	Boot Block Table Read Protection bit
  2998                           ;	EBTRB = OFF, Boot Block (000000-0007FFh) not protected from table reads executed in ot
      +                          her blocks
  2999  30000D                     	org	3145741
  3000  30000D  40                 	db	64
  3001                           tosu	equ	0xFFF
  3002                           tosh	equ	0xFFE
  3003                           tosl	equ	0xFFD
  3004                           stkptr	equ	0xFFC
  3005                           pclatu	equ	0xFFB
  3006                           pclath	equ	0xFFA
  3007                           pcl	equ	0xFF9
  3008                           tblptru	equ	0xFF8
  3009                           tblptrh	equ	0xFF7
  3010                           tblptrl	equ	0xFF6
  3011                           tablat	equ	0xFF5
  3012                           prodh	equ	0xFF4
  3013                           prodl	equ	0xFF3
  3014                           indf0	equ	0xFEF
  3015                           postinc0	equ	0xFEE
  3016                           postdec0	equ	0xFED
  3017                           preinc0	equ	0xFEC
  3018                           plusw0	equ	0xFEB
  3019                           fsr0h	equ	0xFEA
  3020                           fsr0l	equ	0xFE9
  3021                           wreg	equ	0xFE8
  3022                           indf1	equ	0xFE7
  3023                           postinc1	equ	0xFE6
  3024                           postdec1	equ	0xFE5
  3025                           preinc1	equ	0xFE4
  3026                           plusw1	equ	0xFE3
  3027                           fsr1h	equ	0xFE2
  3028                           fsr1l	equ	0xFE1
  3029                           bsr	equ	0xFE0
  3030                           indf2	equ	0xFDF
  3031                           postinc2	equ	0xFDE
  3032                           postdec2	equ	0xFDD
  3033                           preinc2	equ	0xFDC
  3034                           plusw2	equ	0xFDB
  3035                           fsr2h	equ	0xFDA
  3036                           fsr2l	equ	0xFD9
  3037                           status	equ	0xFD8

Data Sizes:
    Strings     0
    Constant    31
    Data        1
    BSS         47
    Persistent  0
    Stack       0

Auto Spaces:
    Space          Size  Autos    Used
    COMRAM           94     27      75
    BANK0           160     14      14
    BANK1           256      0       0
    BANK2           256      0       0
    BANK3           256      0       0
    BANK4           256      0       0
    BANK5           256      0       0
    BANK6           256      0       0
    BANK7           256      0       0
    BANK8           256      0       0
    BANK9           256      0       0
    BANK10          256      0       0
    BANK11          256      0       0
    BANK12          256      0       0
    BANK13          256      0       0
    BANK14          256      0       0
    BANK15           56      0       0

Pointer List with Targets:

    icerikDegistirici@tutucu	PTR void  size(1) Largest target is 2
		 -> main@id(BANK0[2]), 

    icerikGuncelleyici@tutucu	PTR void  size(1) Largest target is 2
		 -> main@ig(BANK0[2]), 

    gostergeDegeriHesapla@tutucu	PTR void  size(1) Largest target is 2
		 -> main@gdh(BANK0[2]), 

    karaSimsekHiziOkuma@tutucu	PTR void  size(1) Largest target is 2
		 -> main@kho(BANK0[2]), 

    karaSimsek@tutucu	PTR void  size(1) Largest target is 2
		 -> main@ksmsk(BANK0[2]), 

    ledCakarlama2@tutucu	PTR void  size(1) Largest target is 2
		 -> main@lc2(BANK0[2]), 

    ledCakarlama1@tutucu	PTR void  size(1) Largest target is 2
		 -> main@lc1(BANK0[2]), 

    sisTimerIlkle@isleyici	PTR FTN()void  size(2) Largest target is 1
		 -> grvTikKesmeIsleyici(), 

    sisTimerDisIsleyici	PTR FTN()void  size(2) Largest target is 2
		 -> Absolute function(), grvTikKesmeIsleyici(), sisTimerIlkle@isleyici(COMRAM[2]), sisTimerIsleyiciVarsayilan(), 

    uartRxKesmeIsleyici	PTR FTN()void  size(2) Largest target is 1
		 -> Absolute function(), 

    uartTxKesmeIsleyici	PTR FTN()void  size(2) Largest target is 1
		 -> Absolute function(), 

    timer0KesmeIsleyiciKur@isleyici	PTR FTN()void  size(2) Largest target is 1
		 -> sisTimerKesmeIsleyici(), 

    timer0KesmeIsleyici	PTR FTN()void  size(2) Largest target is 1
		 -> Absolute function(), sisTimerKesmeIsleyici(), 


Critical Paths under _main in COMRAM

    _main->_karaSimsekHiziOkuma
    _sisTimerIlkle->_timer0KesmeIsleyiciKur
    _ledCakarlama2->_grvTikSayiminiAl
    _ledCakarlama1->_grvTikSayiminiAl
    _karaSimsekHiziOkuma->___lwdiv
    _karaSimsek->_grvTikSayiminiAl
    _icerikDegistirici->_grvTikSayiminiAl
    _gostergeDegeriHesapla->___lwdiv

Critical Paths under _interruptYonetici in COMRAM

    None.

Critical Paths under _main in BANK0

    None.

Critical Paths under _interruptYonetici in BANK0

    None.

Critical Paths under _main in BANK1

    None.

Critical Paths under _interruptYonetici in BANK1

    None.

Critical Paths under _main in BANK2

    None.

Critical Paths under _interruptYonetici in BANK2

    None.

Critical Paths under _main in BANK3

    None.

Critical Paths under _interruptYonetici in BANK3

    None.

Critical Paths under _main in BANK4

    None.

Critical Paths under _interruptYonetici in BANK4

    None.

Critical Paths under _main in BANK5

    None.

Critical Paths under _interruptYonetici in BANK5

    None.

Critical Paths under _main in BANK6

    None.

Critical Paths under _interruptYonetici in BANK6

    None.

Critical Paths under _main in BANK7

    None.

Critical Paths under _interruptYonetici in BANK7

    None.

Critical Paths under _main in BANK8

    None.

Critical Paths under _interruptYonetici in BANK8

    None.

Critical Paths under _main in BANK9

    None.

Critical Paths under _interruptYonetici in BANK9

    None.

Critical Paths under _main in BANK10

    None.

Critical Paths under _interruptYonetici in BANK10

    None.

Critical Paths under _main in BANK11

    None.

Critical Paths under _interruptYonetici in BANK11

    None.

Critical Paths under _main in BANK12

    None.

Critical Paths under _interruptYonetici in BANK12

    None.

Critical Paths under _main in BANK13

    None.

Critical Paths under _interruptYonetici in BANK13

    None.

Critical Paths under _main in BANK14

    None.

Critical Paths under _interruptYonetici in BANK14

    None.

Critical Paths under _main in BANK15

    None.

Critical Paths under _interruptYonetici in BANK15

    None.

Call Graph Tables:

 ---------------------------------------------------------------------------------
 (Depth) Function   	        Calls       Base Space   Used Autos Params    Refs
 ---------------------------------------------------------------------------------
 (0) _main                                                14    14      0    4141
                                              0 BANK0     14    14      0
              _gostergeDegeriHesapla
                  _icerikDegistirici
                 _icerikGuncelleyici
                     _interruptIlkle
                         _karaSimsek
                _karaSimsekHiziOkuma
                      _ledCakarlama1
                      _ledCakarlama2
                   _sisOsilatorIlkle
                      _sisTimerIlkle
 ---------------------------------------------------------------------------------
 (1) _sisTimerIlkle                                        2     0      2     277
                                             16 COMRAM     2     0      2
             _timer0KesmeIsleyiciKur
 ---------------------------------------------------------------------------------
 (2) _timer0KesmeIsleyiciKur                               2     0      2     121
                                             14 COMRAM     2     0      2
 ---------------------------------------------------------------------------------
 (1) _sisOsilatorIlkle                                     0     0      0       0
 ---------------------------------------------------------------------------------
 (1) _ledCakarlama2                                        4     3      1     409
                                             18 COMRAM     4     3      1
                   _grvTikSayiminiAl
 ---------------------------------------------------------------------------------
 (1) _ledCakarlama1                                        4     3      1     285
                                             18 COMRAM     4     3      1
                   _grvTikSayiminiAl
 ---------------------------------------------------------------------------------
 (1) _karaSimsekHiziOkuma                                  6     5      1     988
                                             21 COMRAM     6     5      1
                            ___lwdiv
                   _grvTikSayiminiAl
 ---------------------------------------------------------------------------------
 (1) _karaSimsek                                           4     3      1     285
                                             18 COMRAM     4     3      1
                   _grvTikSayiminiAl
 ---------------------------------------------------------------------------------
 (1) _interruptIlkle                                       0     0      0       0
 ---------------------------------------------------------------------------------
 (1) _icerikGuncelleyici                                   4     3      1     220
                                             14 COMRAM     4     3      1
 ---------------------------------------------------------------------------------
 (1) _icerikDegistirici                                    6     5      1     353
                                             18 COMRAM     6     5      1
                   _grvTikSayiminiAl
 ---------------------------------------------------------------------------------
 (2) _grvTikSayiminiAl                                     4     2      2      34
                                             14 COMRAM     4     2      2
 ---------------------------------------------------------------------------------
 (1) _gostergeDegeriHesapla                                4     3      1     852
                                             21 COMRAM     4     3      1
                            ___lwdiv
 ---------------------------------------------------------------------------------
 (2) ___lwdiv                                              7     3      4     601
                                             14 COMRAM     7     3      4
 ---------------------------------------------------------------------------------
 Estimated maximum stack depth 2
 ---------------------------------------------------------------------------------
 (Depth) Function   	        Calls       Base Space   Used Autos Params    Refs
 ---------------------------------------------------------------------------------
 (3) _interruptYonetici                                   14    14      0       0
                                              0 COMRAM    14    14      0
                   Absolute function *
              _sisTimerKesmeIsleyici *
 ---------------------------------------------------------------------------------
 (4) _sisTimerKesmeIsleyici                                0     0      0       0
                   Absolute function *
                _grvTikKesmeIsleyici *
         _sisTimerIsleyiciVarsayilan *
 ---------------------------------------------------------------------------------
 (5) _sisTimerIsleyiciVarsayilan                           0     0      0       0
 ---------------------------------------------------------------------------------
 (5) _grvTikKesmeIsleyici                                  0     0      0       0
 ---------------------------------------------------------------------------------
 (5) Absolute function(Fake)                               0     0      0       0
 ---------------------------------------------------------------------------------
 Estimated maximum stack depth 5
 ---------------------------------------------------------------------------------

 Call Graph Graphs:

 _main (ROOT)
   _gostergeDegeriHesapla
     ___lwdiv
   _icerikDegistirici
     _grvTikSayiminiAl
   _icerikGuncelleyici
   _interruptIlkle
   _karaSimsek
     _grvTikSayiminiAl
   _karaSimsekHiziOkuma
     ___lwdiv
     _grvTikSayiminiAl
   _ledCakarlama1
     _grvTikSayiminiAl
   _ledCakarlama2
     _grvTikSayiminiAl
   _sisOsilatorIlkle
   _sisTimerIlkle
     _timer0KesmeIsleyiciKur

 _interruptYonetici (ROOT)
   Absolute function(Fake) *
   _sisTimerKesmeIsleyici *
     Absolute function(Fake) *
     _grvTikKesmeIsleyici *
     _sisTimerIsleyiciVarsayilan *

 Address spaces:
Name               Size   Autos  Total    Cost      Usage
BIGRAM             F37      0       0      37        0.0%
EEDATA             400      0       0       0        0.0%
BITBANK14          100      0       0      33        0.0%
BANK14             100      0       0      34        0.0%
BITBANK13          100      0       0      31        0.0%
BANK13             100      0       0      32        0.0%
BITBANK12          100      0       0      29        0.0%
BANK12             100      0       0      30        0.0%
BITBANK11          100      0       0      27        0.0%
BANK11             100      0       0      28        0.0%
BITBANK10          100      0       0      25        0.0%
BANK10             100      0       0      26        0.0%
BITBANK9           100      0       0      23        0.0%
BANK9              100      0       0      24        0.0%
BITBANK8           100      0       0      21        0.0%
BANK8              100      0       0      22        0.0%
BITBANK7           100      0       0      19        0.0%
BANK7              100      0       0      20        0.0%
BITBANK6           100      0       0      17        0.0%
BANK6              100      0       0      18        0.0%
BITBANK5           100      0       0      15        0.0%
BANK5              100      0       0      16        0.0%
BITBANK4           100      0       0      13        0.0%
BANK4              100      0       0      14        0.0%
BITBANK3           100      0       0      10        0.0%
BANK3              100      0       0      11        0.0%
BITBANK2           100      0       0       8        0.0%
BANK2              100      0       0       9        0.0%
BITBANK1           100      0       0       6        0.0%
BANK1              100      0       0       7        0.0%
BITBANK0            A0      0       0       4        0.0%
BANK0               A0      E       E       5        8.8%
BITCOMRAM           5E      0       0       0        0.0%
COMRAM              5E     1B      4B       1       79.8%
BITBANK15           38      0       0      35        0.0%
BANK15              38      0       0      36        0.0%
BITSFR_1             0      0       0     200        0.0%
SFR_1                0      0       0     200        0.0%
BITSFR               0      0       0     200        0.0%
SFR                  0      0       0     200        0.0%
STACK                0      0       0       2        0.0%
NULL                 0      0       0       0        0.0%
ABS                  0      0      59      12        0.0%
DATA                 0      0      59       3        0.0%
CODE                 0      0       0       0        0.0%


Microchip Technology PIC18 Macro Assembler V2.31 build 20201012212115 
Symbol Table                                                                                   Sun Jun 13 17:22:24 2021

             __end_of_interruptIlkle 19A4            __size_of_grvTikSayiminiAl 001C  
        __end_of_karaSimsekHiziOkuma 14CA                                  l304 15B6  
                                l243 13D0                                  l166 1282  
                                l177 1292                                  l196 1024  
                                l285 150E                                  l824 18D6  
                                tosl 000FFD                                  wreg 000FE8  
                   _sisOsilatorIlkle 1982                                 l3024 1638  
                               l3008 15F2                                 l3040 164E  
                               l3034 163E                                 l3018 161E  
                               l3072 1854                                 l2610 190C  
                               l2700 10BC                                 l3350 166C  
                               l2630 12A8                                 l3352 1676  
                               l2800 170C                                 l2712 1110  
                               l2608 1904                                 l3354 17E4  
                               l3346 159A                                 l2810 1726  
                               l2634 12B4                                 l2580 18AC  
                               l3356 17FA                                 l3348 15A4  
                               l2644 1308                                 l2636 12B6  
                               l2628 12A4                                 l2724 1164  
                               l2590 18CC                                 l2830 13E0  
                               l2816 1736                                 l2656 1372  
                               l2672 139C                                 l2736 11B8  
                               l2680 102C                                 l2578 18A4  
                               l2914 17C6                                 l2930 14EC  
                               l2850 142C                                 l2834 13F0  
                               l2666 138C                                 l2908 17B6  
                               l2940 1504                                 l2772 1694  
                               l2860 146E                                 l2852 1448  
                               l2748 120C                                 l2764 1236  
                               l2950 151E                                 l2926 14CC  
                               l2790 16DE                                 l2774 16A4  
                               l2870 1488                                 l2758 1226  
                               l2952 1522                                 l2944 1512  
                               l2960 152A                                 l2928 14DE  
                               l2776 16B2                                 l2688 1068  
                               l2954 1526                                 l2946 1516  
                               l2794 16EA                                 l2786 16D0  
                               l2892 178E                                 l2884 176A  
                               l2948 151A                                 l2876 1498  
                               l2886 1778                                 l2974 157C  
                               l2968 156C                                 l2996 15BE  
                               l2998 15CC                                 u1200 12C0  
                               u1140 18B0                                 u1230 132A  
                               u1320 10DE                                 u1218 12C2  
                               u1410 11DA                                 u1308 108C  
                               u1260 1036                                 u1350 1132  
                               u1248 132C                                 _LATD 000F8C  
                               u1338 10E0                                 u1290 108A  
                               u1428 11DC                                 u1380 1186  
                               u1278 1038                                 u1368 1134  
                               u1398 1188                                 _RCIF 007CF5  
                               i2l42 006E                                 i2l46 0076  
                               i2l39 0060                                 _TMR0 000FD6  
                               _TXIE 007CEC                                 _TXIF 007CF4  
        __size_of_icerikGuncelleyici 00EA                                 _main 1804  
                               fsr0h 000FEA                                 fsr1h 000FE2  
                               fsr2h 000FDA                                 fsr0l 000FE9  
                               fsr1l 000FE1                                 fsr2l 000FD9  
                               btemp 004C                                 prodh 000FF4  
                               prodl 000FF3                                 start 00B2  
                       ___param_bank 000000                  _uartTxKesmeIsleyici 001F  
                       karaSimsek@s3 0009                      ?_interruptIlkle 0030  
                              ?_main 0030                                _T0CON 000FD5  
                    __end_of___lwdiv 18E0                                _TRISD 000F95  
             ?_sisTimerKesmeIsleyici 0030                                pclath 000FFA  
                _sisTimerDisIsleyici 001B                                tablat 000FF5  
           icerikGuncelleyici@tutucu 003E      __size_of_timer0KesmeIsleyiciKur 000A  
                              ttemp5 004D                                ttemp6 0050  
                              ttemp7 0054                                status 000FD8  
                              wtemp8 004D                   ledCakarlama1@artir 0024  
           _karasimsekGostergeDegeri 0028                      __initialization 1920  
                       __end_of_main 188E                               ??_main 004B  
                      __activetblptr 000003                  _grvTikKesmeIsleyici 199A  
                             _ADCON1 000FC1                               _ADCON2 000FC0  
                             _ADRESH 000FC4                               _ADRESL 000FC3  
            ??_gostergeDegeriHesapla 0046                               _ANSELD 000F3B  
                             _INTCON 000FF2                               _OSCCON 000FD3  
                             _TMR0IF 007F92                               i2u5_48 1954  
               ?_grvTikKesmeIsleyici 0030          ?_sisTimerIsleyiciVarsayilan 0030  
                          ??___lwdiv 0042                               _icerik 004B  
                             clear_0 1938                     _grvTikSayiminiAl 1966  
             _timer0KesmeIsleyiciKur 1990                               main@id 006A  
                             main@ig 0060                         __pdataCOMRAM 004B  
                       __mediumconst 0000                               tblptrh 000FF7  
                             tblptrl 000FF6                               tblptru 000FF8  
              __end_of_ledCakarlama1 13CE                __end_of_ledCakarlama2 1280  
                         __accesstop 0060              __end_of__initialization 193E  
              ??_grvTikKesmeIsleyici 0030                        ___rparam_used 000001  
                ledCakarlama1@secici 0025                  ledCakarlama1@tutucu 0042  
                     __pcstackCOMRAM 0030                  ledCakarlama2@tutucu 0042  
           __end_of_sisOsilatorIlkle 1990                __end_of_sisTimerIlkle 1920  
         _intconYedek@portmacro$F371 002D           _intconYedek@portmacro$F785 002C  
                   karaSimsek@tutucu 0042                       karaSimsek@sola 0023  
           _gostergeDegeriHesaplandi 0026                     ??_interruptIlkle 003E  
              _icerikDegistirici$907 0046         __end_ofledCakarlama1@sonSira 1002  
            ??_sisTimerKesmeIsleyici 0030         __end_ofledCakarlama1@sureler 1020  
                            _OSCCON2 000FD2                              _OSCTUNE 000F9B  
                         _karaSimsek 1692                              i2u55_48 004E  
         __end_of_icerikGuncelleyici 15B4         __size_of_karaSimsekHiziOkuma 00FC  
                         _karasimsek 002A                              __Hparam 0000  
                            __Lparam 0000                              ___lwdiv 188E  
                       __psmallconst 1000                              __pcinit 1920  
                            __ramtop 1000                              __ptext0 1804  
                            __ptext1 18E0                              __ptext2 1990  
                            __ptext3 1982                              __ptext4 1022  
                            __ptext5 1280                              __ptext6 13CE  
                            __ptext7 1692                              __ptext8 19A0  
                            __ptext9 14CA                            _T0CONbits 000FD5  
                            _tamponD 0029       timer0KesmeIsleyiciKur@isleyici 003E  
                            main@lc1 0062                              main@lc2 006C  
                            main@gdh 0068                              main@kho 0066  
               end_of_initialization 193E            karaSimsekHiziOkuma@tutucu 0045  
     __size_of_gostergeDegeriHesapla 009C              icerikDegistirici@tutucu 0042  
           __end_of_grvTikSayiminiAl 1982        __end_of_gostergeDegeriHesapla 1804  
                icerikDegistirici@s5 0001                              postdec2 000FDD  
            ?_timer0KesmeIsleyiciKur 003E                              postinc0 000FEE  
                            postinc2 000FDE                            _PORTBbits 000F81  
                          _TRISAbits 000F92                            _TRISBbits 000F93  
                        ?_karaSimsek 0042                 ledCakarlama1@sonSira 1001  
                _uartRxKesmeIsleyici 001D       __end_of_timer0KesmeIsleyiciKur 199A  
               ledCakarlama1@sureler 1002                    ?_sisOsilatorIlkle 0030  
               _karasimsekHiziOkundu 0027                        __pidataCOMRAM 19A6  
                 ??_sisOsilatorIlkle 003E                  start_initialization 1920  
        __end_of_grvTikKesmeIsleyici 19A0                  __size_of_karaSimsek 00D6  
                _karaSimsekHiziOkuma 13CE               __size_of_ledCakarlama1 014E  
             __size_of_ledCakarlama2 025E                          __pbssCOMRAM 0001  
     __size_of_sisTimerKesmeIsleyici 001E                        __pcstackBANK0 0060  
      __end_of_sisTimerKesmeIsleyici 1966                 ?_karaSimsekHiziOkuma 0045  
                  _icerikDegistirici 15B4               __size_of_sisTimerIlkle 0040  
                 ?_icerikDegistirici 0042                   _icerikGuncelleyici 14CA  
                   ___lwdiv@dividend 003E                            __pintcode 0008  
                ??_icerikDegistirici 0043                             ?___lwdiv 003E  
                ?_icerikGuncelleyici 003E                    _interruptYonetici 0008  
                        __smallconst 1000                   ?_interruptYonetici 0030  
              ??_karaSimsekHiziOkuma 0046                     ___lwdiv@quotient 0043  
          __end_of_icerikDegistirici 1692                        _ledCakarlama1 1280  
                      _ledCakarlama2 1022                 ??_icerikGuncelleyici 003F  
                ??_interruptYonetici 0030                          _gercekDeger 0017  
                  ?_grvTikSayiminiAl 003E                             _LATBbits 000F8A  
                           _PIE1bits 000F9D                   ??_grvTikSayiminiAl 0040  
                          _tikSayimi 0019                             _PIR1bits 000F9E  
       ??_sisTimerIsleyiciVarsayilan 0030                             _RCONbits 000FD0  
          __end_of_interruptYonetici 00B2                           _ADCON0bits 000FC2  
                      _sisTimerIlkle 18E0              __size_of_interruptIlkle 0004  
                          main@ksmsk 0064                      ledCakarlama1@s1 0011  
                    ledCakarlama2@s2 000D                         ??_karaSimsek 0043  
                     ?_ledCakarlama1 0042                       ?_ledCakarlama2 0042  
__size_of_sisTimerIsleyiciVarsayilan 0002                _gostergeDegeriHesapla 1768  
                           __Hrparam 0000                             __Lrparam 0000  
                 __end_of_karaSimsek 1768                     __size_of___lwdiv 0052  
                     ?_sisTimerIlkle 0040                           _ANSELBbits 000F39  
        gostergeDegeriHesapla@tutucu 0045                      ___lwdiv@divisor 0040  
                    ___lwdiv@counter 0042                             __ptext10 15B4  
                           __ptext11 1966                             __ptext12 1768  
                           __ptext13 188E                             __ptext15 1948  
                           __ptext16 199A                             __ptext17 19A4  
                           __ptext18 0000           __size_of_icerikDegistirici 00DE  
          __size_of_sisOsilatorIlkle 000E                          _intconYedek 002E  
                      _icerikDegisti 002B                        __size_of_main 008A  
                        _tmr0OnDeger 002F                             int$flags 004C  
              grvTikSayiminiAl@sayim 0040           __size_of_interruptYonetici 00AA  
                     _karaSimsekHizi 0015                           _INTCONbits 000FF2  
                    ??_ledCakarlama1 0043                      ??_ledCakarlama2 0043  
                _timer0KesmeIsleyici 0021                             intlevel2 0000  
             ?_gostergeDegeriHesapla 0045             karaSimsekHiziOkuma@sonuc 0049  
 __end_of_sisTimerIsleyiciVarsayilan 19A6           _sisTimerIsleyiciVarsayilan 19A4  
       __size_of_grvTikKesmeIsleyici 0006                      ??_sisTimerIlkle 0042  
              sisTimerIlkle@isleyici 0040                       _interruptIlkle 19A0  
              _sisTimerKesmeIsleyici 1948             ??_timer0KesmeIsleyiciKur 0040  
              karaSimsekHiziOkuma@s4 0005  
