

Microchip MPLAB XC8 Assembler V2.31 build 20201012212115 
                                                                                               Sun May  9 22:40:49 2021

Microchip MPLAB XC8 C Compiler v2.31 (Free license) build 20201012212115 Og9 
     1                           	processor	18F46K22
     2                           	fnconf	rparam,??,?,0
     3                           	pagewidth 120
     4                           	opt	flic
     5                           	psect	idataCOMRAM,global,class=CODE,delta=1,noexec
     6                           	psect	smallconst,global,reloc=2,class=SMALLCONST,delta=1,noexec
     7                           	psect	cinit,global,reloc=2,class=CODE,delta=1
     8                           	psect	bssCOMRAM,global,class=COMRAM,space=1,delta=1,lowdata,noexec
     9                           	psect	dataCOMRAM,global,class=COMRAM,space=1,delta=1,lowdata,noexec
    10                           	psect	bssBANK0,global,class=BANK0,space=1,delta=1,lowdata,noexec
    11                           	psect	cstackBANK0,global,class=BANK0,space=1,delta=1,lowdata,noexec
    12                           	psect	cstackCOMRAM,global,class=COMRAM,space=1,delta=1,lowdata,noexec
    13                           	psect	text0,global,reloc=2,class=CODE,delta=1
    14                           	psect	text1,global,reloc=2,class=CODE,delta=1
    15                           	psect	text2,global,reloc=2,class=CODE,delta=1
    16                           	psect	text3,global,reloc=2,class=CODE,delta=1
    17                           	psect	text4,global,reloc=2,class=CODE,delta=1
    18                           	psect	text5,global,reloc=2,class=CODE,delta=1
    19                           	psect	text6,global,reloc=2,class=CODE,delta=1
    20                           	psect	text7,global,reloc=2,class=CODE,delta=1
    21                           	psect	text8,global,reloc=2,class=CODE,delta=1
    22                           	psect	text9,global,reloc=2,class=CODE,delta=1
    23                           	psect	text10,global,reloc=2,class=CODE,delta=1
    24                           	psect	text11,global,reloc=2,class=CODE,delta=1
    25                           	psect	text12,global,reloc=2,class=CODE,delta=1
    26                           	psect	text13,global,reloc=2,class=CODE,delta=1
    27                           	psect	text14,global,reloc=2,class=CODE,delta=1
    28                           	psect	text15,global,reloc=2,class=CODE,delta=1
    29                           	psect	text16,global,reloc=2,class=CODE,delta=1
    30                           	psect	text17,global,reloc=2,class=CODE,delta=1
    31                           	psect	text18,global,reloc=2,class=CODE,delta=1
    32                           	psect	text19,global,reloc=2,class=CODE,delta=1
    33                           	psect	intcode,global,reloc=2,class=CODE,delta=1
    34                           	psect	text21,global,reloc=2,class=CODE,delta=1
    35                           	psect	text22,global,reloc=2,class=CODE,delta=1
    36                           	psect	text23,global,reloc=2,class=CODE,delta=1
    37                           	psect	intsave_regs,global,class=BIGRAM,space=1,delta=1,noexec
    38                           	psect	text24,global,reloc=2,class=CODE,delta=1
    39                           	psect	rparam,global,class=COMRAM,space=1,delta=1,noexec
    40                           	psect	temp,global,ovrld,common,class=COMRAM,space=1,delta=1
    41                           	psect	idloc,global,abs,ovrld,class=IDLOC,space=5,delta=1,noexec
    42                           	psect	config,global,abs,ovrld,class=CONFIG,space=4,delta=1,noexec
    43  0000                     
    44                           ; Version 2.20
    45                           ; Generated 05/05/2020 GMT
    46                           ; 
    47                           ; Copyright © 2020, Microchip Technology Inc. and its subsidiaries ("Microchip")
    48                           ; All rights reserved.
    49                           ; 
    50                           ; This software is developed by Microchip Technology Inc. and its subsidiaries ("Microch
      +                          ip").
    51                           ; 
    52                           ; Redistribution and use in source and binary forms, with or without modification, are
    53                           ; permitted provided that the following conditions are met:
    54                           ; 
    55                           ;     1. Redistributions of source code must retain the above copyright notice, this lis
      +                          t of
    56                           ;        conditions and the following disclaimer.
    57                           ; 
    58                           ;     2. Redistributions in binary form must reproduce the above copyright notice, this 
      +                          list
    59                           ;        of conditions and the following disclaimer in the documentation and/or other
    60                           ;        materials provided with the distribution.
    61                           ; 
    62                           ;     3. Microchip's name may not be used to endorse or promote products derived from th
      +                          is
    63                           ;        software without specific prior written permission.
    64                           ; 
    65                           ; THIS SOFTWARE IS PROVIDED BY MICROCHIP "AS IS" AND ANY EXPRESS OR IMPLIED WARRANTIES,
    66                           ; INCLUDING, BUT NOT LIMITED TO, THE IMPLIED WARRANTIES OF MERCHANTABILITY AND FITNESS F
      +                          OR
    67                           ; PURPOSE ARE DISCLAIMED.  IN NO EVENT SHALL MICROCHIP BE LIABLE FOR ANY DIRECT, INDIREC
      +                          T,
    68                           ; INCIDENTAL, SPECIAL, EXEMPLARY, OR CONSEQUENTIAL DAMAGES (INCLUDING BUT NOT LIMITED TO
    69                           ; PROCUREMENT OF SUBSTITUTE GOODS OR SERVICES; LOSS OF USE, DATA OR PROFITS; OR BUSINESS
    70                           ; INTERRUPTION) HOWSOEVER CAUSED AND ON ANY THEORY OF LIABILITY, WHETHER IN CONTRACT, ST
      +                          RICT
    71                           ; LIABILITY, OR TORT (INCLUDING NEGLIGENCE OR OTHERWISE) ARISING IN ANY WAY OUT OF THE U
      +                          SE OF
    72                           ; THIS SOFTWARE, EVEN IF ADVISED OF THE POSSIBILITY OF SUCH DAMAGE.
    73                           ; 
    74                           ; 
    75                           ; Code-generator required, PIC18F46K22 Definitions
    76                           ; 
    77                           ; SFR Addresses
    78  0000                     
    79                           	psect	idataCOMRAM
    80  0018FE                     __pidataCOMRAM:
    81                           	callstack 0
    82                           
    83                           ;initializer for uretici2@tek
    84  0018FE  01                 	db	1
    85                           
    86                           	psect	smallconst
    87  001000                     __psmallconst:
    88                           	callstack 0
    89  001000  00                 	db	0
    90  001001                     gostergeTara@BCDdenOrtakAnoda:
    91                           	callstack 0
    92  001001  C0                 	db	192
    93  001002  F9                 	db	249
    94  001003  A4                 	db	164
    95  001004  B0                 	db	176
    96  001005  99                 	db	153
    97  001006  92                 	db	146
    98  001007  82                 	db	130
    99  001008  F8                 	db	248
   100  001009  80                 	db	128
   101  00100A  90                 	db	144
   102  00100B  88                 	db	136
   103  00100C  83                 	db	131
   104  00100D  C6                 	db	198
   105  00100E  A1                 	db	161
   106  00100F  86                 	db	134
   107  001010  8E                 	db	142
   108  001011  BF                 	db	191
   109  001012                     __end_ofgostergeTara@BCDdenOrtakAnoda:
   110                           	callstack 0
   111  0000                     _ANSELB	set	3897
   112  0000                     _ANSELC	set	3898
   113  0000                     _TMR0	set	4054
   114  0000                     _LATBbits	set	3978
   115  0000                     _TRISB	set	3987
   116  0000                     _LATB	set	3978
   117  0000                     _TRISC	set	3988
   118  0000                     _LATC	set	3979
   119  0000                     _INTCON	set	4082
   120  0000                     _OSCTUNE	set	3995
   121  0000                     _OSCCON2	set	4050
   122  0000                     _OSCCON	set	4051
   123  0000                     _T0CONbits	set	4053
   124  0000                     _T0CON	set	4053
   125  0000                     _PIR1bits	set	3998
   126  0000                     _PIE1bits	set	3997
   127  0000                     _INTCONbits	set	4082
   128  0000                     _RCONbits	set	4048
   129  0000                     _TXIF	set	31988
   130  0000                     _TXIE	set	31980
   131  0000                     _RCIF	set	31989
   132  0000                     _TMR0IF	set	32658
   133  001012  00                 	db	0	; dummy byte at the end
   134  0000                     
   135                           ; #config settings
   136                           
   137                           	psect	cinit
   138  0017EC                     __pcinit:
   139                           	callstack 0
   140  0017EC                     start_initialization:
   141                           	callstack 0
   142  0017EC                     __initialization:
   143                           	callstack 0
   144                           
   145                           ; Initialize objects allocated to COMRAM (1 bytes)
   146                           ; load TBLPTR registers with __pidataCOMRAM
   147  0017EC  0EFE               	movlw	low __pidataCOMRAM
   148  0017EE  6EF6               	movwf	tblptrl,c
   149  0017F0  0E18               	movlw	high __pidataCOMRAM
   150  0017F2  6EF7               	movwf	tblptrh,c
   151  0017F4  0E00               	movlw	low (__pidataCOMRAM shr (0+16))
   152  0017F6  6EF8               	movwf	tblptru,c
   153  0017F8  0009               	tblrd		*+	;fetch initializer
   154  0017FA  CFF5 F04F          	movff	tablat,__pdataCOMRAM
   155                           
   156                           ; Clear objects allocated to BANK0 (32 bytes)
   157  0017FE  EE00  F060         	lfsr	0,__pbssBANK0
   158  001802  0E20               	movlw	32
   159  001804                     clear_0:
   160  001804  6AEE               	clrf	postinc0,c
   161  001806  06E8               	decf	wreg,f,c
   162  001808  E1FD               	bnz	clear_0
   163                           
   164                           ; Clear objects allocated to COMRAM (51 bytes)
   165  00180A  EE00  F001         	lfsr	0,__pbssCOMRAM
   166  00180E  0E33               	movlw	51
   167  001810                     clear_1:
   168  001810  6AEE               	clrf	postinc0,c
   169  001812  06E8               	decf	wreg,f,c
   170  001814  E1FD               	bnz	clear_1
   171  001816                     end_of_initialization:
   172                           	callstack 0
   173  001816                     __end_of__initialization:
   174                           	callstack 0
   175  001816  9050               	bcf	int$flags,0,c	;clear compiler interrupt flag (level 1)
   176  001818  9250               	bcf	int$flags,1,c	;clear compiler interrupt flag (level 2)
   177  00181A  0100               	movlb	0
   178  00181C  EF6D  F00B         	goto	_main	;jump to C main() function
   179                           
   180                           	psect	bssCOMRAM
   181  000001                     __pbssCOMRAM:
   182                           	callstack 0
   183  000001                     gostergeTara@s5:
   184                           	callstack 0
   185  000001                     	ds	4
   186  000005                     gostergeDegerleriGuncelle@s2:
   187                           	callstack 0
   188  000005                     	ds	4
   189  000009                     _gosterge:
   190                           	callstack 0
   191  000009                     	ds	4
   192  00000D                     _tikSayimi:
   193                           	callstack 0
   194  00000D                     	ds	2
   195  00000F                     _sisTimerDisIsleyici:
   196                           	callstack 0
   197  00000F                     	ds	2
   198  000011                     _uartRxKesmeIsleyici:
   199                           	callstack 0
   200  000011                     	ds	2
   201  000013                     _uartTxKesmeIsleyici:
   202                           	callstack 0
   203  000013                     	ds	2
   204  000015                     _timer0KesmeIsleyici:
   205                           	callstack 0
   206  000015                     	ds	2
   207  000017                     uretici1@cift:
   208                           	callstack 0
   209  000017                     	ds	1
   210  000018                     _kuyruk1Erisim:
   211                           	callstack 0
   212  000018                     	ds	1
   213  000019                     	ds	1
   214  00001A                     _gorevSayimi:
   215                           	callstack 0
   216  00001A                     	ds	1
   217  00001B                     _intconYedek@portmacro$F427:
   218                           	callstack 0
   219  00001B                     	ds	1
   220  00001C                     	ds	1
   221  00001D                     	ds	1
   222  00001E                     _calisanListesi:
   223                           	callstack 0
   224  00001E                     	ds	12
   225  00002A                     _kuyruk1:
   226                           	callstack 0
   227  00002A                     	ds	4
   228  00002E                     _cikanListesi:
   229                           	callstack 0
   230  00002E                     	ds	4
   231  000032                     _cikanSayimi:
   232                           	callstack 0
   233  000032                     	ds	1
   234  000033                     _calisanSayimi:
   235                           	callstack 0
   236  000033                     	ds	1
   237                           
   238                           	psect	dataCOMRAM
   239  00004F                     __pdataCOMRAM:
   240                           	callstack 0
   241  00004F                     uretici2@tek:
   242                           	callstack 0
   243  00004F                     	ds	1
   244                           
   245                           	psect	bssBANK0
   246  000060                     __pbssBANK0:
   247                           	callstack 0
   248  000060                     _gorevHeap:
   249                           	callstack 0
   250  000060                     	ds	24
   251  000078                     _k1:
   252                           	callstack 0
   253  000078                     	ds	8
   254                           
   255                           	psect	cstackBANK0
   256  000080                     __pcstackBANK0:
   257                           	callstack 0
   258  000080                     	ds	1
   259  000081                     gostergeDegerleriGuncelle@b:
   260                           	callstack 0
   261                           
   262                           ; 2 bytes @ 0x1
   263  000081                     	ds	2
   264  000083                     ??_gorevciyiBaslat:
   265                           
   266                           ; 1 bytes @ 0x3
   267  000083                     	ds	2
   268  000085                     gorevciyiBaslat@glo:
   269                           	callstack 0
   270                           
   271                           ; 2 bytes @ 0x5
   272  000085                     	ds	2
   273  000087                     gorevciyiBaslat@donus:
   274                           	callstack 0
   275                           
   276                           ; 1 bytes @ 0x7
   277  000087                     	ds	1
   278  000088                     gorevciyiBaslat@s:
   279                           	callstack 0
   280                           
   281                           ; 1 bytes @ 0x8
   282  000088                     	ds	1
   283                           
   284                           	psect	cstackCOMRAM
   285  000034                     __pcstackCOMRAM:
   286                           	callstack 0
   287  000034                     ??_interruptYonetici:
   288  000034                     
   289                           ; 1 bytes @ 0x0
   290  000034                     	ds	14
   291  000042                     ?_tikSayiminiAl:
   292                           	callstack 0
   293  000042                     listeyeEkle@liste:
   294                           	callstack 0
   295  000042                     listedenSil@liste:
   296                           	callstack 0
   297  000042                     uckuyrukIlkle@kuyruk:
   298                           	callstack 0
   299  000042                     uckuyrukDolu@kuyruk:
   300                           	callstack 0
   301  000042                     uckuyrukBos@kuyruk:
   302                           	callstack 0
   303  000042                     timer0KesmeIsleyiciKur@isleyici:
   304                           	callstack 0
   305                           
   306                           ; 2 bytes @ 0xE
   307  000042                     	ds	1
   308  000043                     listeyeEkle@sayim:
   309                           	callstack 0
   310  000043                     listedenSil@sayim:
   311                           	callstack 0
   312  000043                     uckuyrukIlkle@veri:
   313                           	callstack 0
   314  000043                     uckuyrukKuyruktanAl@kuyruk:
   315                           	callstack 0
   316                           
   317                           ; 1 bytes @ 0xF
   318  000043                     	ds	1
   319  000044                     listeyeEkle@max:
   320                           	callstack 0
   321  000044                     listedenSil@konum:
   322                           	callstack 0
   323  000044                     uckuyrukIlkle@kap:
   324                           	callstack 0
   325  000044                     sisTimerIlkle@isleyici:
   326                           	callstack 0
   327  000044                     tikSayiminiAl@sayim:
   328                           	callstack 0
   329                           
   330                           ; 2 bytes @ 0x10
   331  000044                     	ds	1
   332  000045                     ??_listedenSil:
   333  000045                     uckuyrukKuyrukla@kuyruk:
   334                           	callstack 0
   335  000045                     uckuyrukKuyruktanAl@b:
   336                           	callstack 0
   337  000045                     listeyeEkle@glo:
   338                           	callstack 0
   339                           
   340                           ; 2 bytes @ 0x11
   341  000045                     	ds	1
   342  000046                     uckuyrukKuyrukla@veri:
   343                           	callstack 0
   344  000046                     uckuyrukKuyruktanAl@bas:
   345                           	callstack 0
   346                           
   347                           ; 1 bytes @ 0x12
   348  000046                     	ds	1
   349  000047                     listeyeEkle@cSayim:
   350                           	callstack 0
   351  000047                     uckuyrukKuyrukla@sayim:
   352                           	callstack 0
   353                           
   354                           ; 1 bytes @ 0x13
   355  000047                     	ds	1
   356  000048                     uckuyrukKuyrukla@kap:
   357                           	callstack 0
   358  000048                     gorevOlustur@is:
   359                           	callstack 0
   360                           
   361                           ; 2 bytes @ 0x14
   362  000048                     	ds	1
   363  000049                     uckuyrukKuyrukla@konum:
   364                           	callstack 0
   365                           
   366                           ; 1 bytes @ 0x15
   367  000049                     	ds	1
   368  00004A                     gorevOlustur@gkb:
   369                           	callstack 0
   370  00004A                     uretici1@tutucu:
   371                           	callstack 0
   372  00004A                     uretici2@tutucu:
   373                           	callstack 0
   374  00004A                     gostergeDegerleriGuncelle@tutucu:
   375                           	callstack 0
   376  00004A                     gostergeTara@tutucu:
   377                           	callstack 0
   378                           
   379                           ; 2 bytes @ 0x16
   380  00004A                     	ds	1
   381  00004B                     listedenSil@cSayim:
   382                           	callstack 0
   383                           
   384                           ; 1 bytes @ 0x17
   385  00004B                     	ds	1
   386  00004C                     ??_uretici1:
   387  00004C                     ??_uretici2:
   388  00004C                     ??_gostergeDegerleriGuncelle:
   389  00004C                     ??_gostergeTara:
   390  00004C                     listedenSil@k:
   391                           	callstack 0
   392                           
   393                           ; 1 bytes @ 0x18
   394  00004C                     	ds	2
   395  00004E                     uretici1@VAZGECIS_BAYRAGI:
   396                           	callstack 0
   397  00004E                     uretici2@VAZGECIS_BAYRAGI:
   398                           	callstack 0
   399                           
   400                           ; 1 bytes @ 0x1A
   401  00004E                     	ds	1
   402  00004F                     
   403                           ; 1 bytes @ 0x1B
   404 ;;
   405 ;;Main: autosize = 0, tempsize = 0, incstack = 0, save=0
   406 ;;
   407 ;; *************** function _main *****************
   408 ;; Defined at:
   409 ;;		line 211 in file "ornek4.c"
   410 ;; Parameters:    Size  Location     Type
   411 ;;		None
   412 ;; Auto vars:     Size  Location     Type
   413 ;;		None
   414 ;; Return value:  Size  Location     Type
   415 ;;                  1    wreg      void 
   416 ;; Registers used:
   417 ;;		wreg, fsr1l, fsr1h, fsr2l, fsr2h, status,2, status,0, pclath, tosl, tblptrl, tblptrh, tblptru, prodl, prodh, cstack
   418 ;; Tracked objects:
   419 ;;		On entry : 0/0
   420 ;;		On exit  : 3F/0
   421 ;;		Unchanged: 0/0
   422 ;; Data sizes:     COMRAM   BANK0   BANK1   BANK2   BANK3   BANK4   BANK5   BANK6   BANK7   BANK8   BANK9  BANK10  BANK1
      +1  BANK12  BANK13  BANK14  BANK15
   423 ;;      Params:         0       0       0       0       0       0       0       0       0       0       0       0       
      +0       0       0       0       0
   424 ;;      Locals:         0       0       0       0       0       0       0       0       0       0       0       0       
      +0       0       0       0       0
   425 ;;      Temps:          0       0       0       0       0       0       0       0       0       0       0       0       
      +0       0       0       0       0
   426 ;;      Totals:         0       0       0       0       0       0       0       0       0       0       0       0       
      +0       0       0       0       0
   427 ;;Total ram usage:        0 bytes
   428 ;; Hardware stack levels required when called:    8
   429 ;; This function calls:
   430 ;;		_gorevOlustur
   431 ;;		_portGorevciyiBaslat
   432 ;;		_sisOsilatorIlkle
   433 ;;		_uckuyrukIlkle
   434 ;; This function is called by:
   435 ;;		Startup code after reset
   436 ;; This function uses a non-reentrant model
   437 ;;
   438                           
   439                           	psect	text0
   440  0016DA                     __ptext0:
   441                           	callstack 0
   442  0016DA                     _main:
   443                           	callstack 23
   444                           
   445                           ;ornek4.c: 213:     sisOsilatorIlkle();
   446                           
   447                           ;incstack = 0
   448  0016DA  EC6D  F00C         	call	_sisOsilatorIlkle	;wreg free
   449                           
   450                           ;ornek4.c: 215:     uckuyrukIlkle((unsigned char)sizeof(k1), &kuyruk1, k1);
   451  0016DE  0E2A               	movlw	low _kuyruk1
   452  0016E0  6E42               	movwf	uckuyrukIlkle@kuyruk^0,c
   453  0016E2  0E78               	movlw	low _k1
   454  0016E4  6E43               	movwf	uckuyrukIlkle@veri^0,c
   455  0016E6  0E08               	movlw	8
   456  0016E8  ECDA  F00B         	call	_uckuyrukIlkle
   457                           
   458                           ;ornek4.c: 219:     (&kuyruk1Erisim)->sayim = 1;
   459  0016EC  0E01               	movlw	1
   460  0016EE  6E18               	movwf	_kuyruk1Erisim^0,c
   461                           
   462                           ;ornek4.c: 227:     gorevOlustur(uretici1);
   463  0016F0  0E06               	movlw	low _uretici1
   464  0016F2  6E48               	movwf	gorevOlustur@is^0,c
   465  0016F4  0E13               	movlw	high _uretici1
   466  0016F6  6E49               	movwf	(gorevOlustur@is+1)^0,c
   467  0016F8  EC94  F00B         	call	_gorevOlustur	;wreg free
   468                           
   469                           ;ornek4.c: 228:     gorevOlustur(uretici2);
   470  0016FC  0EDC               	movlw	low _uretici2
   471  0016FE  6E48               	movwf	gorevOlustur@is^0,c
   472  001700  0E13               	movlw	high _uretici2
   473  001702  6E49               	movwf	(gorevOlustur@is+1)^0,c
   474  001704  EC94  F00B         	call	_gorevOlustur	;wreg free
   475                           
   476                           ;ornek4.c: 229:     gorevOlustur(gostergeDegerleriGuncelle);
   477  001708  0E00               	movlw	low _gostergeDegerleriGuncelle
   478  00170A  6E48               	movwf	gorevOlustur@is^0,c
   479  00170C  0E12               	movlw	high _gostergeDegerleriGuncelle
   480  00170E  6E49               	movwf	(gorevOlustur@is+1)^0,c
   481  001710  EC94  F00B         	call	_gorevOlustur	;wreg free
   482                           
   483                           ;ornek4.c: 230:     gorevOlustur(gostergeTara);
   484  001714  0E14               	movlw	low _gostergeTara
   485  001716  6E48               	movwf	gorevOlustur@is^0,c
   486  001718  0E10               	movlw	high _gostergeTara
   487  00171A  6E49               	movwf	(gorevOlustur@is+1)^0,c
   488  00171C  EC94  F00B         	call	_gorevOlustur	;wreg free
   489                           
   490                           ;ornek4.c: 233:     portGorevciyiBaslat();
   491  001720  EC55  F00C         	call	_portGorevciyiBaslat	;wreg free
   492                           
   493                           ; BSR set to: 0
   494  001724  EF59  F000         	goto	start
   495  001728                     __end_of_main:
   496                           	callstack 0
   497                           
   498 ;; *************** function _uckuyrukIlkle *****************
   499 ;; Defined at:
   500 ;;		line 31 in file "../../../../../kaynak/uckuyruk.c"
   501 ;; Parameters:    Size  Location     Type
   502 ;;  kap             1    wreg     const unsigned char 
   503 ;;  kuyruk          1   14[COMRAM] PTR struct .
   504 ;;		 -> kuyruk1(4), 
   505 ;;  veri            1   15[COMRAM] PTR unsigned char 
   506 ;;		 -> k1(8), 
   507 ;; Auto vars:     Size  Location     Type
   508 ;;  kap             1   16[COMRAM] const unsigned char 
   509 ;; Return value:  Size  Location     Type
   510 ;;                  1    wreg      void 
   511 ;; Registers used:
   512 ;;		wreg, fsr2l, fsr2h, status,2, status,0
   513 ;; Tracked objects:
   514 ;;		On entry : 0/0
   515 ;;		On exit  : 0/0
   516 ;;		Unchanged: 0/0
   517 ;; Data sizes:     COMRAM   BANK0   BANK1   BANK2   BANK3   BANK4   BANK5   BANK6   BANK7   BANK8   BANK9  BANK10  BANK1
      +1  BANK12  BANK13  BANK14  BANK15
   518 ;;      Params:         2       0       0       0       0       0       0       0       0       0       0       0       
      +0       0       0       0       0
   519 ;;      Locals:         1       0       0       0       0       0       0       0       0       0       0       0       
      +0       0       0       0       0
   520 ;;      Temps:          0       0       0       0       0       0       0       0       0       0       0       0       
      +0       0       0       0       0
   521 ;;      Totals:         3       0       0       0       0       0       0       0       0       0       0       0       
      +0       0       0       0       0
   522 ;;Total ram usage:        3 bytes
   523 ;; Hardware stack levels used:    1
   524 ;; Hardware stack levels required when called:    3
   525 ;; This function calls:
   526 ;;		Nothing
   527 ;; This function is called by:
   528 ;;		_main
   529 ;; This function uses a non-reentrant model
   530 ;;
   531                           
   532                           	psect	text1
   533  0017B4                     __ptext1:
   534                           	callstack 0
   535  0017B4                     _uckuyrukIlkle:
   536                           	callstack 27
   537                           
   538                           ; BSR set to: 0
   539                           ;incstack = 0
   540                           ;uckuyrukIlkle@kap stored from wreg
   541  0017B4  6E44               	movwf	uckuyrukIlkle@kap^0,c
   542                           
   543                           ;../../../../../kaynak/uckuyruk.c: 31: void uckuyrukIlkle(const unsigned char kap,;../..
      +                          /../../../kaynak/uckuyruk.c: 32:         uckuyruk_t *kuyruk, unsigned char *veri) {;../.
      +                          ./../../../kaynak/uckuyruk.c: 33:  kuyruk->kapasite = kap;
   544  0017B6  5042               	movf	uckuyrukIlkle@kuyruk^0,w,c
   545  0017B8  6ED9               	movwf	fsr2l,c
   546  0017BA  6ADA               	clrf	fsr2h,c
   547  0017BC  C044  FFDF         	movff	uckuyrukIlkle@kap,indf2
   548                           
   549                           ;../../../../../kaynak/uckuyruk.c: 34:  kuyruk->bas = 0;
   550  0017C0  5042               	movf	uckuyrukIlkle@kuyruk^0,w,c
   551  0017C2  6ED9               	movwf	fsr2l,c
   552  0017C4  6ADA               	clrf	fsr2h,c
   553  0017C6  0E02               	movlw	2
   554  0017C8  26D9               	addwf	fsr2l,f,c
   555  0017CA  0E00               	movlw	0
   556  0017CC  6EDF               	movwf	indf2,c
   557                           
   558                           ;../../../../../kaynak/uckuyruk.c: 35:  kuyruk->sayim = 0;
   559  0017CE  5042               	movf	uckuyrukIlkle@kuyruk^0,w,c
   560  0017D0  6ED9               	movwf	fsr2l,c
   561  0017D2  6ADA               	clrf	fsr2h,c
   562  0017D4  0E01               	movlw	1
   563  0017D6  26D9               	addwf	fsr2l,f,c
   564  0017D8  0E00               	movlw	0
   565  0017DA  6EDF               	movwf	indf2,c
   566                           
   567                           ;../../../../../kaynak/uckuyruk.c: 36:  kuyruk->veri = veri;
   568  0017DC  5042               	movf	uckuyrukIlkle@kuyruk^0,w,c
   569  0017DE  6ED9               	movwf	fsr2l,c
   570  0017E0  6ADA               	clrf	fsr2h,c
   571  0017E2  0E03               	movlw	3
   572  0017E4  26D9               	addwf	fsr2l,f,c
   573  0017E6  C043  FFDF         	movff	uckuyrukIlkle@veri,indf2
   574  0017EA  0012               	return		;funcret
   575  0017EC                     __end_of_uckuyrukIlkle:
   576                           	callstack 0
   577                           
   578 ;; *************** function _sisOsilatorIlkle *****************
   579 ;; Defined at:
   580 ;;		line 27 in file "osilator.c"
   581 ;; Parameters:    Size  Location     Type
   582 ;;		None
   583 ;; Auto vars:     Size  Location     Type
   584 ;;		None
   585 ;; Return value:  Size  Location     Type
   586 ;;                  1    wreg      void 
   587 ;; Registers used:
   588 ;;		wreg, status,2
   589 ;; Tracked objects:
   590 ;;		On entry : 0/0
   591 ;;		On exit  : 0/0
   592 ;;		Unchanged: 0/0
   593 ;; Data sizes:     COMRAM   BANK0   BANK1   BANK2   BANK3   BANK4   BANK5   BANK6   BANK7   BANK8   BANK9  BANK10  BANK1
      +1  BANK12  BANK13  BANK14  BANK15
   594 ;;      Params:         0       0       0       0       0       0       0       0       0       0       0       0       
      +0       0       0       0       0
   595 ;;      Locals:         0       0       0       0       0       0       0       0       0       0       0       0       
      +0       0       0       0       0
   596 ;;      Temps:          0       0       0       0       0       0       0       0       0       0       0       0       
      +0       0       0       0       0
   597 ;;      Totals:         0       0       0       0       0       0       0       0       0       0       0       0       
      +0       0       0       0       0
   598 ;;Total ram usage:        0 bytes
   599 ;; Hardware stack levels used:    1
   600 ;; Hardware stack levels required when called:    3
   601 ;; This function calls:
   602 ;;		Nothing
   603 ;; This function is called by:
   604 ;;		_main
   605 ;; This function uses a non-reentrant model
   606 ;;
   607                           
   608                           	psect	text2
   609  0018DA                     __ptext2:
   610                           	callstack 0
   611  0018DA                     _sisOsilatorIlkle:
   612                           	callstack 27
   613                           
   614                           ;osilator.c: 29:     OSCCON = 0b01110011;
   615                           
   616                           ;incstack = 0
   617  0018DA  0E73               	movlw	115
   618  0018DC  6ED3               	movwf	211,c	;volatile
   619                           
   620                           ;osilator.c: 31:     OSCCON2 = 0x04;
   621  0018DE  0E04               	movlw	4
   622  0018E0  6ED2               	movwf	210,c	;volatile
   623                           
   624                           ;osilator.c: 33:     OSCTUNE = 0x00;
   625  0018E2  0E00               	movlw	0
   626  0018E4  6E9B               	movwf	155,c	;volatile
   627  0018E6  0012               	return		;funcret
   628  0018E8                     __end_of_sisOsilatorIlkle:
   629                           	callstack 0
   630                           
   631 ;; *************** function _portGorevciyiBaslat *****************
   632 ;; Defined at:
   633 ;;		line 47 in file "../../../../../kaynak/portlar/mplabx/xc8/pic18/port.c"
   634 ;; Parameters:    Size  Location     Type
   635 ;;		None
   636 ;; Auto vars:     Size  Location     Type
   637 ;;		None
   638 ;; Return value:  Size  Location     Type
   639 ;;                  1    wreg      void 
   640 ;; Registers used:
   641 ;;		wreg, fsr1l, fsr1h, fsr2l, fsr2h, status,2, status,0, pclath, tosl, tblptrl, tblptrh, tblptru, prodl, prodh, cstack
   642 ;; Tracked objects:
   643 ;;		On entry : 0/0
   644 ;;		On exit  : 3F/0
   645 ;;		Unchanged: 0/0
   646 ;; Data sizes:     COMRAM   BANK0   BANK1   BANK2   BANK3   BANK4   BANK5   BANK6   BANK7   BANK8   BANK9  BANK10  BANK1
      +1  BANK12  BANK13  BANK14  BANK15
   647 ;;      Params:         0       0       0       0       0       0       0       0       0       0       0       0       
      +0       0       0       0       0
   648 ;;      Locals:         0       0       0       0       0       0       0       0       0       0       0       0       
      +0       0       0       0       0
   649 ;;      Temps:          0       0       0       0       0       0       0       0       0       0       0       0       
      +0       0       0       0       0
   650 ;;      Totals:         0       0       0       0       0       0       0       0       0       0       0       0       
      +0       0       0       0       0
   651 ;;Total ram usage:        0 bytes
   652 ;; Hardware stack levels used:    1
   653 ;; Hardware stack levels required when called:    7
   654 ;; This function calls:
   655 ;;		_gorevciyiBaslat
   656 ;;		_interruptIlkle
   657 ;;		_sisTimerIlkle
   658 ;; This function is called by:
   659 ;;		_main
   660 ;; This function uses a non-reentrant model
   661 ;;
   662                           
   663                           	psect	text3
   664  0018AA                     __ptext3:
   665                           	callstack 0
   666  0018AA                     _portGorevciyiBaslat:
   667                           	callstack 23
   668                           
   669                           ;../../../../../kaynak/portlar/mplabx/xc8/pic18/port.c: 49:  interruptIlkle();
   670                           
   671                           ;incstack = 0
   672  0018AA  EC7C  F00C         	call	_interruptIlkle	;wreg free
   673                           
   674                           ;../../../../../kaynak/portlar/mplabx/xc8/pic18/port.c: 52:  sisTimerIlkle(sisTikKesmeIs
      +                          leyici);
   675  0018AE  0EF2               	movlw	low _sisTikKesmeIsleyici
   676  0018B0  6E44               	movwf	sisTimerIlkle@isleyici^0,c
   677  0018B2  0E18               	movlw	high _sisTikKesmeIsleyici
   678  0018B4  6E45               	movwf	(sisTimerIlkle@isleyici+1)^0,c
   679  0018B6  ECBA  F00B         	call	_sisTimerIlkle	;wreg free
   680                           
   681                           ;../../../../../kaynak/portlar/mplabx/xc8/pic18/port.c: 55:  INTCONbits.GIEH = 1;;
   682  0018BA  8EF2               	bsf	242,7,c	;volatile
   683                           
   684                           ;../../../../../kaynak/portlar/mplabx/xc8/pic18/port.c: 58:  gorevciyiBaslat();
   685  0018BC  ECAE  F00A         	call	_gorevciyiBaslat	;wreg free
   686                           
   687                           ; BSR set to: 0
   688  0018C0  0012               	return		;funcret
   689  0018C2                     __end_of_portGorevciyiBaslat:
   690                           	callstack 0
   691                           
   692 ;; *************** function _sisTimerIlkle *****************
   693 ;; Defined at:
   694 ;;		line 134 in file "sistimer.c"
   695 ;; Parameters:    Size  Location     Type
   696 ;;  isleyici        2   16[COMRAM] PTR FTN()void 
   697 ;;		 -> sisTikKesmeIsleyici(1), 
   698 ;; Auto vars:     Size  Location     Type
   699 ;;		None
   700 ;; Return value:  Size  Location     Type
   701 ;;                  1    wreg      void 
   702 ;; Registers used:
   703 ;;		wreg, status,2, status,0, cstack
   704 ;; Tracked objects:
   705 ;;		On entry : 0/0
   706 ;;		On exit  : 0/0
   707 ;;		Unchanged: 0/0
   708 ;; Data sizes:     COMRAM   BANK0   BANK1   BANK2   BANK3   BANK4   BANK5   BANK6   BANK7   BANK8   BANK9  BANK10  BANK1
      +1  BANK12  BANK13  BANK14  BANK15
   709 ;;      Params:         2       0       0       0       0       0       0       0       0       0       0       0       
      +0       0       0       0       0
   710 ;;      Locals:         0       0       0       0       0       0       0       0       0       0       0       0       
      +0       0       0       0       0
   711 ;;      Temps:          0       0       0       0       0       0       0       0       0       0       0       0       
      +0       0       0       0       0
   712 ;;      Totals:         2       0       0       0       0       0       0       0       0       0       0       0       
      +0       0       0       0       0
   713 ;;Total ram usage:        2 bytes
   714 ;; Hardware stack levels used:    1
   715 ;; Hardware stack levels required when called:    4
   716 ;; This function calls:
   717 ;;		_timer0KesmeIsleyiciKur
   718 ;; This function is called by:
   719 ;;		_portGorevciyiBaslat
   720 ;; This function uses a non-reentrant model
   721 ;;
   722                           
   723                           	psect	text4
   724  001774                     __ptext4:
   725                           	callstack 0
   726  001774                     _sisTimerIlkle:
   727                           	callstack 25
   728                           
   729                           ;sistimer.c: 135:     T0CON = 0;
   730                           
   731                           ; BSR set to: 0
   732                           ;incstack = 0
   733  001774  0E00               	movlw	0
   734  001776  6ED5               	movwf	213,c	;volatile
   735                           
   736                           ;sistimer.c: 137:     T0CONbits.T08BIT = 0;
   737  001778  9CD5               	bcf	213,6,c	;volatile
   738                           
   739                           ;sistimer.c: 142:     T0CONbits.T0CS = 0;
   740  00177A  9AD5               	bcf	213,5,c	;volatile
   741                           
   742                           ;sistimer.c: 145:     T0CONbits.PSA = 1;
   743  00177C  86D5               	bsf	213,3,c	;volatile
   744                           
   745                           ;sistimer.c: 154:     TMR0 = (uint16_t) ((uint16_t)((65536)-((( (1000) - ( ( ( 52 ) * ( 
      +                          ( 1 * ( 100 ) ) / ( (16000000 / 4 ) / 1000000 ) ) ) / ( 100 ) ) )* (16000000/1000000))/(
      +                          4*(1)))-1));
   746  00177E  0EF0               	movlw	240
   747  001780  6ED7               	movwf	215,c	;volatile
   748  001782  0E93               	movlw	147
   749  001784  6ED6               	movwf	214,c	;volatile
   750                           
   751                           ;sistimer.c: 160:     sisTimerDisIsleyici = isleyici == ((void*)0) ? sisTimerIsleyiciVar
      +                          sayilan : isleyici;
   752  001786  5044               	movf	sisTimerIlkle@isleyici^0,w,c
   753  001788  1045               	iorwf	(sisTimerIlkle@isleyici+1)^0,w,c
   754  00178A  B4D8               	btfsc	status,2,c
   755  00178C  D005               	goto	l2036
   756  00178E  C044  F00F         	movff	sisTimerIlkle@isleyici,_sisTimerDisIsleyici
   757  001792  C045  F010         	movff	sisTimerIlkle@isleyici+1,_sisTimerDisIsleyici+1
   758  001796  D004               	goto	l2038
   759  001798                     l2036:
   760  001798  0EFC               	movlw	low _sisTimerIsleyiciVarsayilan
   761  00179A  6E0F               	movwf	_sisTimerDisIsleyici^0,c
   762  00179C  0E18               	movlw	high _sisTimerIsleyiciVarsayilan
   763  00179E  6E10               	movwf	(_sisTimerDisIsleyici+1)^0,c
   764  0017A0                     l2038:
   765                           
   766                           ;sistimer.c: 162:     timer0KesmeIsleyiciKur(sisTimerKesmeIsleyici);
   767  0017A0  0E70               	movlw	low _sisTimerKesmeIsleyici
   768  0017A2  6E42               	movwf	timer0KesmeIsleyiciKur@isleyici^0,c
   769  0017A4  0E18               	movlw	high _sisTimerKesmeIsleyici
   770  0017A6  6E43               	movwf	(timer0KesmeIsleyiciKur@isleyici+1)^0,c
   771  0017A8  EC74  F00C         	call	_timer0KesmeIsleyiciKur	;wreg free
   772                           
   773                           ;sistimer.c: 165:     INTCONbits.TMR0IF = 0;
   774  0017AC  94F2               	bcf	242,2,c	;volatile
   775                           
   776                           ;sistimer.c: 166:     INTCONbits.TMR0IE = 1;
   777  0017AE  8AF2               	bsf	242,5,c	;volatile
   778                           
   779                           ;sistimer.c: 169:     T0CONbits.TMR0ON = 1;
   780  0017B0  8ED5               	bsf	213,7,c	;volatile
   781  0017B2  0012               	return		;funcret
   782  0017B4                     __end_of_sisTimerIlkle:
   783                           	callstack 0
   784                           
   785 ;; *************** function _timer0KesmeIsleyiciKur *****************
   786 ;; Defined at:
   787 ;;		line 38 in file "interrupt.c"
   788 ;; Parameters:    Size  Location     Type
   789 ;;  isleyici        2   14[COMRAM] PTR FTN()void 
   790 ;;		 -> sisTimerKesmeIsleyici(1), 
   791 ;; Auto vars:     Size  Location     Type
   792 ;;		None
   793 ;; Return value:  Size  Location     Type
   794 ;;                  1    wreg      void 
   795 ;; Registers used:
   796 ;;		wreg, status,2, status,0
   797 ;; Tracked objects:
   798 ;;		On entry : 0/0
   799 ;;		On exit  : 0/0
   800 ;;		Unchanged: 0/0
   801 ;; Data sizes:     COMRAM   BANK0   BANK1   BANK2   BANK3   BANK4   BANK5   BANK6   BANK7   BANK8   BANK9  BANK10  BANK1
      +1  BANK12  BANK13  BANK14  BANK15
   802 ;;      Params:         2       0       0       0       0       0       0       0       0       0       0       0       
      +0       0       0       0       0
   803 ;;      Locals:         0       0       0       0       0       0       0       0       0       0       0       0       
      +0       0       0       0       0
   804 ;;      Temps:          0       0       0       0       0       0       0       0       0       0       0       0       
      +0       0       0       0       0
   805 ;;      Totals:         2       0       0       0       0       0       0       0       0       0       0       0       
      +0       0       0       0       0
   806 ;;Total ram usage:        2 bytes
   807 ;; Hardware stack levels used:    1
   808 ;; Hardware stack levels required when called:    3
   809 ;; This function calls:
   810 ;;		Nothing
   811 ;; This function is called by:
   812 ;;		_sisTimerIlkle
   813 ;; This function uses a non-reentrant model
   814 ;;
   815                           
   816                           	psect	text5
   817  0018E8                     __ptext5:
   818                           	callstack 0
   819  0018E8                     _timer0KesmeIsleyiciKur:
   820                           	callstack 25
   821                           
   822                           ;interrupt.c: 39:     timer0KesmeIsleyici = isleyici;
   823                           
   824                           ;incstack = 0
   825  0018E8  C042  F015         	movff	timer0KesmeIsleyiciKur@isleyici,_timer0KesmeIsleyici
   826  0018EC  C043  F016         	movff	timer0KesmeIsleyiciKur@isleyici+1,_timer0KesmeIsleyici+1
   827  0018F0  0012               	return		;funcret
   828  0018F2                     __end_of_timer0KesmeIsleyiciKur:
   829                           	callstack 0
   830                           
   831 ;; *************** function _interruptIlkle *****************
   832 ;; Defined at:
   833 ;;		line 31 in file "interrupt.c"
   834 ;; Parameters:    Size  Location     Type
   835 ;;		None
   836 ;; Auto vars:     Size  Location     Type
   837 ;;		None
   838 ;; Return value:  Size  Location     Type
   839 ;;                  1    wreg      void 
   840 ;; Registers used:
   841 ;;		None
   842 ;; Tracked objects:
   843 ;;		On entry : 0/0
   844 ;;		On exit  : 0/0
   845 ;;		Unchanged: 0/0
   846 ;; Data sizes:     COMRAM   BANK0   BANK1   BANK2   BANK3   BANK4   BANK5   BANK6   BANK7   BANK8   BANK9  BANK10  BANK1
      +1  BANK12  BANK13  BANK14  BANK15
   847 ;;      Params:         0       0       0       0       0       0       0       0       0       0       0       0       
      +0       0       0       0       0
   848 ;;      Locals:         0       0       0       0       0       0       0       0       0       0       0       0       
      +0       0       0       0       0
   849 ;;      Temps:          0       0       0       0       0       0       0       0       0       0       0       0       
      +0       0       0       0       0
   850 ;;      Totals:         0       0       0       0       0       0       0       0       0       0       0       0       
      +0       0       0       0       0
   851 ;;Total ram usage:        0 bytes
   852 ;; Hardware stack levels used:    1
   853 ;; Hardware stack levels required when called:    3
   854 ;; This function calls:
   855 ;;		Nothing
   856 ;; This function is called by:
   857 ;;		_portGorevciyiBaslat
   858 ;; This function uses a non-reentrant model
   859 ;;
   860                           
   861                           	psect	text6
   862  0018F8                     __ptext6:
   863                           	callstack 0
   864  0018F8                     _interruptIlkle:
   865                           	callstack 26
   866                           
   867                           ;interrupt.c: 34:     RCONbits.IPEN = 0;
   868                           
   869                           ;incstack = 0
   870  0018F8  9ED0               	bcf	208,7,c	;volatile
   871  0018FA  0012               	return		;funcret
   872  0018FC                     __end_of_interruptIlkle:
   873                           	callstack 0
   874                           
   875 ;; *************** function _gorevciyiBaslat *****************
   876 ;; Defined at:
   877 ;;		line 120 in file "../../../../../kaynak/gorev.c"
   878 ;; Parameters:    Size  Location     Type
   879 ;;		None
   880 ;; Auto vars:     Size  Location     Type
   881 ;;  glo             2    5[BANK0 ] PTR struct .
   882 ;;		 -> gorevHeap(24), NULL(0), 
   883 ;;  donus           1    7[BANK0 ] unsigned char 
   884 ;;  s               1    8[BANK0 ] unsigned char 
   885 ;; Return value:  Size  Location     Type
   886 ;;                  1    wreg      void 
   887 ;; Registers used:
   888 ;;		wreg, fsr1l, fsr1h, fsr2l, fsr2h, status,2, status,0, pclath, tosl, tblptrl, tblptrh, tblptru, prodl, prodh, cstack
   889 ;; Tracked objects:
   890 ;;		On entry : 0/0
   891 ;;		On exit  : 3F/0
   892 ;;		Unchanged: 0/0
   893 ;; Data sizes:     COMRAM   BANK0   BANK1   BANK2   BANK3   BANK4   BANK5   BANK6   BANK7   BANK8   BANK9  BANK10  BANK1
      +1  BANK12  BANK13  BANK14  BANK15
   894 ;;      Params:         0       0       0       0       0       0       0       0       0       0       0       0       
      +0       0       0       0       0
   895 ;;      Locals:         0       4       0       0       0       0       0       0       0       0       0       0       
      +0       0       0       0       0
   896 ;;      Temps:          0       2       0       0       0       0       0       0       0       0       0       0       
      +0       0       0       0       0
   897 ;;      Totals:         0       6       0       0       0       0       0       0       0       0       0       0       
      +0       0       0       0       0
   898 ;;Total ram usage:        6 bytes
   899 ;; Hardware stack levels used:    1
   900 ;; Hardware stack levels required when called:    6
   901 ;; This function calls:
   902 ;;		_gostergeDegerleriGuncelle
   903 ;;		_gostergeTara
   904 ;;		_listedenSil
   905 ;;		_listeyeEkle
   906 ;;		_uretici1
   907 ;;		_uretici2
   908 ;; This function is called by:
   909 ;;		_portGorevciyiBaslat
   910 ;; This function uses a non-reentrant model
   911 ;;
   912                           
   913                           	psect	text7
   914  00155C                     __ptext7:
   915                           	callstack 0
   916  00155C                     _gorevciyiBaslat:
   917                           	callstack 23
   918                           
   919                           ;../../../../../kaynak/gorev.c: 122:   for(char s = 0; s < gorevSayimi; s++) {
   920                           
   921                           ;incstack = 0
   922                           ;../../../../../kaynak/gorev.c: 121:  while(1) {
   923  00155C  0E00               	movlw	0
   924  00155E  0100               	movlb	0	; () banked
   925  001560  6F88               	movwf	gorevciyiBaslat@s& (0+255),b
   926  001562  D04A               	goto	l2602
   927  001564                     l2590:
   928                           
   929                           ; BSR set to: 0
   930                           ;../../../../../kaynak/gorev.c: 123:    char donus = calisanListesi[s]->is(calisanListes
      +                          i[s]);
   931  001564  5188               	movf	gorevciyiBaslat@s& (0+255),w,b
   932  001566  0D02               	mullw	2
   933  001568  50F3               	movf	243,w,c
   934  00156A  0F1E               	addlw	low _calisanListesi
   935  00156C  6ED9               	movwf	fsr2l,c
   936  00156E  6ADA               	clrf	fsr2h,c
   937  001570  CFDE F04A          	movff	postinc2,gostergeTara@tutucu
   938  001574  CFDD F04B          	movff	postdec2,gostergeTara@tutucu+1
   939  001578  5188               	movf	gorevciyiBaslat@s& (0+255),w,b
   940  00157A  0D02               	mullw	2
   941  00157C  50F3               	movf	243,w,c
   942  00157E  0F1E               	addlw	low _calisanListesi
   943  001580  6ED9               	movwf	fsr2l,c
   944  001582  6ADA               	clrf	fsr2h,c
   945  001584  EE10 F002          	lfsr	1,2
   946  001588  50DE               	movf	postinc2,w,c
   947  00158A  26E1               	addwf	fsr1l,f,c
   948  00158C  50DD               	movf	postdec2,w,c
   949  00158E  22E2               	addwfc	fsr1h,f,c
   950  001590  CFE6 F083          	movff	postinc1,??_gorevciyiBaslat
   951  001594  CFE5 F084          	movff	postdec1,??_gorevciyiBaslat+1
   952  001598  D801               	call	u1378
   953  00159A  D009               	goto	u1379
   954  00159C                     u1378:
   955  00159C  0005               	push	
   956  00159E  6EFA               	movwf	pclath,c
   957  0015A0  5183               	movf	??_gorevciyiBaslat& (0+255),w,b
   958  0015A2  6EFD               	movwf	tosl,c
   959  0015A4  5184               	movf	(??_gorevciyiBaslat+1)& (0+255),w,b
   960  0015A6  6EFE               	movwf	tosh,c
   961  0015A8  6AFF               	clrf	tosu,c
   962  0015AA  50FA               	movf	pclath,w,c
   963  0015AC  0012               	return		;indir
   964  0015AE                     u1379:
   965  0015AE  0100               	movlb	0	; () banked
   966  0015B0  6F87               	movwf	gorevciyiBaslat@donus& (0+255),b
   967                           
   968                           ; BSR set to: 0
   969                           ;../../../../../kaynak/gorev.c: 124:             if(donus == 1) {
   970  0015B2  0587               	decf	gorevciyiBaslat@donus& (0+255),w,b
   971  0015B4  A4D8               	btfss	status,2,c
   972  0015B6  D01E               	goto	l2600
   973                           
   974                           ; BSR set to: 0
   975                           ;../../../../../kaynak/gorev.c: 128:                 gorevListeOgesi_t glo = calisanList
      +                          esi[s];
   976  0015B8  5188               	movf	gorevciyiBaslat@s& (0+255),w,b
   977  0015BA  0D02               	mullw	2
   978  0015BC  50F3               	movf	243,w,c
   979  0015BE  0F1E               	addlw	low _calisanListesi
   980  0015C0  6ED9               	movwf	fsr2l,c
   981  0015C2  6ADA               	clrf	fsr2h,c
   982  0015C4  CFDE F085          	movff	postinc2,gorevciyiBaslat@glo
   983  0015C8  CFDD F086          	movff	postdec2,gorevciyiBaslat@glo+1
   984                           
   985                           ; BSR set to: 0
   986                           ;../../../../../kaynak/gorev.c: 131:                 listedenSil(calisanListesi, &calisa
      +                          nSayimi, s);
   987  0015CC  0E1E               	movlw	low _calisanListesi
   988  0015CE  6E42               	movwf	listedenSil@liste^0,c
   989  0015D0  0E33               	movlw	low _calisanSayimi
   990  0015D2  6E43               	movwf	listedenSil@sayim^0,c
   991  0015D4  C088  F044         	movff	gorevciyiBaslat@s,listedenSil@konum
   992  0015D8  EC59  F00A         	call	_listedenSil	;wreg free
   993                           
   994                           ; BSR set to: 0
   995                           ;../../../../../kaynak/gorev.c: 134:                 listeyeEkle(cikanListesi, &cikanSay
      +                          imi, 2, glo);
   996  0015DC  0E2E               	movlw	low _cikanListesi
   997  0015DE  6E42               	movwf	listeyeEkle@liste^0,c
   998  0015E0  0E32               	movlw	low _cikanSayimi
   999  0015E2  6E43               	movwf	listeyeEkle@sayim^0,c
  1000  0015E4  0E02               	movlw	2
  1001  0015E6  6E44               	movwf	listeyeEkle@max^0,c
  1002  0015E8  C085  F045         	movff	gorevciyiBaslat@glo,listeyeEkle@glo
  1003  0015EC  C086  F046         	movff	gorevciyiBaslat@glo+1,listeyeEkle@glo+1
  1004  0015F0  EC10  F00C         	call	_listeyeEkle	;wreg free
  1005  0015F4                     l2600:
  1006                           
  1007                           ;../../../../../kaynak/gorev.c: 136:   }
  1008  0015F4  0100               	movlb	0	; () banked
  1009  0015F6  2B88               	incf	gorevciyiBaslat@s& (0+255),f,b
  1010  0015F8                     l2602:
  1011                           
  1012                           ; BSR set to: 0
  1013  0015F8  501A               	movf	_gorevSayimi^0,w,c
  1014  0015FA  5D88               	subwf	gorevciyiBaslat@s& (0+255),w,b
  1015  0015FC  B0D8               	btfsc	status,0,c
  1016  0015FE  D7AE               	goto	_gorevciyiBaslat
  1017  001600  D7B1               	goto	l2590
  1018  001602                     __end_of_gorevciyiBaslat:
  1019                           	callstack 0
  1020                           
  1021 ;; *************** function _gostergeTara *****************
  1022 ;; Defined at:
  1023 ;;		line 145 in file "ornek4.c"
  1024 ;; Parameters:    Size  Location     Type
  1025 ;;  tutucu          2   22[COMRAM] PTR void 
  1026 ;;		 -> gorevHeap(24), NULL(0), 
  1027 ;; Auto vars:     Size  Location     Type
  1028 ;;  VAZGECIS_BAY    1    0        unsigned char 
  1029 ;; Return value:  Size  Location     Type
  1030 ;;                  1    wreg      unsigned char 
  1031 ;; Registers used:
  1032 ;;		wreg, fsr2l, fsr2h, status,2, status,0, tblptrl, tblptrh, tblptru, cstack
  1033 ;; Tracked objects:
  1034 ;;		On entry : 3F/0
  1035 ;;		On exit  : 0/0
  1036 ;;		Unchanged: 0/0
  1037 ;; Data sizes:     COMRAM   BANK0   BANK1   BANK2   BANK3   BANK4   BANK5   BANK6   BANK7   BANK8   BANK9  BANK10  BANK1
      +1  BANK12  BANK13  BANK14  BANK15
  1038 ;;      Params:         2       0       0       0       0       0       0       0       0       0       0       0       
      +0       0       0       0       0
  1039 ;;      Locals:         1       0       0       0       0       0       0       0       0       0       0       0       
      +0       0       0       0       0
  1040 ;;      Temps:          2       0       0       0       0       0       0       0       0       0       0       0       
      +0       0       0       0       0
  1041 ;;      Totals:         5       0       0       0       0       0       0       0       0       0       0       0       
      +0       0       0       0       0
  1042 ;;Total ram usage:        5 bytes
  1043 ;; Hardware stack levels used:    1
  1044 ;; Hardware stack levels required when called:    4
  1045 ;; This function calls:
  1046 ;;		_tikSayiminiAl
  1047 ;; This function is called by:
  1048 ;;		_main
  1049 ;;		_gorevciyiBaslat
  1050 ;; This function uses a non-reentrant model
  1051 ;;
  1052                           
  1053                           	psect	text8
  1054  001014                     __ptext8:
  1055                           	callstack 0
  1056  001014                     _gostergeTara:
  1057                           	callstack 24
  1058                           
  1059                           ; BSR set to: 0
  1060                           
  1061                           ; BSR set to: 0
  1062                           ;incstack = 0
  1063  001014  D0D4               	goto	l2578
  1064  001016                     l2482:
  1065                           
  1066                           ; BSR set to: 0
  1067                           ;ornek4.c: 165:     LATC = 0;
  1068  001016  0E00               	movlw	0
  1069  001018  6E8B               	movwf	139,c	;volatile
  1070                           
  1071                           ;ornek4.c: 166:     ANSELC = 0;
  1072  00101A  0E00               	movlw	0
  1073  00101C  010F               	movlb	15	; () banked
  1074  00101E  6F3A               	movwf	58,b	;volatile
  1075                           
  1076                           ;ornek4.c: 167:     TRISC = 0;
  1077  001020  0E00               	movlw	0
  1078  001022  6E94               	movwf	148,c	;volatile
  1079                           
  1080                           ;ornek4.c: 170:     LATB = 0;
  1081  001024  0E00               	movlw	0
  1082  001026  6E8A               	movwf	138,c	;volatile
  1083                           
  1084                           ;ornek4.c: 171:     ANSELB = 0xF0;
  1085  001028  0EF0               	movlw	240
  1086  00102A  6F39               	movwf	57,b	;volatile
  1087                           
  1088                           ;ornek4.c: 172:     TRISB = 0xF0;
  1089  00102C  0EF0               	movlw	240
  1090  00102E  6E93               	movwf	147,c	;volatile
  1091  001030                     l2484:
  1092                           
  1093                           ;ornek4.c: 176:         LATB &= 0xF0;
  1094  001030  0EF0               	movlw	240
  1095  001032  168A               	andwf	138,f,c	;volatile
  1096                           
  1097                           ;ornek4.c: 177:         LATC = BCDdenOrtakAnoda[gosterge[0]];
  1098  001034  5009               	movf	_gosterge^0,w,c
  1099  001036  0F01               	addlw	low gostergeTara@BCDdenOrtakAnoda
  1100  001038  6E4C               	movwf	??_gostergeTara^0,c
  1101  00103A  C04C  FFF6         	movff	??_gostergeTara,tblptrl
  1102  00103E                     	if	1	;There is more than 1 active tblptr byte
  1103  00103E  0E10               	movlw	high __smallconst
  1104  001040  6EF7               	movwf	tblptrh,c
  1105  001042                     	endif
  1106  001042                     	if	1	;Program memory is < 0x10000, tblptru is always zero
  1107  001042  6AF8               	clrf	tblptru,c
  1108  001044                     	endif
  1109  001044                     	if	0	;tblptru may be non-zero
  1110  001044                     	endif
  1111  001044  0008               	tblrd		*
  1112  001046  CFF5 FF8B          	movff	tablat,3979	;volatile
  1113                           
  1114                           ;ornek4.c: 178:         LATBbits.LATB0 = 1;
  1115  00104A  808A               	bsf	138,0,c	;volatile
  1116                           
  1117                           ;ornek4.c: 179:         ( (sure_t*) &s5 )->kacTik = (5u / (1000u / 1000u)); ( (sure_t*) 
      +                          &s5 )->baslangic = tikSayiminiAl(); ( (gorev_t*) tutucu )->sn = 179; case 179:; if(!(( (
      +                          tikSayiminiAl() - ( (sure_t*) &s5 )->baslangic) >= ( (sure_t*) &s5 )->kacTik ))){ return
      +                           0; };
  1118  00104C  0E00               	movlw	0
  1119  00104E  6E04               	movwf	(gostergeTara@s5+3)^0,c
  1120  001050  0E05               	movlw	5
  1121  001052  6E03               	movwf	(gostergeTara@s5+2)^0,c
  1122  001054  EC47  F00C         	call	_tikSayiminiAl	;wreg free
  1123  001058  C042  F001         	movff	?_tikSayiminiAl,gostergeTara@s5
  1124  00105C  C043  F002         	movff	?_tikSayiminiAl+1,gostergeTara@s5+1
  1125  001060  C04A  FFD9         	movff	gostergeTara@tutucu,fsr2l
  1126  001064  C04B  FFDA         	movff	gostergeTara@tutucu+1,fsr2h
  1127  001068  0EB3               	movlw	179
  1128  00106A  6EDE               	movwf	postinc2,c
  1129  00106C  0E00               	movlw	0
  1130  00106E  6EDD               	movwf	postdec2,c
  1131  001070                     l2496:
  1132  001070  EC47  F00C         	call	_tikSayiminiAl	;wreg free
  1133  001074  5001               	movf	gostergeTara@s5^0,w,c
  1134  001076  5E42               	subwf	?_tikSayiminiAl^0,f,c
  1135  001078  5002               	movf	(gostergeTara@s5+1)^0,w,c
  1136  00107A  5A43               	subwfb	(?_tikSayiminiAl+1)^0,f,c
  1137  00107C  5003               	movf	(gostergeTara@s5+2)^0,w,c
  1138  00107E  5C42               	subwf	?_tikSayiminiAl^0,w,c
  1139  001080  5004               	movf	(gostergeTara@s5+3)^0,w,c
  1140  001082  5843               	subwfb	(?_tikSayiminiAl+1)^0,w,c
  1141  001084  B0D8               	btfsc	status,0,c
  1142  001086  D002               	goto	l2502
  1143  001088                     u1270:
  1144  001088  0E00               	movlw	0
  1145  00108A  0012               	return	
  1146  00108C                     l2502:
  1147                           
  1148                           ;ornek4.c: 182:         if( (gosterge[3] != 0 || gosterge[2] != 0) || gosterge[1] != 0){
  1149  00108C  500C               	movf	(_gosterge+3)^0,w,c
  1150  00108E  A4D8               	btfss	status,2,c
  1151  001090  D006               	goto	u1300
  1152  001092  500B               	movf	(_gosterge+2)^0,w,c
  1153  001094  A4D8               	btfss	status,2,c
  1154  001096  D003               	goto	u1300
  1155  001098  500A               	movf	(_gosterge+1)^0,w,c
  1156  00109A  B4D8               	btfsc	status,2,c
  1157  00109C  D02C               	goto	l2526
  1158  00109E                     u1300:
  1159                           
  1160                           ;ornek4.c: 183:             LATB &= 0xF0;
  1161  00109E  0EF0               	movlw	240
  1162  0010A0  168A               	andwf	138,f,c	;volatile
  1163                           
  1164                           ;ornek4.c: 184:             LATC = BCDdenOrtakAnoda[gosterge[1]];
  1165  0010A2  500A               	movf	(_gosterge+1)^0,w,c
  1166  0010A4  0F01               	addlw	low gostergeTara@BCDdenOrtakAnoda
  1167  0010A6  6E4C               	movwf	??_gostergeTara^0,c
  1168  0010A8  C04C  FFF6         	movff	??_gostergeTara,tblptrl
  1169  0010AC                     	if	1	;There is more than 1 active tblptr byte
  1170  0010AC  0E10               	movlw	high __smallconst
  1171  0010AE  6EF7               	movwf	tblptrh,c
  1172  0010B0                     	endif
  1173  0010B0                     	if	1	;Program memory is < 0x10000, tblptru is always zero
  1174  0010B0  6AF8               	clrf	tblptru,c
  1175  0010B2                     	endif
  1176  0010B2                     	if	0	;tblptru may be non-zero
  1177  0010B2                     	endif
  1178  0010B2  0008               	tblrd		*
  1179  0010B4  CFF5 FF8B          	movff	tablat,3979	;volatile
  1180                           
  1181                           ;ornek4.c: 185:             LATBbits.LATB1 = 1;
  1182  0010B8  828A               	bsf	138,1,c	;volatile
  1183                           
  1184                           ;ornek4.c: 186:             ( (sure_t*) &s5 )->kacTik = (5u / (1000u / 1000u)); ( (sure_
      +                          t*) &s5 )->baslangic = tikSayiminiAl(); ( (gorev_t*) tutucu )->sn = 186; case 186:; if(!
      +                          (( (tikSayiminiAl() - ( (sure_t*) &s5 )->baslangic) >= ( (sure_t*) &s5 )->kacTik ))){ re
      +                          turn 0; };
  1185  0010BA  0E00               	movlw	0
  1186  0010BC  6E04               	movwf	(gostergeTara@s5+3)^0,c
  1187  0010BE  0E05               	movlw	5
  1188  0010C0  6E03               	movwf	(gostergeTara@s5+2)^0,c
  1189  0010C2  EC47  F00C         	call	_tikSayiminiAl	;wreg free
  1190  0010C6  C042  F001         	movff	?_tikSayiminiAl,gostergeTara@s5
  1191  0010CA  C043  F002         	movff	?_tikSayiminiAl+1,gostergeTara@s5+1
  1192  0010CE  C04A  FFD9         	movff	gostergeTara@tutucu,fsr2l
  1193  0010D2  C04B  FFDA         	movff	gostergeTara@tutucu+1,fsr2h
  1194  0010D6  0EBA               	movlw	186
  1195  0010D8  6EDE               	movwf	postinc2,c
  1196  0010DA  0E00               	movlw	0
  1197  0010DC  6EDD               	movwf	postdec2,c
  1198  0010DE                     l2520:
  1199  0010DE  EC47  F00C         	call	_tikSayiminiAl	;wreg free
  1200  0010E2  5001               	movf	gostergeTara@s5^0,w,c
  1201  0010E4  5E42               	subwf	?_tikSayiminiAl^0,f,c
  1202  0010E6  5002               	movf	(gostergeTara@s5+1)^0,w,c
  1203  0010E8  5A43               	subwfb	(?_tikSayiminiAl+1)^0,f,c
  1204  0010EA  5003               	movf	(gostergeTara@s5+2)^0,w,c
  1205  0010EC  5C42               	subwf	?_tikSayiminiAl^0,w,c
  1206  0010EE  5004               	movf	(gostergeTara@s5+3)^0,w,c
  1207  0010F0  5843               	subwfb	(?_tikSayiminiAl+1)^0,w,c
  1208  0010F2  A0D8               	btfss	status,0,c
  1209  0010F4  D7C9               	goto	u1270
  1210  0010F6                     l2526:
  1211                           
  1212                           ;ornek4.c: 190:         if(gosterge[3] != 0 || gosterge[2] != 0){
  1213  0010F6  500C               	movf	(_gosterge+3)^0,w,c
  1214  0010F8  A4D8               	btfss	status,2,c
  1215  0010FA  D003               	goto	u1330
  1216  0010FC  500B               	movf	(_gosterge+2)^0,w,c
  1217  0010FE  B4D8               	btfsc	status,2,c
  1218  001100  D02C               	goto	l2548
  1219  001102                     u1330:
  1220                           
  1221                           ;ornek4.c: 191:             LATB &= 0xF0;
  1222  001102  0EF0               	movlw	240
  1223  001104  168A               	andwf	138,f,c	;volatile
  1224                           
  1225                           ;ornek4.c: 192:             LATC = BCDdenOrtakAnoda[gosterge[2]];
  1226  001106  500B               	movf	(_gosterge+2)^0,w,c
  1227  001108  0F01               	addlw	low gostergeTara@BCDdenOrtakAnoda
  1228  00110A  6E4C               	movwf	??_gostergeTara^0,c
  1229  00110C  C04C  FFF6         	movff	??_gostergeTara,tblptrl
  1230  001110                     	if	1	;There is more than 1 active tblptr byte
  1231  001110  0E10               	movlw	high __smallconst
  1232  001112  6EF7               	movwf	tblptrh,c
  1233  001114                     	endif
  1234  001114                     	if	1	;Program memory is < 0x10000, tblptru is always zero
  1235  001114  6AF8               	clrf	tblptru,c
  1236  001116                     	endif
  1237  001116                     	if	0	;tblptru may be non-zero
  1238  001116                     	endif
  1239  001116  0008               	tblrd		*
  1240  001118  CFF5 FF8B          	movff	tablat,3979	;volatile
  1241                           
  1242                           ;ornek4.c: 193:             LATBbits.LATB2 = 1;
  1243  00111C  848A               	bsf	138,2,c	;volatile
  1244                           
  1245                           ;ornek4.c: 194:             ( (sure_t*) &s5 )->kacTik = (5u / (1000u / 1000u)); ( (sure_
      +                          t*) &s5 )->baslangic = tikSayiminiAl(); ( (gorev_t*) tutucu )->sn = 194; case 194:; if(!
      +                          (( (tikSayiminiAl() - ( (sure_t*) &s5 )->baslangic) >= ( (sure_t*) &s5 )->kacTik ))){ re
      +                          turn 0; };
  1246  00111E  0E00               	movlw	0
  1247  001120  6E04               	movwf	(gostergeTara@s5+3)^0,c
  1248  001122  0E05               	movlw	5
  1249  001124  6E03               	movwf	(gostergeTara@s5+2)^0,c
  1250  001126  EC47  F00C         	call	_tikSayiminiAl	;wreg free
  1251  00112A  C042  F001         	movff	?_tikSayiminiAl,gostergeTara@s5
  1252  00112E  C043  F002         	movff	?_tikSayiminiAl+1,gostergeTara@s5+1
  1253  001132  C04A  FFD9         	movff	gostergeTara@tutucu,fsr2l
  1254  001136  C04B  FFDA         	movff	gostergeTara@tutucu+1,fsr2h
  1255  00113A  0EC2               	movlw	194
  1256  00113C  6EDE               	movwf	postinc2,c
  1257  00113E  0E00               	movlw	0
  1258  001140  6EDD               	movwf	postdec2,c
  1259  001142                     l2542:
  1260  001142  EC47  F00C         	call	_tikSayiminiAl	;wreg free
  1261  001146  5001               	movf	gostergeTara@s5^0,w,c
  1262  001148  5E42               	subwf	?_tikSayiminiAl^0,f,c
  1263  00114A  5002               	movf	(gostergeTara@s5+1)^0,w,c
  1264  00114C  5A43               	subwfb	(?_tikSayiminiAl+1)^0,f,c
  1265  00114E  5003               	movf	(gostergeTara@s5+2)^0,w,c
  1266  001150  5C42               	subwf	?_tikSayiminiAl^0,w,c
  1267  001152  5004               	movf	(gostergeTara@s5+3)^0,w,c
  1268  001154  5843               	subwfb	(?_tikSayiminiAl+1)^0,w,c
  1269  001156  A0D8               	btfss	status,0,c
  1270  001158  D797               	goto	u1270
  1271  00115A                     l2548:
  1272                           
  1273                           ;ornek4.c: 198:         if(gosterge[3] != 0){
  1274  00115A  500C               	movf	(_gosterge+3)^0,w,c
  1275  00115C  B4D8               	btfsc	status,2,c
  1276  00115E  D768               	goto	l2484
  1277                           
  1278                           ;ornek4.c: 199:             LATB &= 0xF0;
  1279  001160  0EF0               	movlw	240
  1280  001162  168A               	andwf	138,f,c	;volatile
  1281                           
  1282                           ;ornek4.c: 200:             LATC = BCDdenOrtakAnoda[gosterge[3]];
  1283  001164  500C               	movf	(_gosterge+3)^0,w,c
  1284  001166  0F01               	addlw	low gostergeTara@BCDdenOrtakAnoda
  1285  001168  6E4C               	movwf	??_gostergeTara^0,c
  1286  00116A  C04C  FFF6         	movff	??_gostergeTara,tblptrl
  1287  00116E                     	if	1	;There is more than 1 active tblptr byte
  1288  00116E  0E10               	movlw	high __smallconst
  1289  001170  6EF7               	movwf	tblptrh,c
  1290  001172                     	endif
  1291  001172                     	if	1	;Program memory is < 0x10000, tblptru is always zero
  1292  001172  6AF8               	clrf	tblptru,c
  1293  001174                     	endif
  1294  001174                     	if	0	;tblptru may be non-zero
  1295  001174                     	endif
  1296  001174  0008               	tblrd		*
  1297  001176  CFF5 FF8B          	movff	tablat,3979	;volatile
  1298                           
  1299                           ;ornek4.c: 201:             LATBbits.LATB3 = 1;
  1300  00117A  868A               	bsf	138,3,c	;volatile
  1301                           
  1302                           ;ornek4.c: 202:             ( (sure_t*) &s5 )->kacTik = (5u / (1000u / 1000u)); ( (sure_
      +                          t*) &s5 )->baslangic = tikSayiminiAl(); ( (gorev_t*) tutucu )->sn = 202; case 202:; if(!
      +                          (( (tikSayiminiAl() - ( (sure_t*) &s5 )->baslangic) >= ( (sure_t*) &s5 )->kacTik ))){ re
      +                          turn 0; };
  1303  00117C  0E00               	movlw	0
  1304  00117E  6E04               	movwf	(gostergeTara@s5+3)^0,c
  1305  001180  0E05               	movlw	5
  1306  001182  6E03               	movwf	(gostergeTara@s5+2)^0,c
  1307  001184  EC47  F00C         	call	_tikSayiminiAl	;wreg free
  1308  001188  C042  F001         	movff	?_tikSayiminiAl,gostergeTara@s5
  1309  00118C  C043  F002         	movff	?_tikSayiminiAl+1,gostergeTara@s5+1
  1310  001190  C04A  FFD9         	movff	gostergeTara@tutucu,fsr2l
  1311  001194  C04B  FFDA         	movff	gostergeTara@tutucu+1,fsr2h
  1312  001198  0ECA               	movlw	202
  1313  00119A  6EDE               	movwf	postinc2,c
  1314  00119C  0E00               	movlw	0
  1315  00119E  6EDD               	movwf	postdec2,c
  1316  0011A0                     l2562:
  1317  0011A0  EC47  F00C         	call	_tikSayiminiAl	;wreg free
  1318  0011A4  5001               	movf	gostergeTara@s5^0,w,c
  1319  0011A6  5E42               	subwf	?_tikSayiminiAl^0,f,c
  1320  0011A8  5002               	movf	(gostergeTara@s5+1)^0,w,c
  1321  0011AA  5A43               	subwfb	(?_tikSayiminiAl+1)^0,f,c
  1322  0011AC  5003               	movf	(gostergeTara@s5+2)^0,w,c
  1323  0011AE  5C42               	subwf	?_tikSayiminiAl^0,w,c
  1324  0011B0  5004               	movf	(gostergeTara@s5+3)^0,w,c
  1325  0011B2  5843               	subwfb	(?_tikSayiminiAl+1)^0,w,c
  1326  0011B4  A0D8               	btfss	status,0,c
  1327  0011B6  D768               	goto	u1270
  1328  0011B8  D73B               	goto	l2484
  1329  0011BA                     l2572:
  1330                           
  1331                           ; BSR set to: 0
  1332  0011BA  0E02               	movlw	2
  1333  0011BC  0012               	return	
  1334  0011BE                     l2578:
  1335                           
  1336                           ; BSR set to: 0
  1337  0011BE  C04A  FFD9         	movff	gostergeTara@tutucu,fsr2l
  1338  0011C2  C04B  FFDA         	movff	gostergeTara@tutucu+1,fsr2h
  1339  0011C6  CFDE F04C          	movff	postinc2,??_gostergeTara
  1340  0011CA  CFDD F04D          	movff	postdec2,??_gostergeTara+1
  1341                           
  1342                           ; Switch on 2 bytes has been partitioned into a top level switch of size 1, and 1 sub-sw
      +                          itches
  1343                           ; Switch size 1, requested type "simple"
  1344                           ; Number of cases is 1, Range of values is 0 to 0
  1345                           ; switch strategies available:
  1346                           ; Name         Instructions Cycles
  1347                           ; simple_byte            4     3 (average)
  1348                           ;	Chosen strategy is simple_byte
  1349  0011CE  504D               	movf	(??_gostergeTara+1)^0,w,c
  1350  0011D0  0A00               	xorlw	0	; case 0
  1351  0011D2  A4D8               	btfss	status,2,c
  1352  0011D4  D013               	goto	l2580
  1353                           
  1354                           ; BSR set to: 0
  1355                           ; Switch size 1, requested type "simple"
  1356                           ; Number of cases is 6, Range of values is 0 to 207
  1357                           ; switch strategies available:
  1358                           ; Name         Instructions Cycles
  1359                           ; simple_byte           19    10 (average)
  1360                           ;	Chosen strategy is simple_byte
  1361  0011D6  504C               	movf	??_gostergeTara^0,w,c
  1362  0011D8  0A00               	xorlw	0	; case 0
  1363  0011DA  B4D8               	btfsc	status,2,c
  1364  0011DC  D71C               	goto	l2482
  1365  0011DE  0AB3               	xorlw	179	; case 179
  1366  0011E0  B4D8               	btfsc	status,2,c
  1367  0011E2  D746               	goto	l2496
  1368  0011E4  0A09               	xorlw	9	; case 186
  1369  0011E6  B4D8               	btfsc	status,2,c
  1370  0011E8  D77A               	goto	l2520
  1371  0011EA  0A78               	xorlw	120	; case 194
  1372  0011EC  B4D8               	btfsc	status,2,c
  1373  0011EE  D7A9               	goto	l2542
  1374  0011F0  0A08               	xorlw	8	; case 202
  1375  0011F2  B4D8               	btfsc	status,2,c
  1376  0011F4  D7D5               	goto	l2562
  1377  0011F6  0A05               	xorlw	5	; case 207
  1378  0011F8  B4D8               	btfsc	status,2,c
  1379  0011FA  D7DF               	goto	l2572
  1380  0011FC                     l2580:
  1381                           
  1382                           ; BSR set to: 0
  1383  0011FC  0E01               	movlw	1
  1384  0011FE  0012               	return		;funcret
  1385  001200                     __end_of_gostergeTara:
  1386                           	callstack 0
  1387                           
  1388 ;; *************** function _gostergeDegerleriGuncelle *****************
  1389 ;; Defined at:
  1390 ;;		line 113 in file "ornek4.c"
  1391 ;; Parameters:    Size  Location     Type
  1392 ;;  tutucu          2   22[COMRAM] PTR void 
  1393 ;;		 -> gorevHeap(24), NULL(0), 
  1394 ;; Auto vars:     Size  Location     Type
  1395 ;;  b               2    1[BANK0 ] unsigned int 
  1396 ;;  VAZGECIS_BAY    1    0        unsigned char 
  1397 ;; Return value:  Size  Location     Type
  1398 ;;                  1    wreg      unsigned char 
  1399 ;; Registers used:
  1400 ;;		wreg, fsr2l, fsr2h, status,2, status,0, cstack
  1401 ;; Tracked objects:
  1402 ;;		On entry : 3F/0
  1403 ;;		On exit  : 0/0
  1404 ;;		Unchanged: 0/0
  1405 ;; Data sizes:     COMRAM   BANK0   BANK1   BANK2   BANK3   BANK4   BANK5   BANK6   BANK7   BANK8   BANK9  BANK10  BANK1
      +1  BANK12  BANK13  BANK14  BANK15
  1406 ;;      Params:         2       0       0       0       0       0       0       0       0       0       0       0       
      +0       0       0       0       0
  1407 ;;      Locals:         0       3       0       0       0       0       0       0       0       0       0       0       
      +0       0       0       0       0
  1408 ;;      Temps:          2       0       0       0       0       0       0       0       0       0       0       0       
      +0       0       0       0       0
  1409 ;;      Totals:         4       3       0       0       0       0       0       0       0       0       0       0       
      +0       0       0       0       0
  1410 ;;Total ram usage:        7 bytes
  1411 ;; Hardware stack levels used:    1
  1412 ;; Hardware stack levels required when called:    5
  1413 ;; This function calls:
  1414 ;;		_tikSayiminiAl
  1415 ;;		_uckuyrukBos
  1416 ;;		_uckuyrukKuyruktanAl
  1417 ;; This function is called by:
  1418 ;;		_main
  1419 ;;		_gorevciyiBaslat
  1420 ;; This function uses a non-reentrant model
  1421 ;;
  1422                           
  1423                           	psect	text9
  1424  001200                     __ptext9:
  1425                           	callstack 0
  1426  001200                     _gostergeDegerleriGuncelle:
  1427                           	callstack 23
  1428                           
  1429                           ; BSR set to: 0
  1430                           
  1431                           ;incstack = 0
  1432  001200  D067               	goto	l2470
  1433  001202                     l2414:
  1434                           
  1435                           ;ornek4.c: 119:         ( (gorev_t*) (tutucu) )->sn = 119; case 119:; if(!(!(uckuyrukBos
      +                          (&kuyruk1)))){ return 0; };
  1436  001202  C04A  FFD9         	movff	gostergeDegerleriGuncelle@tutucu,fsr2l
  1437  001206  C04B  FFDA         	movff	gostergeDegerleriGuncelle@tutucu+1,fsr2h
  1438  00120A  0E77               	movlw	119
  1439  00120C  6EDE               	movwf	postinc2,c
  1440  00120E  0E00               	movlw	0
  1441  001210  6EDD               	movwf	postdec2,c
  1442  001212                     l2416:
  1443  001212  0E2A               	movlw	low _kuyruk1
  1444  001214  6E42               	movwf	uckuyrukBos@kuyruk^0,c
  1445  001216  EC61  F00C         	call	_uckuyrukBos	;wreg free
  1446  00121A  0900               	iorlw	0
  1447  00121C  B4D8               	btfsc	status,2,c
  1448  00121E  D002               	goto	l2422
  1449  001220                     u1220:
  1450  001220  0E00               	movlw	0
  1451  001222  0012               	return	
  1452  001224                     l2422:
  1453                           
  1454                           ;ornek4.c: 121:         unsigned b = (unsigned) uckuyrukKuyruktanAl(&kuyruk1);
  1455  001224  0E2A               	movlw	low _kuyruk1
  1456  001226  6E43               	movwf	uckuyrukKuyruktanAl@kuyruk^0,c
  1457  001228  EC39  F00B         	call	_uckuyrukKuyruktanAl	;wreg free
  1458  00122C  6E4C               	movwf	??_gostergeDegerleriGuncelle^0,c
  1459  00122E  504C               	movf	??_gostergeDegerleriGuncelle^0,w,c
  1460  001230  0100               	movlb	0	; () banked
  1461  001232  6F81               	movwf	gostergeDegerleriGuncelle@b& (0+255),b
  1462  001234  6B82               	clrf	(gostergeDegerleriGuncelle@b+1)& (0+255),b
  1463                           
  1464                           ; BSR set to: 0
  1465                           ;ornek4.c: 123:         gosterge[3] = 0;
  1466  001236  0E00               	movlw	0
  1467  001238  6E0C               	movwf	(_gosterge+3)^0,c
  1468                           
  1469                           ;ornek4.c: 124:         while(b > 999){
  1470  00123A  D005               	goto	l2430
  1471  00123C                     l2426:
  1472                           
  1473                           ; BSR set to: 0
  1474                           ;ornek4.c: 125:             b -= 1000;
  1475  00123C  0EE8               	movlw	232
  1476  00123E  5F81               	subwf	gostergeDegerleriGuncelle@b& (0+255),f,b
  1477  001240  0E03               	movlw	3
  1478  001242  5B82               	subwfb	(gostergeDegerleriGuncelle@b+1)& (0+255),f,b
  1479                           
  1480                           ; BSR set to: 0
  1481                           ;ornek4.c: 126:             gosterge[3]++;
  1482  001244  2A0C               	incf	(_gosterge+3)^0,f,c
  1483  001246                     l2430:
  1484                           
  1485                           ; BSR set to: 0
  1486                           ;ornek4.c: 124:         while(b > 999){
  1487  001246  0EE8               	movlw	232
  1488  001248  5D81               	subwf	gostergeDegerleriGuncelle@b& (0+255),w,b
  1489  00124A  0E03               	movlw	3
  1490  00124C  5982               	subwfb	(gostergeDegerleriGuncelle@b+1)& (0+255),w,b
  1491  00124E  B0D8               	btfsc	status,0,c
  1492  001250  D7F5               	goto	l2426
  1493                           
  1494                           ; BSR set to: 0
  1495                           ;ornek4.c: 128:         gosterge[2] = 0;
  1496  001252  0E00               	movlw	0
  1497  001254  6E0B               	movwf	(_gosterge+2)^0,c
  1498                           
  1499                           ;ornek4.c: 129:         while(b > 99){
  1500  001256  D005               	goto	l2438
  1501  001258                     l2434:
  1502                           
  1503                           ; BSR set to: 0
  1504                           ;ornek4.c: 130:             b -= 100;
  1505  001258  0E64               	movlw	100
  1506  00125A  5F81               	subwf	gostergeDegerleriGuncelle@b& (0+255),f,b
  1507  00125C  0E00               	movlw	0
  1508  00125E  5B82               	subwfb	(gostergeDegerleriGuncelle@b+1)& (0+255),f,b
  1509                           
  1510                           ; BSR set to: 0
  1511                           ;ornek4.c: 131:             gosterge[2]++;
  1512  001260  2A0B               	incf	(_gosterge+2)^0,f,c
  1513  001262                     l2438:
  1514                           
  1515                           ; BSR set to: 0
  1516                           ;ornek4.c: 129:         while(b > 99){
  1517  001262  5182               	movf	(gostergeDegerleriGuncelle@b+1)& (0+255),w,b
  1518  001264  E1F9               	bnz	l2434
  1519  001266  0E64               	movlw	100
  1520  001268  5D81               	subwf	gostergeDegerleriGuncelle@b& (0+255),w,b
  1521  00126A  B0D8               	btfsc	status,0,c
  1522  00126C  D7F5               	goto	l2434
  1523                           
  1524                           ; BSR set to: 0
  1525                           ;ornek4.c: 133:         gosterge[1] = 0;
  1526  00126E  0E00               	movlw	0
  1527  001270  6E0A               	movwf	(_gosterge+1)^0,c
  1528                           
  1529                           ;ornek4.c: 134:         while(b > 9){
  1530  001272  D005               	goto	l2446
  1531  001274                     l2442:
  1532                           
  1533                           ; BSR set to: 0
  1534                           ;ornek4.c: 135:             b -= 10;
  1535  001274  0E0A               	movlw	10
  1536  001276  5F81               	subwf	gostergeDegerleriGuncelle@b& (0+255),f,b
  1537  001278  0E00               	movlw	0
  1538  00127A  5B82               	subwfb	(gostergeDegerleriGuncelle@b+1)& (0+255),f,b
  1539                           
  1540                           ; BSR set to: 0
  1541                           ;ornek4.c: 136:             gosterge[1]++;
  1542  00127C  2A0A               	incf	(_gosterge+1)^0,f,c
  1543  00127E                     l2446:
  1544                           
  1545                           ; BSR set to: 0
  1546                           ;ornek4.c: 134:         while(b > 9){
  1547  00127E  5182               	movf	(gostergeDegerleriGuncelle@b+1)& (0+255),w,b
  1548  001280  E1F9               	bnz	l2442
  1549  001282  0E0A               	movlw	10
  1550  001284  5D81               	subwf	gostergeDegerleriGuncelle@b& (0+255),w,b
  1551  001286  B0D8               	btfsc	status,0,c
  1552  001288  D7F5               	goto	l2442
  1553                           
  1554                           ; BSR set to: 0
  1555                           ;ornek4.c: 138:         gosterge[0] = (char)(b & 0xFF);
  1556  00128A  C081  F009         	movff	gostergeDegerleriGuncelle@b,_gosterge
  1557                           
  1558                           ; BSR set to: 0
  1559                           ;ornek4.c: 140:         ( (sure_t*) &s2 )->kacTik = (500 / (1000u / 1000u)); ( (sure_t*)
      +                           &s2 )->baslangic = tikSayiminiAl(); ( (gorev_t*) tutucu )->sn = 140; case 140:; if(!(( 
      +                          (tikSayiminiAl() - ( (sure_t*) &s2 )->baslangic) >= ( (sure_t*) &s2 )->kacTik ))){ retur
      +                          n 0; };
  1560  00128E  0E01               	movlw	1
  1561  001290  6E08               	movwf	(gostergeDegerleriGuncelle@s2+3)^0,c
  1562  001292  0EF4               	movlw	244
  1563  001294  6E07               	movwf	(gostergeDegerleriGuncelle@s2+2)^0,c
  1564                           
  1565                           ; BSR set to: 0
  1566  001296  EC47  F00C         	call	_tikSayiminiAl	;wreg free
  1567  00129A  C042  F005         	movff	?_tikSayiminiAl,gostergeDegerleriGuncelle@s2
  1568  00129E  C043  F006         	movff	?_tikSayiminiAl+1,gostergeDegerleriGuncelle@s2+1
  1569  0012A2  C04A  FFD9         	movff	gostergeDegerleriGuncelle@tutucu,fsr2l
  1570  0012A6  C04B  FFDA         	movff	gostergeDegerleriGuncelle@tutucu+1,fsr2h
  1571  0012AA  0E8C               	movlw	140
  1572  0012AC  6EDE               	movwf	postinc2,c
  1573  0012AE  0E00               	movlw	0
  1574  0012B0  6EDD               	movwf	postdec2,c
  1575  0012B2                     l2454:
  1576  0012B2  EC47  F00C         	call	_tikSayiminiAl	;wreg free
  1577  0012B6  5005               	movf	gostergeDegerleriGuncelle@s2^0,w,c
  1578  0012B8  5E42               	subwf	?_tikSayiminiAl^0,f,c
  1579  0012BA  5006               	movf	(gostergeDegerleriGuncelle@s2+1)^0,w,c
  1580  0012BC  5A43               	subwfb	(?_tikSayiminiAl+1)^0,f,c
  1581  0012BE  5007               	movf	(gostergeDegerleriGuncelle@s2+2)^0,w,c
  1582  0012C0  5C42               	subwf	?_tikSayiminiAl^0,w,c
  1583  0012C2  5008               	movf	(gostergeDegerleriGuncelle@s2+3)^0,w,c
  1584  0012C4  5843               	subwfb	(?_tikSayiminiAl+1)^0,w,c
  1585  0012C6  A0D8               	btfss	status,0,c
  1586  0012C8  D7AB               	goto	u1220
  1587  0012CA  D79B               	goto	l2414
  1588  0012CC                     l2464:
  1589                           
  1590                           ; BSR set to: 0
  1591  0012CC  0E02               	movlw	2
  1592  0012CE  0012               	return	
  1593  0012D0                     l2470:
  1594                           
  1595                           ; BSR set to: 0
  1596  0012D0  C04A  FFD9         	movff	gostergeDegerleriGuncelle@tutucu,fsr2l
  1597  0012D4  C04B  FFDA         	movff	gostergeDegerleriGuncelle@tutucu+1,fsr2h
  1598  0012D8  CFDE F04C          	movff	postinc2,??_gostergeDegerleriGuncelle
  1599  0012DC  CFDD F04D          	movff	postdec2,??_gostergeDegerleriGuncelle+1
  1600                           
  1601                           ; Switch on 2 bytes has been partitioned into a top level switch of size 1, and 1 sub-sw
      +                          itches
  1602                           ; Switch size 1, requested type "simple"
  1603                           ; Number of cases is 1, Range of values is 0 to 0
  1604                           ; switch strategies available:
  1605                           ; Name         Instructions Cycles
  1606                           ; simple_byte            4     3 (average)
  1607                           ;	Chosen strategy is simple_byte
  1608  0012E0  504D               	movf	(??_gostergeDegerleriGuncelle+1)^0,w,c
  1609  0012E2  0A00               	xorlw	0	; case 0
  1610  0012E4  A4D8               	btfss	status,2,c
  1611  0012E6  D00D               	goto	l2472
  1612                           
  1613                           ; BSR set to: 0
  1614                           ; Switch size 1, requested type "simple"
  1615                           ; Number of cases is 4, Range of values is 0 to 142
  1616                           ; switch strategies available:
  1617                           ; Name         Instructions Cycles
  1618                           ; simple_byte           13     7 (average)
  1619                           ;	Chosen strategy is simple_byte
  1620  0012E8  504C               	movf	??_gostergeDegerleriGuncelle^0,w,c
  1621  0012EA  0A00               	xorlw	0	; case 0
  1622  0012EC  B4D8               	btfsc	status,2,c
  1623  0012EE  D789               	goto	l2414
  1624  0012F0  0A77               	xorlw	119	; case 119
  1625  0012F2  B4D8               	btfsc	status,2,c
  1626  0012F4  D78E               	goto	l2416
  1627  0012F6  0AFB               	xorlw	251	; case 140
  1628  0012F8  B4D8               	btfsc	status,2,c
  1629  0012FA  D7DB               	goto	l2454
  1630  0012FC  0A02               	xorlw	2	; case 142
  1631  0012FE  B4D8               	btfsc	status,2,c
  1632  001300  D7E5               	goto	l2464
  1633  001302                     l2472:
  1634                           
  1635                           ; BSR set to: 0
  1636  001302  0E01               	movlw	1
  1637  001304  0012               	return		;funcret
  1638  001306                     __end_of_gostergeDegerleriGuncelle:
  1639                           	callstack 0
  1640                           
  1641 ;; *************** function _uretici1 *****************
  1642 ;; Defined at:
  1643 ;;		line 54 in file "ornek4.c"
  1644 ;; Parameters:    Size  Location     Type
  1645 ;;  tutucu          2   22[COMRAM] PTR void 
  1646 ;;		 -> gorevHeap(24), NULL(0), 
  1647 ;; Auto vars:     Size  Location     Type
  1648 ;;  VAZGECIS_BAY    1   26[COMRAM] unsigned char 
  1649 ;; Return value:  Size  Location     Type
  1650 ;;                  1    wreg      unsigned char 
  1651 ;; Registers used:
  1652 ;;		wreg, fsr1l, fsr1h, fsr2l, fsr2h, status,2, status,0, cstack
  1653 ;; Tracked objects:
  1654 ;;		On entry : 3F/0
  1655 ;;		On exit  : 0/0
  1656 ;;		Unchanged: 0/0
  1657 ;; Data sizes:     COMRAM   BANK0   BANK1   BANK2   BANK3   BANK4   BANK5   BANK6   BANK7   BANK8   BANK9  BANK10  BANK1
      +1  BANK12  BANK13  BANK14  BANK15
  1658 ;;      Params:         2       0       0       0       0       0       0       0       0       0       0       0       
      +0       0       0       0       0
  1659 ;;      Locals:         1       0       0       0       0       0       0       0       0       0       0       0       
      +0       0       0       0       0
  1660 ;;      Temps:          2       0       0       0       0       0       0       0       0       0       0       0       
      +0       0       0       0       0
  1661 ;;      Totals:         5       0       0       0       0       0       0       0       0       0       0       0       
      +0       0       0       0       0
  1662 ;;Total ram usage:        5 bytes
  1663 ;; Hardware stack levels used:    1
  1664 ;; Hardware stack levels required when called:    5
  1665 ;; This function calls:
  1666 ;;		_uckuyrukDolu
  1667 ;;		_uckuyrukKuyrukla
  1668 ;; This function is called by:
  1669 ;;		_main
  1670 ;;		_gorevciyiBaslat
  1671 ;; This function uses a non-reentrant model
  1672 ;;
  1673                           
  1674                           	psect	text10
  1675  001306                     __ptext10:
  1676                           	callstack 0
  1677  001306                     _uretici1:
  1678                           	callstack 23
  1679                           
  1680                           ; BSR set to: 0
  1681                           ;ornek4.c: 56:  char VAZGECIS_BAYRAGI = 1; switch(( (gorev_t*) tutucu )->sn) { case 0:;
  1682                           
  1683                           ;incstack = 0
  1684  001306  0E01               	movlw	1
  1685  001308  6E4E               	movwf	uretici1@VAZGECIS_BAYRAGI^0,c
  1686  00130A  D047               	goto	l2338
  1687  00130C                     l2286:
  1688  00130C  C04A  FFD9         	movff	uretici1@tutucu,fsr2l
  1689  001310  C04B  FFDA         	movff	uretici1@tutucu+1,fsr2h
  1690  001314  0E3E               	movlw	62
  1691  001316  6EDE               	movwf	postinc2,c
  1692  001318  0E00               	movlw	0
  1693  00131A  6EDD               	movwf	postdec2,c
  1694  00131C                     l2288:
  1695  00131C  5018               	movf	_kuyruk1Erisim^0,w,c
  1696  00131E  A4D8               	btfss	status,2,c
  1697  001320  D002               	goto	l2294
  1698  001322                     u1120:
  1699  001322  0E00               	movlw	0
  1700  001324  0012               	return	
  1701  001326                     l2294:
  1702  001326  0618               	decf	_kuyruk1Erisim^0,f,c
  1703                           
  1704                           ;ornek4.c: 64:         ( (gorev_t*) (tutucu) )->sn = 64; case 64:; if(!(!(uckuyrukDolu(&
      +                          kuyruk1)))){ return 0; };
  1705  001328  C04A  FFD9         	movff	uretici1@tutucu,fsr2l
  1706  00132C  C04B  FFDA         	movff	uretici1@tutucu+1,fsr2h
  1707  001330  0E40               	movlw	64
  1708  001332  6EDE               	movwf	postinc2,c
  1709  001334  0E00               	movlw	0
  1710  001336  6EDD               	movwf	postdec2,c
  1711  001338                     l2298:
  1712  001338  0E2A               	movlw	low _kuyruk1
  1713  00133A  6E42               	movwf	uckuyrukDolu@kuyruk^0,c
  1714  00133C  EC28  F00C         	call	_uckuyrukDolu	;wreg free
  1715  001340  0900               	iorlw	0
  1716  001342  A4D8               	btfss	status,2,c
  1717  001344  D7EE               	goto	u1120
  1718                           
  1719                           ;ornek4.c: 66:         ( (gorev_t*) (tutucu) )->sn = 66; case 66:; if(!(!(uckuyrukKuyruk
      +                          la(&kuyruk1, cift) == 0))){ return 0; };
  1720  001346  C04A  FFD9         	movff	uretici1@tutucu,fsr2l
  1721  00134A  C04B  FFDA         	movff	uretici1@tutucu+1,fsr2h
  1722  00134E  0E42               	movlw	66
  1723  001350  6EDE               	movwf	postinc2,c
  1724  001352  0E00               	movlw	0
  1725  001354  6EDD               	movwf	postdec2,c
  1726  001356                     l2306:
  1727  001356  0E2A               	movlw	low _kuyruk1
  1728  001358  6E45               	movwf	uckuyrukKuyrukla@kuyruk^0,c
  1729  00135A  C017  F046         	movff	uretici1@cift,uckuyrukKuyrukla@veri
  1730  00135E  EC01  F00B         	call	_uckuyrukKuyrukla	;wreg free
  1731  001362  0900               	iorlw	0
  1732  001364  B4D8               	btfsc	status,2,c
  1733  001366  D7DD               	goto	u1120
  1734                           
  1735                           ;ornek4.c: 69:         ++(&kuyruk1Erisim)->sayim;;
  1736  001368  2A18               	incf	_kuyruk1Erisim^0,f,c
  1737                           
  1738                           ;ornek4.c: 71:         cift += 2;
  1739  00136A  0E02               	movlw	2
  1740  00136C  2617               	addwf	uretici1@cift^0,f,c
  1741                           
  1742                           ;ornek4.c: 72:         if(cift >= 254) cift = 0;
  1743  00136E  0EFD               	movlw	253
  1744  001370  6417               	cpfsgt	uretici1@cift^0,c
  1745  001372  D002               	goto	l270
  1746  001374  0E00               	movlw	0
  1747  001376  6E17               	movwf	uretici1@cift^0,c
  1748  001378                     l270:
  1749                           
  1750                           ;ornek4.c: 75:         VAZGECIS_BAYRAGI = 0; ( (gorev_t*) tutucu )->sn = 75; case 75:; i
      +                          f(VAZGECIS_BAYRAGI == 0){ return 3; };
  1751  001378  0E00               	movlw	0
  1752  00137A  6E4E               	movwf	uretici1@VAZGECIS_BAYRAGI^0,c
  1753  00137C  C04A  FFD9         	movff	uretici1@tutucu,fsr2l
  1754  001380  C04B  FFDA         	movff	uretici1@tutucu+1,fsr2h
  1755  001384  0E4B               	movlw	75
  1756  001386  6EDE               	movwf	postinc2,c
  1757  001388  0E00               	movlw	0
  1758  00138A  6EDD               	movwf	postdec2,c
  1759  00138C                     l2322:
  1760  00138C  504E               	movf	uretici1@VAZGECIS_BAYRAGI^0,w,c
  1761  00138E  A4D8               	btfss	status,2,c
  1762  001390  D7BD               	goto	l2286
  1763  001392  0E03               	movlw	3
  1764  001394  0012               	return	
  1765  001396                     l2332:
  1766                           
  1767                           ; BSR set to: 0
  1768  001396  0E02               	movlw	2
  1769  001398  0012               	return	
  1770  00139A                     l2338:
  1771                           
  1772                           ; BSR set to: 0
  1773  00139A  C04A  FFD9         	movff	uretici1@tutucu,fsr2l
  1774  00139E  C04B  FFDA         	movff	uretici1@tutucu+1,fsr2h
  1775  0013A2  CFDE F04C          	movff	postinc2,??_uretici1
  1776  0013A6  CFDD F04D          	movff	postdec2,??_uretici1+1
  1777                           
  1778                           ; Switch on 2 bytes has been partitioned into a top level switch of size 1, and 1 sub-sw
      +                          itches
  1779                           ; Switch size 1, requested type "simple"
  1780                           ; Number of cases is 1, Range of values is 0 to 0
  1781                           ; switch strategies available:
  1782                           ; Name         Instructions Cycles
  1783                           ; simple_byte            4     3 (average)
  1784                           ;	Chosen strategy is simple_byte
  1785  0013AA  504D               	movf	(??_uretici1+1)^0,w,c
  1786  0013AC  0A00               	xorlw	0	; case 0
  1787  0013AE  A4D8               	btfss	status,2,c
  1788  0013B0  D013               	goto	l2340
  1789                           
  1790                           ; BSR set to: 0
  1791                           ; Switch size 1, requested type "simple"
  1792                           ; Number of cases is 6, Range of values is 0 to 78
  1793                           ; switch strategies available:
  1794                           ; Name         Instructions Cycles
  1795                           ; simple_byte           19    10 (average)
  1796                           ;	Chosen strategy is simple_byte
  1797  0013B2  504C               	movf	??_uretici1^0,w,c
  1798  0013B4  0A00               	xorlw	0	; case 0
  1799  0013B6  B4D8               	btfsc	status,2,c
  1800  0013B8  D7A9               	goto	l2286
  1801  0013BA  0A3E               	xorlw	62	; case 62
  1802  0013BC  B4D8               	btfsc	status,2,c
  1803  0013BE  D7AE               	goto	l2288
  1804  0013C0  0A7E               	xorlw	126	; case 64
  1805  0013C2  B4D8               	btfsc	status,2,c
  1806  0013C4  D7B9               	goto	l2298
  1807  0013C6  0A02               	xorlw	2	; case 66
  1808  0013C8  B4D8               	btfsc	status,2,c
  1809  0013CA  D7C5               	goto	l2306
  1810  0013CC  0A09               	xorlw	9	; case 75
  1811  0013CE  B4D8               	btfsc	status,2,c
  1812  0013D0  D7DD               	goto	l2322
  1813  0013D2  0A05               	xorlw	5	; case 78
  1814  0013D4  B4D8               	btfsc	status,2,c
  1815  0013D6  D7DF               	goto	l2332
  1816  0013D8                     l2340:
  1817                           
  1818                           ; BSR set to: 0
  1819  0013D8  0E01               	movlw	1
  1820  0013DA  0012               	return		;funcret
  1821  0013DC                     __end_of_uretici1:
  1822                           	callstack 0
  1823                           
  1824 ;; *************** function _uretici2 *****************
  1825 ;; Defined at:
  1826 ;;		line 86 in file "ornek4.c"
  1827 ;; Parameters:    Size  Location     Type
  1828 ;;  tutucu          2   22[COMRAM] PTR void 
  1829 ;;		 -> gorevHeap(24), NULL(0), 
  1830 ;; Auto vars:     Size  Location     Type
  1831 ;;  VAZGECIS_BAY    1   26[COMRAM] unsigned char 
  1832 ;; Return value:  Size  Location     Type
  1833 ;;                  1    wreg      unsigned char 
  1834 ;; Registers used:
  1835 ;;		wreg, fsr1l, fsr1h, fsr2l, fsr2h, status,2, status,0, cstack
  1836 ;; Tracked objects:
  1837 ;;		On entry : 3F/0
  1838 ;;		On exit  : 0/0
  1839 ;;		Unchanged: 0/0
  1840 ;; Data sizes:     COMRAM   BANK0   BANK1   BANK2   BANK3   BANK4   BANK5   BANK6   BANK7   BANK8   BANK9  BANK10  BANK1
      +1  BANK12  BANK13  BANK14  BANK15
  1841 ;;      Params:         2       0       0       0       0       0       0       0       0       0       0       0       
      +0       0       0       0       0
  1842 ;;      Locals:         1       0       0       0       0       0       0       0       0       0       0       0       
      +0       0       0       0       0
  1843 ;;      Temps:          2       0       0       0       0       0       0       0       0       0       0       0       
      +0       0       0       0       0
  1844 ;;      Totals:         5       0       0       0       0       0       0       0       0       0       0       0       
      +0       0       0       0       0
  1845 ;;Total ram usage:        5 bytes
  1846 ;; Hardware stack levels used:    1
  1847 ;; Hardware stack levels required when called:    5
  1848 ;; This function calls:
  1849 ;;		_uckuyrukBos
  1850 ;;		_uckuyrukKuyrukla
  1851 ;; This function is called by:
  1852 ;;		_main
  1853 ;;		_gorevciyiBaslat
  1854 ;; This function uses a non-reentrant model
  1855 ;;
  1856                           
  1857                           	psect	text11
  1858  0013DC                     __ptext11:
  1859                           	callstack 0
  1860  0013DC                     _uretici2:
  1861                           	callstack 23
  1862                           
  1863                           ; BSR set to: 0
  1864                           ;ornek4.c: 88:  char VAZGECIS_BAYRAGI = 1; switch(( (gorev_t*) tutucu )->sn) { case 0:;
  1865                           
  1866                           ;incstack = 0
  1867  0013DC  0E01               	movlw	1
  1868  0013DE  6E4E               	movwf	uretici2@VAZGECIS_BAYRAGI^0,c
  1869  0013E0  D047               	goto	l2402
  1870  0013E2                     l2350:
  1871  0013E2  C04A  FFD9         	movff	uretici2@tutucu,fsr2l
  1872  0013E6  C04B  FFDA         	movff	uretici2@tutucu+1,fsr2h
  1873  0013EA  0E5E               	movlw	94
  1874  0013EC  6EDE               	movwf	postinc2,c
  1875  0013EE  0E00               	movlw	0
  1876  0013F0  6EDD               	movwf	postdec2,c
  1877  0013F2                     l2352:
  1878  0013F2  5018               	movf	_kuyruk1Erisim^0,w,c
  1879  0013F4  A4D8               	btfss	status,2,c
  1880  0013F6  D002               	goto	l2358
  1881  0013F8                     u1170:
  1882  0013F8  0E00               	movlw	0
  1883  0013FA  0012               	return	
  1884  0013FC                     l2358:
  1885  0013FC  0618               	decf	_kuyruk1Erisim^0,f,c
  1886                           
  1887                           ;ornek4.c: 96:         ( (gorev_t*) (tutucu) )->sn = 96; case 96:; if(!(!(uckuyrukBos(&k
      +                          uyruk1)))){ return 0; };
  1888  0013FE  C04A  FFD9         	movff	uretici2@tutucu,fsr2l
  1889  001402  C04B  FFDA         	movff	uretici2@tutucu+1,fsr2h
  1890  001406  0E60               	movlw	96
  1891  001408  6EDE               	movwf	postinc2,c
  1892  00140A  0E00               	movlw	0
  1893  00140C  6EDD               	movwf	postdec2,c
  1894  00140E                     l2362:
  1895  00140E  0E2A               	movlw	low _kuyruk1
  1896  001410  6E42               	movwf	uckuyrukBos@kuyruk^0,c
  1897  001412  EC61  F00C         	call	_uckuyrukBos	;wreg free
  1898  001416  0900               	iorlw	0
  1899  001418  A4D8               	btfss	status,2,c
  1900  00141A  D7EE               	goto	u1170
  1901                           
  1902                           ;ornek4.c: 98:         ( (gorev_t*) (tutucu) )->sn = 98; case 98:; if(!(!(uckuyrukKuyruk
      +                          la(&kuyruk1, tek) == 0))){ return 0; };
  1903  00141C  C04A  FFD9         	movff	uretici2@tutucu,fsr2l
  1904  001420  C04B  FFDA         	movff	uretici2@tutucu+1,fsr2h
  1905  001424  0E62               	movlw	98
  1906  001426  6EDE               	movwf	postinc2,c
  1907  001428  0E00               	movlw	0
  1908  00142A  6EDD               	movwf	postdec2,c
  1909  00142C                     l2370:
  1910  00142C  0E2A               	movlw	low _kuyruk1
  1911  00142E  6E45               	movwf	uckuyrukKuyrukla@kuyruk^0,c
  1912  001430  C04F  F046         	movff	uretici2@tek,uckuyrukKuyrukla@veri
  1913  001434  EC01  F00B         	call	_uckuyrukKuyrukla	;wreg free
  1914  001438  0900               	iorlw	0
  1915  00143A  B4D8               	btfsc	status,2,c
  1916  00143C  D7DD               	goto	u1170
  1917                           
  1918                           ;ornek4.c: 101:         ++(&kuyruk1Erisim)->sayim;;
  1919  00143E  2A18               	incf	_kuyruk1Erisim^0,f,c
  1920                           
  1921                           ;ornek4.c: 103:         tek += 2;
  1922  001440  0E02               	movlw	2
  1923  001442  264F               	addwf	uretici2@tek^0,f,c
  1924                           
  1925                           ;ornek4.c: 104:         if(tek >= 255) tek = 1;
  1926  001444  284F               	incf	uretici2@tek^0,w,c
  1927  001446  A4D8               	btfss	status,2,c
  1928  001448  D002               	goto	l292
  1929  00144A  0E01               	movlw	1
  1930  00144C  6E4F               	movwf	uretici2@tek^0,c
  1931  00144E                     l292:
  1932                           
  1933                           ;ornek4.c: 107:         VAZGECIS_BAYRAGI = 0; ( (gorev_t*) tutucu )->sn = 107; case 107:
      +                          ; if(VAZGECIS_BAYRAGI == 0){ return 3; };
  1934  00144E  0E00               	movlw	0
  1935  001450  6E4E               	movwf	uretici2@VAZGECIS_BAYRAGI^0,c
  1936  001452  C04A  FFD9         	movff	uretici2@tutucu,fsr2l
  1937  001456  C04B  FFDA         	movff	uretici2@tutucu+1,fsr2h
  1938  00145A  0E6B               	movlw	107
  1939  00145C  6EDE               	movwf	postinc2,c
  1940  00145E  0E00               	movlw	0
  1941  001460  6EDD               	movwf	postdec2,c
  1942  001462                     l2386:
  1943  001462  504E               	movf	uretici2@VAZGECIS_BAYRAGI^0,w,c
  1944  001464  A4D8               	btfss	status,2,c
  1945  001466  D7BD               	goto	l2350
  1946  001468  0E03               	movlw	3
  1947  00146A  0012               	return	
  1948  00146C                     l2396:
  1949                           
  1950                           ; BSR set to: 0
  1951  00146C  0E02               	movlw	2
  1952  00146E  0012               	return	
  1953  001470                     l2402:
  1954                           
  1955                           ; BSR set to: 0
  1956  001470  C04A  FFD9         	movff	uretici2@tutucu,fsr2l
  1957  001474  C04B  FFDA         	movff	uretici2@tutucu+1,fsr2h
  1958  001478  CFDE F04C          	movff	postinc2,??_uretici2
  1959  00147C  CFDD F04D          	movff	postdec2,??_uretici2+1
  1960                           
  1961                           ; Switch on 2 bytes has been partitioned into a top level switch of size 1, and 1 sub-sw
      +                          itches
  1962                           ; Switch size 1, requested type "simple"
  1963                           ; Number of cases is 1, Range of values is 0 to 0
  1964                           ; switch strategies available:
  1965                           ; Name         Instructions Cycles
  1966                           ; simple_byte            4     3 (average)
  1967                           ;	Chosen strategy is simple_byte
  1968  001480  504D               	movf	(??_uretici2+1)^0,w,c
  1969  001482  0A00               	xorlw	0	; case 0
  1970  001484  A4D8               	btfss	status,2,c
  1971  001486  D013               	goto	l2404
  1972                           
  1973                           ; BSR set to: 0
  1974                           ; Switch size 1, requested type "simple"
  1975                           ; Number of cases is 6, Range of values is 0 to 110
  1976                           ; switch strategies available:
  1977                           ; Name         Instructions Cycles
  1978                           ; simple_byte           19    10 (average)
  1979                           ;	Chosen strategy is simple_byte
  1980  001488  504C               	movf	??_uretici2^0,w,c
  1981  00148A  0A00               	xorlw	0	; case 0
  1982  00148C  B4D8               	btfsc	status,2,c
  1983  00148E  D7A9               	goto	l2350
  1984  001490  0A5E               	xorlw	94	; case 94
  1985  001492  B4D8               	btfsc	status,2,c
  1986  001494  D7AE               	goto	l2352
  1987  001496  0A3E               	xorlw	62	; case 96
  1988  001498  B4D8               	btfsc	status,2,c
  1989  00149A  D7B9               	goto	l2362
  1990  00149C  0A02               	xorlw	2	; case 98
  1991  00149E  B4D8               	btfsc	status,2,c
  1992  0014A0  D7C5               	goto	l2370
  1993  0014A2  0A09               	xorlw	9	; case 107
  1994  0014A4  B4D8               	btfsc	status,2,c
  1995  0014A6  D7DD               	goto	l2386
  1996  0014A8  0A05               	xorlw	5	; case 110
  1997  0014AA  B4D8               	btfsc	status,2,c
  1998  0014AC  D7DF               	goto	l2396
  1999  0014AE                     l2404:
  2000                           
  2001                           ; BSR set to: 0
  2002  0014AE  0E01               	movlw	1
  2003  0014B0  0012               	return		;funcret
  2004  0014B2                     __end_of_uretici2:
  2005                           	callstack 0
  2006                           
  2007 ;; *************** function _uckuyrukKuyrukla *****************
  2008 ;; Defined at:
  2009 ;;		line 39 in file "../../../../../kaynak/uckuyruk.c"
  2010 ;; Parameters:    Size  Location     Type
  2011 ;;  kuyruk          1   17[COMRAM] PTR struct .
  2012 ;;		 -> kuyruk1(4), 
  2013 ;;  veri            1   18[COMRAM] const unsigned char 
  2014 ;; Auto vars:     Size  Location     Type
  2015 ;;  konum           1   21[COMRAM] unsigned char 
  2016 ;;  kap             1   20[COMRAM] const unsigned char 
  2017 ;;  sayim           1   19[COMRAM] unsigned char 
  2018 ;; Return value:  Size  Location     Type
  2019 ;;                  1    wreg      unsigned char 
  2020 ;; Registers used:
  2021 ;;		wreg, fsr1l, fsr1h, fsr2l, fsr2h, status,2, status,0, cstack
  2022 ;; Tracked objects:
  2023 ;;		On entry : 0/0
  2024 ;;		On exit  : 0/0
  2025 ;;		Unchanged: 0/0
  2026 ;; Data sizes:     COMRAM   BANK0   BANK1   BANK2   BANK3   BANK4   BANK5   BANK6   BANK7   BANK8   BANK9  BANK10  BANK1
      +1  BANK12  BANK13  BANK14  BANK15
  2027 ;;      Params:         2       0       0       0       0       0       0       0       0       0       0       0       
      +0       0       0       0       0
  2028 ;;      Locals:         3       0       0       0       0       0       0       0       0       0       0       0       
      +0       0       0       0       0
  2029 ;;      Temps:          0       0       0       0       0       0       0       0       0       0       0       0       
      +0       0       0       0       0
  2030 ;;      Totals:         5       0       0       0       0       0       0       0       0       0       0       0       
      +0       0       0       0       0
  2031 ;;Total ram usage:        5 bytes
  2032 ;; Hardware stack levels used:    1
  2033 ;; Hardware stack levels required when called:    4
  2034 ;; This function calls:
  2035 ;;		_uckuyrukDolu
  2036 ;; This function is called by:
  2037 ;;		_uretici1
  2038 ;;		_uretici2
  2039 ;; This function uses a non-reentrant model
  2040 ;;
  2041                           
  2042                           	psect	text12
  2043  001602                     __ptext12:
  2044                           	callstack 0
  2045  001602                     _uckuyrukKuyrukla:
  2046                           	callstack 23
  2047                           
  2048                           ;../../../../../kaynak/uckuyruk.c: 41:     if(uckuyrukDolu(kuyruk)) return 0;
  2049                           
  2050                           ;incstack = 0
  2051  001602  C045  F042         	movff	uckuyrukKuyrukla@kuyruk,uckuyrukDolu@kuyruk
  2052  001606  EC28  F00C         	call	_uckuyrukDolu	;wreg free
  2053  00160A  0900               	iorlw	0
  2054  00160C  B4D8               	btfsc	status,2,c
  2055  00160E  D002               	goto	l2210
  2056  001610  0E00               	movlw	0
  2057  001612  0012               	return	
  2058  001614                     l2210:
  2059                           
  2060                           ;../../../../../kaynak/uckuyruk.c: 42:     unsigned char sayim = kuyruk->sayim;
  2061  001614  5045               	movf	uckuyrukKuyrukla@kuyruk^0,w,c
  2062  001616  6ED9               	movwf	fsr2l,c
  2063  001618  6ADA               	clrf	fsr2h,c
  2064  00161A  0E01               	movlw	1
  2065  00161C  26D9               	addwf	fsr2l,f,c
  2066  00161E  50DF               	movf	indf2,w,c
  2067  001620  6E47               	movwf	uckuyrukKuyrukla@sayim^0,c
  2068                           
  2069                           ;../../../../../kaynak/uckuyruk.c: 43:     const unsigned char kap = kuyruk->kapasite;
  2070  001622  5045               	movf	uckuyrukKuyrukla@kuyruk^0,w,c
  2071  001624  6ED9               	movwf	fsr2l,c
  2072  001626  6ADA               	clrf	fsr2h,c
  2073  001628  50DF               	movf	indf2,w,c
  2074  00162A  6E48               	movwf	uckuyrukKuyrukla@kap^0,c
  2075                           
  2076                           ;../../../../../kaynak/uckuyruk.c: 45:     unsigned char konum = kuyruk->bas + sayim;
  2077  00162C  5045               	movf	uckuyrukKuyrukla@kuyruk^0,w,c
  2078  00162E  6ED9               	movwf	fsr2l,c
  2079  001630  6ADA               	clrf	fsr2h,c
  2080  001632  0E02               	movlw	2
  2081  001634  26D9               	addwf	fsr2l,f,c
  2082  001636  50DF               	movf	indf2,w,c
  2083  001638  2447               	addwf	uckuyrukKuyrukla@sayim^0,w,c
  2084  00163A  6E49               	movwf	uckuyrukKuyrukla@konum^0,c
  2085                           
  2086                           ;../../../../../kaynak/uckuyruk.c: 46:     if(konum >= kap) konum -= kap;
  2087  00163C  5048               	movf	uckuyrukKuyrukla@kap^0,w,c
  2088  00163E  5C49               	subwf	uckuyrukKuyrukla@konum^0,w,c
  2089  001640  A0D8               	btfss	status,0,c
  2090  001642  D002               	goto	l2220
  2091  001644  5048               	movf	uckuyrukKuyrukla@kap^0,w,c
  2092  001646  5E49               	subwf	uckuyrukKuyrukla@konum^0,f,c
  2093  001648                     l2220:
  2094                           
  2095                           ;../../../../../kaynak/uckuyruk.c: 48:  *( (kuyruk->veri) + konum) = veri;
  2096  001648  5045               	movf	uckuyrukKuyrukla@kuyruk^0,w,c
  2097  00164A  6ED9               	movwf	fsr2l,c
  2098  00164C  6ADA               	clrf	fsr2h,c
  2099  00164E  0E03               	movlw	3
  2100  001650  26D9               	addwf	fsr2l,f,c
  2101  001652  50DF               	movf	indf2,w,c
  2102  001654  2449               	addwf	uckuyrukKuyrukla@konum^0,w,c
  2103  001656  6ED9               	movwf	fsr2l,c
  2104  001658  6ADA               	clrf	fsr2h,c
  2105  00165A  C046  FFDF         	movff	uckuyrukKuyrukla@veri,indf2
  2106                           
  2107                           ;../../../../../kaynak/uckuyruk.c: 50:     kuyruk->sayim = ++sayim;
  2108  00165E  2A47               	incf	uckuyrukKuyrukla@sayim^0,f,c
  2109  001660  5045               	movf	uckuyrukKuyrukla@kuyruk^0,w,c
  2110  001662  6ED9               	movwf	fsr2l,c
  2111  001664  6ADA               	clrf	fsr2h,c
  2112  001666  0E01               	movlw	1
  2113  001668  26D9               	addwf	fsr2l,f,c
  2114  00166A  C047  FFDF         	movff	uckuyrukKuyrukla@sayim,indf2
  2115                           
  2116                           ;../../../../../kaynak/uckuyruk.c: 51:  return konum;
  2117  00166E  5049               	movf	uckuyrukKuyrukla@konum^0,w,c
  2118  001670  0012               	return		;funcret
  2119  001672                     __end_of_uckuyrukKuyrukla:
  2120                           	callstack 0
  2121                           
  2122 ;; *************** function _uckuyrukDolu *****************
  2123 ;; Defined at:
  2124 ;;		line 127 in file "../../../../../kaynak/uckuyruk.c"
  2125 ;; Parameters:    Size  Location     Type
  2126 ;;  kuyruk          1   14[COMRAM] PTR struct .
  2127 ;;		 -> kuyruk1(4), 
  2128 ;; Auto vars:     Size  Location     Type
  2129 ;;		None
  2130 ;; Return value:  Size  Location     Type
  2131 ;;                  1    wreg      unsigned char 
  2132 ;; Registers used:
  2133 ;;		wreg, fsr1l, fsr1h, fsr2l, fsr2h, status,2, status,0
  2134 ;; Tracked objects:
  2135 ;;		On entry : 0/0
  2136 ;;		On exit  : 0/0
  2137 ;;		Unchanged: 0/0
  2138 ;; Data sizes:     COMRAM   BANK0   BANK1   BANK2   BANK3   BANK4   BANK5   BANK6   BANK7   BANK8   BANK9  BANK10  BANK1
      +1  BANK12  BANK13  BANK14  BANK15
  2139 ;;      Params:         1       0       0       0       0       0       0       0       0       0       0       0       
      +0       0       0       0       0
  2140 ;;      Locals:         0       0       0       0       0       0       0       0       0       0       0       0       
      +0       0       0       0       0
  2141 ;;      Temps:          2       0       0       0       0       0       0       0       0       0       0       0       
      +0       0       0       0       0
  2142 ;;      Totals:         3       0       0       0       0       0       0       0       0       0       0       0       
      +0       0       0       0       0
  2143 ;;Total ram usage:        3 bytes
  2144 ;; Hardware stack levels used:    1
  2145 ;; Hardware stack levels required when called:    3
  2146 ;; This function calls:
  2147 ;;		Nothing
  2148 ;; This function is called by:
  2149 ;;		_uckuyrukKuyrukla
  2150 ;;		_uretici1
  2151 ;; This function uses a non-reentrant model
  2152 ;;
  2153                           
  2154                           	psect	text13
  2155  001850                     __ptext13:
  2156                           	callstack 0
  2157  001850                     _uckuyrukDolu:
  2158                           	callstack 23
  2159                           
  2160                           ;../../../../../kaynak/uckuyruk.c: 128:  return kuyruk->sayim >= kuyruk->kapasite ? 1 : 
      +                          0;
  2161                           
  2162                           ;incstack = 0
  2163  001850  5042               	movf	uckuyrukDolu@kuyruk^0,w,c
  2164  001852  6ED9               	movwf	fsr2l,c
  2165  001854  6ADA               	clrf	fsr2h,c
  2166  001856  5042               	movf	uckuyrukDolu@kuyruk^0,w,c
  2167  001858  6EE1               	movwf	fsr1l,c
  2168  00185A  6AE2               	clrf	fsr1h,c
  2169  00185C  0E01               	movlw	1
  2170  00185E  26E1               	addwf	fsr1l,f,c
  2171  001860  50DE               	movf	postinc2,w,c
  2172  001862  5CE6               	subwf	postinc1,w,c
  2173  001864  A0D8               	btfss	status,0,c
  2174  001866  D002               	goto	u980
  2175  001868  0E01               	movlw	1
  2176  00186A  0012               	return	
  2177  00186C                     u980:
  2178  00186C  0E00               	movlw	0
  2179  00186E  0012               	return		;funcret
  2180  001870                     __end_of_uckuyrukDolu:
  2181                           	callstack 0
  2182                           
  2183 ;; *************** function _listedenSil *****************
  2184 ;; Defined at:
  2185 ;;		line 80 in file "../../../../../kaynak/gorev.c"
  2186 ;; Parameters:    Size  Location     Type
  2187 ;;  liste           1   14[COMRAM] PTR PTR struct .
  2188 ;;		 -> calisanListesi(12), 
  2189 ;;  sayim           1   15[COMRAM] PTR unsigned char 
  2190 ;;		 -> calisanSayimi(1), 
  2191 ;;  konum           1   16[COMRAM] const unsigned char 
  2192 ;; Auto vars:     Size  Location     Type
  2193 ;;  sonrakiOge      3    0        PTR struct .
  2194 ;;  k               1   24[COMRAM] unsigned char 
  2195 ;;  cSayim          1   23[COMRAM] const unsigned char 
  2196 ;; Return value:  Size  Location     Type
  2197 ;;                  1    wreg      void 
  2198 ;; Registers used:
  2199 ;;		wreg, fsr1l, fsr1h, fsr2l, fsr2h, status,2, status,0, prodl, prodh
  2200 ;; Tracked objects:
  2201 ;;		On entry : 3F/0
  2202 ;;		On exit  : 3F/0
  2203 ;;		Unchanged: 3F/0
  2204 ;; Data sizes:     COMRAM   BANK0   BANK1   BANK2   BANK3   BANK4   BANK5   BANK6   BANK7   BANK8   BANK9  BANK10  BANK1
      +1  BANK12  BANK13  BANK14  BANK15
  2205 ;;      Params:         3       0       0       0       0       0       0       0       0       0       0       0       
      +0       0       0       0       0
  2206 ;;      Locals:         2       0       0       0       0       0       0       0       0       0       0       0       
      +0       0       0       0       0
  2207 ;;      Temps:          6       0       0       0       0       0       0       0       0       0       0       0       
      +0       0       0       0       0
  2208 ;;      Totals:        11       0       0       0       0       0       0       0       0       0       0       0       
      +0       0       0       0       0
  2209 ;;Total ram usage:       11 bytes
  2210 ;; Hardware stack levels used:    1
  2211 ;; Hardware stack levels required when called:    3
  2212 ;; This function calls:
  2213 ;;		Nothing
  2214 ;; This function is called by:
  2215 ;;		_gorevciyiBaslat
  2216 ;; This function uses a non-reentrant model
  2217 ;;
  2218                           
  2219                           	psect	text14
  2220  0014B2                     __ptext14:
  2221                           	callstack 0
  2222  0014B2                     _listedenSil:
  2223                           	callstack 25
  2224                           
  2225                           ; BSR set to: 0
  2226                           ;../../../../../kaynak/gorev.c: 80: static void listedenSil(gorevListeOgesi_t liste[],;.
      +                          ./../../../../kaynak/gorev.c: 81:         char *sayim, const char konum) {;../../../../.
      +                          ./kaynak/gorev.c: 83:     const char cSayim = *sayim;
  2227                           
  2228                           ;incstack = 0
  2229  0014B2  5043               	movf	listedenSil@sayim^0,w,c
  2230  0014B4  6ED9               	movwf	fsr2l,c
  2231  0014B6  6ADA               	clrf	fsr2h,c
  2232  0014B8  50DF               	movf	indf2,w,c
  2233  0014BA  6E4B               	movwf	listedenSil@cSayim^0,c
  2234                           
  2235                           ; BSR set to: 0
  2236                           ;../../../../../kaynak/gorev.c: 86:     if(konum >= cSayim || konum == 0) return;
  2237  0014BC  504B               	movf	listedenSil@cSayim^0,w,c
  2238  0014BE  5C44               	subwf	listedenSil@konum^0,w,c
  2239  0014C0  B0D8               	btfsc	status,0,c
  2240  0014C2  0012               	return	
  2241                           
  2242                           ; BSR set to: 0
  2243  0014C4  5044               	movf	listedenSil@konum^0,w,c
  2244  0014C6  B4D8               	btfsc	status,2,c
  2245  0014C8  0012               	return	
  2246                           
  2247                           ; BSR set to: 0
  2248                           ;../../../../../kaynak/gorev.c: 88:     if(konum == (cSayim - 1)) {
  2249  0014CA  5044               	movf	listedenSil@konum^0,w,c
  2250  0014CC  6E45               	movwf	??_listedenSil^0,c
  2251  0014CE  6A46               	clrf	(??_listedenSil+1)^0,c
  2252  0014D0  0EFF               	movlw	255
  2253  0014D2  6E47               	movwf	(??_listedenSil+2)^0,c
  2254  0014D4  0EFF               	movlw	255
  2255  0014D6  6E48               	movwf	(??_listedenSil+3)^0,c
  2256  0014D8  504B               	movf	listedenSil@cSayim^0,w,c
  2257  0014DA  6E49               	movwf	(??_listedenSil+4)^0,c
  2258  0014DC  6A4A               	clrf	(??_listedenSil+5)^0,c
  2259  0014DE  5047               	movf	(??_listedenSil+2)^0,w,c
  2260  0014E0  2649               	addwf	(??_listedenSil+4)^0,f,c
  2261  0014E2  5048               	movf	(??_listedenSil+3)^0,w,c
  2262  0014E4  224A               	addwfc	(??_listedenSil+5)^0,f,c
  2263  0014E6  5045               	movf	??_listedenSil^0,w,c
  2264  0014E8  1849               	xorwf	(??_listedenSil+4)^0,w,c
  2265  0014EA  E113               	bnz	l129
  2266  0014EC  5046               	movf	(??_listedenSil+1)^0,w,c
  2267  0014EE  184A               	xorwf	(??_listedenSil+5)^0,w,c
  2268  0014F0  A4D8               	btfss	status,2,c
  2269  0014F2  D00F               	goto	l129
  2270                           
  2271                           ; BSR set to: 0
  2272                           ;../../../../../kaynak/gorev.c: 91:         liste[konum] = ((void*)0);
  2273  0014F4  5044               	movf	listedenSil@konum^0,w,c
  2274  0014F6  0D02               	mullw	2
  2275  0014F8  5042               	movf	listedenSil@liste^0,w,c
  2276  0014FA  24F3               	addwf	243,w,c
  2277  0014FC  6ED9               	movwf	fsr2l,c
  2278  0014FE  6ADA               	clrf	fsr2h,c
  2279  001500  0E00               	movlw	0
  2280  001502  6EDE               	movwf	postinc2,c
  2281  001504  0E00               	movlw	0
  2282  001506  6EDD               	movwf	postdec2,c
  2283  001508                     l2270:
  2284                           
  2285                           ; BSR set to: 0
  2286                           ;../../../../../kaynak/gorev.c: 92:         (*sayim)--;
  2287  001508  5043               	movf	listedenSil@sayim^0,w,c
  2288  00150A  6ED9               	movwf	fsr2l,c
  2289  00150C  6ADA               	clrf	fsr2h,c
  2290  00150E  06DF               	decf	indf2,f,c
  2291  001510  0012               	return	
  2292  001512                     l129:
  2293                           
  2294                           ; BSR set to: 0
  2295                           ;../../../../../kaynak/gorev.c: 96:     gorevListeOgesi_t sonrakiOge;;../../../../../kay
      +                          nak/gorev.c: 97:     char k = konum;
  2296  001512  C044  F04C         	movff	listedenSil@konum,listedenSil@k
  2297                           
  2298                           ; BSR set to: 0
  2299                           ;../../../../../kaynak/gorev.c: 98:     liste[konum] = ((void*)0);
  2300  001516  5044               	movf	listedenSil@konum^0,w,c
  2301  001518  0D02               	mullw	2
  2302  00151A  5042               	movf	listedenSil@liste^0,w,c
  2303  00151C  24F3               	addwf	243,w,c
  2304  00151E  6ED9               	movwf	fsr2l,c
  2305  001520  6ADA               	clrf	fsr2h,c
  2306  001522  0E00               	movlw	0
  2307  001524  6EDE               	movwf	postinc2,c
  2308  001526  0E00               	movlw	0
  2309  001528  6EDD               	movwf	postdec2,c
  2310                           
  2311                           ;../../../../../kaynak/gorev.c: 99:     while(k < cSayim) {
  2312  00152A  D013               	goto	l2280
  2313  00152C                     l2276:
  2314                           
  2315                           ; BSR set to: 0
  2316                           ;../../../../../kaynak/gorev.c: 101:         liste[k] = liste[k+1];
  2317  00152C  504C               	movf	listedenSil@k^0,w,c
  2318  00152E  0D02               	mullw	2
  2319  001530  5042               	movf	listedenSil@liste^0,w,c
  2320  001532  24F3               	addwf	243,w,c
  2321  001534  6ED9               	movwf	fsr2l,c
  2322  001536  6ADA               	clrf	fsr2h,c
  2323  001538  0E02               	movlw	2
  2324  00153A  26D9               	addwf	fsr2l,f,c
  2325  00153C  504C               	movf	listedenSil@k^0,w,c
  2326  00153E  0D02               	mullw	2
  2327  001540  5042               	movf	listedenSil@liste^0,w,c
  2328  001542  24F3               	addwf	243,w,c
  2329  001544  6EE1               	movwf	fsr1l,c
  2330  001546  6AE2               	clrf	fsr1h,c
  2331  001548  CFDE FFE6          	movff	postinc2,postinc1
  2332  00154C  CFDD FFE5          	movff	postdec2,postdec1
  2333                           
  2334                           ; BSR set to: 0
  2335                           ;../../../../../kaynak/gorev.c: 102:         k++;
  2336  001550  2A4C               	incf	listedenSil@k^0,f,c
  2337  001552                     l2280:
  2338                           
  2339                           ; BSR set to: 0
  2340                           ;../../../../../kaynak/gorev.c: 99:     while(k < cSayim) {
  2341  001552  504B               	movf	listedenSil@cSayim^0,w,c
  2342  001554  5C4C               	subwf	listedenSil@k^0,w,c
  2343  001556  B0D8               	btfsc	status,0,c
  2344  001558  D7D7               	goto	l2270
  2345  00155A  D7E8               	goto	l2276
  2346  00155C                     __end_of_listedenSil:
  2347                           	callstack 0
  2348                           
  2349 ;; *************** function _uckuyrukKuyruktanAl *****************
  2350 ;; Defined at:
  2351 ;;		line 85 in file "../../../../../kaynak/uckuyruk.c"
  2352 ;; Parameters:    Size  Location     Type
  2353 ;;  kuyruk          1   15[COMRAM] PTR struct .
  2354 ;;		 -> kuyruk1(4), 
  2355 ;; Auto vars:     Size  Location     Type
  2356 ;;  bas             1   18[COMRAM] unsigned char 
  2357 ;;  b               1   17[COMRAM] unsigned char 
  2358 ;; Return value:  Size  Location     Type
  2359 ;;                  1    wreg      unsigned char 
  2360 ;; Registers used:
  2361 ;;		wreg, fsr2l, fsr2h, status,2, status,0, cstack
  2362 ;; Tracked objects:
  2363 ;;		On entry : 0/0
  2364 ;;		On exit  : 0/0
  2365 ;;		Unchanged: 0/0
  2366 ;; Data sizes:     COMRAM   BANK0   BANK1   BANK2   BANK3   BANK4   BANK5   BANK6   BANK7   BANK8   BANK9  BANK10  BANK1
      +1  BANK12  BANK13  BANK14  BANK15
  2367 ;;      Params:         1       0       0       0       0       0       0       0       0       0       0       0       
      +0       0       0       0       0
  2368 ;;      Locals:         2       0       0       0       0       0       0       0       0       0       0       0       
      +0       0       0       0       0
  2369 ;;      Temps:          1       0       0       0       0       0       0       0       0       0       0       0       
      +0       0       0       0       0
  2370 ;;      Totals:         4       0       0       0       0       0       0       0       0       0       0       0       
      +0       0       0       0       0
  2371 ;;Total ram usage:        4 bytes
  2372 ;; Hardware stack levels used:    1
  2373 ;; Hardware stack levels required when called:    4
  2374 ;; This function calls:
  2375 ;;		_uckuyrukBos
  2376 ;; This function is called by:
  2377 ;;		_gostergeDegerleriGuncelle
  2378 ;; This function uses a non-reentrant model
  2379 ;;
  2380                           
  2381                           	psect	text15
  2382  001672                     __ptext15:
  2383                           	callstack 0
  2384  001672                     _uckuyrukKuyruktanAl:
  2385                           	callstack 23
  2386                           
  2387                           ;../../../../../kaynak/uckuyruk.c: 87:     if(uckuyrukBos(kuyruk)) return 0;
  2388                           
  2389                           ; BSR set to: 0
  2390                           ;incstack = 0
  2391  001672  C043  F042         	movff	uckuyrukKuyruktanAl@kuyruk,uckuyrukBos@kuyruk
  2392  001676  EC61  F00C         	call	_uckuyrukBos	;wreg free
  2393  00167A  0900               	iorlw	0
  2394  00167C  B4D8               	btfsc	status,2,c
  2395  00167E  D002               	goto	l2234
  2396  001680  0E00               	movlw	0
  2397  001682  0012               	return	
  2398  001684                     l2234:
  2399                           
  2400                           ;../../../../../kaynak/uckuyruk.c: 88:     unsigned char bas = kuyruk->bas;
  2401  001684  5043               	movf	uckuyrukKuyruktanAl@kuyruk^0,w,c
  2402  001686  6ED9               	movwf	fsr2l,c
  2403  001688  6ADA               	clrf	fsr2h,c
  2404  00168A  0E02               	movlw	2
  2405  00168C  26D9               	addwf	fsr2l,f,c
  2406  00168E  50DF               	movf	indf2,w,c
  2407  001690  6E46               	movwf	uckuyrukKuyruktanAl@bas^0,c
  2408                           
  2409                           ;../../../../../kaynak/uckuyruk.c: 89:  unsigned char b;;../../../../../kaynak/uckuyruk.
      +                          c: 91:  b = *( (kuyruk->veri) + bas);
  2410  001692  5043               	movf	uckuyrukKuyruktanAl@kuyruk^0,w,c
  2411  001694  6ED9               	movwf	fsr2l,c
  2412  001696  6ADA               	clrf	fsr2h,c
  2413  001698  0E03               	movlw	3
  2414  00169A  26D9               	addwf	fsr2l,f,c
  2415  00169C  50DF               	movf	indf2,w,c
  2416  00169E  2446               	addwf	uckuyrukKuyruktanAl@bas^0,w,c
  2417  0016A0  6ED9               	movwf	fsr2l,c
  2418  0016A2  6ADA               	clrf	fsr2h,c
  2419  0016A4  50DF               	movf	indf2,w,c
  2420  0016A6  6E45               	movwf	uckuyrukKuyruktanAl@b^0,c
  2421                           
  2422                           ;../../../../../kaynak/uckuyruk.c: 92:     bas++;
  2423  0016A8  2A46               	incf	uckuyrukKuyruktanAl@bas^0,f,c
  2424                           
  2425                           ;../../../../../kaynak/uckuyruk.c: 93:     kuyruk->sayim--;
  2426  0016AA  5043               	movf	uckuyrukKuyruktanAl@kuyruk^0,w,c
  2427  0016AC  6ED9               	movwf	fsr2l,c
  2428  0016AE  6ADA               	clrf	fsr2h,c
  2429  0016B0  0E01               	movlw	1
  2430  0016B2  26D9               	addwf	fsr2l,f,c
  2431  0016B4  06DF               	decf	indf2,f,c
  2432                           
  2433                           ;../../../../../kaynak/uckuyruk.c: 94:     if(bas >= kuyruk->kapasite) bas = 0;
  2434  0016B6  5043               	movf	uckuyrukKuyruktanAl@kuyruk^0,w,c
  2435  0016B8  6ED9               	movwf	fsr2l,c
  2436  0016BA  6ADA               	clrf	fsr2h,c
  2437  0016BC  50DE               	movf	postinc2,w,c
  2438  0016BE  5C46               	subwf	uckuyrukKuyruktanAl@bas^0,w,c
  2439  0016C0  A0D8               	btfss	status,0,c
  2440  0016C2  D002               	goto	l2244
  2441  0016C4  0E00               	movlw	0
  2442  0016C6  6E46               	movwf	uckuyrukKuyruktanAl@bas^0,c
  2443  0016C8                     l2244:
  2444                           
  2445                           ;../../../../../kaynak/uckuyruk.c: 95:     kuyruk->bas = bas;
  2446  0016C8  5043               	movf	uckuyrukKuyruktanAl@kuyruk^0,w,c
  2447  0016CA  6ED9               	movwf	fsr2l,c
  2448  0016CC  6ADA               	clrf	fsr2h,c
  2449  0016CE  0E02               	movlw	2
  2450  0016D0  26D9               	addwf	fsr2l,f,c
  2451  0016D2  C046  FFDF         	movff	uckuyrukKuyruktanAl@bas,indf2
  2452                           
  2453                           ;../../../../../kaynak/uckuyruk.c: 97:  return b;
  2454  0016D6  5045               	movf	uckuyrukKuyruktanAl@b^0,w,c
  2455  0016D8  0012               	return		;funcret
  2456  0016DA                     __end_of_uckuyrukKuyruktanAl:
  2457                           	callstack 0
  2458                           
  2459 ;; *************** function _uckuyrukBos *****************
  2460 ;; Defined at:
  2461 ;;		line 131 in file "../../../../../kaynak/uckuyruk.c"
  2462 ;; Parameters:    Size  Location     Type
  2463 ;;  kuyruk          1   14[COMRAM] PTR struct .
  2464 ;;		 -> kuyruk1(4), 
  2465 ;; Auto vars:     Size  Location     Type
  2466 ;;		None
  2467 ;; Return value:  Size  Location     Type
  2468 ;;                  1    wreg      unsigned char 
  2469 ;; Registers used:
  2470 ;;		wreg, fsr2l, fsr2h, status,2, status,0
  2471 ;; Tracked objects:
  2472 ;;		On entry : 0/0
  2473 ;;		On exit  : 0/0
  2474 ;;		Unchanged: 0/0
  2475 ;; Data sizes:     COMRAM   BANK0   BANK1   BANK2   BANK3   BANK4   BANK5   BANK6   BANK7   BANK8   BANK9  BANK10  BANK1
      +1  BANK12  BANK13  BANK14  BANK15
  2476 ;;      Params:         1       0       0       0       0       0       0       0       0       0       0       0       
      +0       0       0       0       0
  2477 ;;      Locals:         0       0       0       0       0       0       0       0       0       0       0       0       
      +0       0       0       0       0
  2478 ;;      Temps:          0       0       0       0       0       0       0       0       0       0       0       0       
      +0       0       0       0       0
  2479 ;;      Totals:         1       0       0       0       0       0       0       0       0       0       0       0       
      +0       0       0       0       0
  2480 ;;Total ram usage:        1 bytes
  2481 ;; Hardware stack levels used:    1
  2482 ;; Hardware stack levels required when called:    3
  2483 ;; This function calls:
  2484 ;;		Nothing
  2485 ;; This function is called by:
  2486 ;;		_uckuyrukKuyruktanAl
  2487 ;;		_uretici2
  2488 ;;		_gostergeDegerleriGuncelle
  2489 ;; This function uses a non-reentrant model
  2490 ;;
  2491                           
  2492                           	psect	text16
  2493  0018C2                     __ptext16:
  2494                           	callstack 0
  2495  0018C2                     _uckuyrukBos:
  2496                           	callstack 24
  2497                           
  2498                           ;../../../../../kaynak/uckuyruk.c: 132:  return kuyruk->sayim == 0;
  2499                           
  2500                           ;incstack = 0
  2501  0018C2  5042               	movf	uckuyrukBos@kuyruk^0,w,c
  2502  0018C4  6ED9               	movwf	fsr2l,c
  2503  0018C6  6ADA               	clrf	fsr2h,c
  2504  0018C8  0E01               	movlw	1
  2505  0018CA  26D9               	addwf	fsr2l,f,c
  2506  0018CC  50DF               	movf	indf2,w,c
  2507  0018CE  A4D8               	btfss	status,2,c
  2508  0018D0  D002               	goto	u1000
  2509  0018D2  0E01               	movlw	1
  2510  0018D4  0012               	return	
  2511  0018D6                     u1000:
  2512  0018D6  0E00               	movlw	0
  2513  0018D8  0012               	return		;funcret
  2514  0018DA                     __end_of_uckuyrukBos:
  2515                           	callstack 0
  2516                           
  2517 ;; *************** function _tikSayiminiAl *****************
  2518 ;; Defined at:
  2519 ;;		line 148 in file "../../../../../kaynak/gorev.c"
  2520 ;; Parameters:    Size  Location     Type
  2521 ;;		None
  2522 ;; Auto vars:     Size  Location     Type
  2523 ;;  sayim           2   16[COMRAM] unsigned int 
  2524 ;; Return value:  Size  Location     Type
  2525 ;;                  2   14[COMRAM] unsigned int 
  2526 ;; Registers used:
  2527 ;;		None
  2528 ;; Tracked objects:
  2529 ;;		On entry : 0/F
  2530 ;;		On exit  : 0/0
  2531 ;;		Unchanged: 0/0
  2532 ;; Data sizes:     COMRAM   BANK0   BANK1   BANK2   BANK3   BANK4   BANK5   BANK6   BANK7   BANK8   BANK9  BANK10  BANK1
      +1  BANK12  BANK13  BANK14  BANK15
  2533 ;;      Params:         2       0       0       0       0       0       0       0       0       0       0       0       
      +0       0       0       0       0
  2534 ;;      Locals:         2       0       0       0       0       0       0       0       0       0       0       0       
      +0       0       0       0       0
  2535 ;;      Temps:          0       0       0       0       0       0       0       0       0       0       0       0       
      +0       0       0       0       0
  2536 ;;      Totals:         4       0       0       0       0       0       0       0       0       0       0       0       
      +0       0       0       0       0
  2537 ;;Total ram usage:        4 bytes
  2538 ;; Hardware stack levels used:    1
  2539 ;; Hardware stack levels required when called:    3
  2540 ;; This function calls:
  2541 ;;		Nothing
  2542 ;; This function is called by:
  2543 ;;		_gostergeDegerleriGuncelle
  2544 ;;		_gostergeTara
  2545 ;; This function uses a non-reentrant model
  2546 ;;
  2547                           
  2548                           	psect	text17
  2549  00188E                     __ptext17:
  2550                           	callstack 0
  2551  00188E                     _tikSayiminiAl:
  2552                           	callstack 24
  2553                           
  2554                           ;../../../../../kaynak/gorev.c: 149:  unsigned int sayim;;../../../../../kaynak/gorev.c:
      +                           151:  intconYedek = INTCON; INTCONbits.GIEH = 0;;
  2555                           
  2556                           ;incstack = 0
  2557  00188E  CFF2 F01B          	movff	4082,_intconYedek@portmacro$F427	;volatile
  2558  001892  9EF2               	bcf	242,7,c	;volatile
  2559                           
  2560                           ;../../../../../kaynak/gorev.c: 152:  sayim = tikSayimi;
  2561  001894  C00D  F044         	movff	_tikSayimi,tikSayiminiAl@sayim
  2562  001898  C00E  F045         	movff	_tikSayimi+1,tikSayiminiAl@sayim+1
  2563                           
  2564                           ;../../../../../kaynak/gorev.c: 154:  if(intconYedek & 0x80){ INTCONbits.GIEH = 1;; };
  2565  00189C  BE1B               	btfsc	_intconYedek@portmacro$F427^0,7,c
  2566  00189E  8EF2               	bsf	242,7,c	;volatile
  2567                           
  2568                           ;../../../../../kaynak/gorev.c: 155:  return sayim;
  2569  0018A0  C044  F042         	movff	tikSayiminiAl@sayim,?_tikSayiminiAl
  2570  0018A4  C045  F043         	movff	tikSayiminiAl@sayim+1,?_tikSayiminiAl+1
  2571  0018A8  0012               	return		;funcret
  2572  0018AA                     __end_of_tikSayiminiAl:
  2573                           	callstack 0
  2574                           
  2575 ;; *************** function _gorevOlustur *****************
  2576 ;; Defined at:
  2577 ;;		line 109 in file "../../../../../kaynak/gorev.c"
  2578 ;; Parameters:    Size  Location     Type
  2579 ;;  is              2   20[COMRAM] PTR FTN(PTR void ,)unsig
  2580 ;;		 -> gostergeTara(1), gostergeDegerleriGuncelle(1), uretici2(1), uretici1(1), 
  2581 ;; Auto vars:     Size  Location     Type
  2582 ;;  gkb             1   22[COMRAM] PTR struct .
  2583 ;;		 -> gorevHeap(24), 
  2584 ;; Return value:  Size  Location     Type
  2585 ;;                  2   20[COMRAM] PTR struct .
  2586 ;; Registers used:
  2587 ;;		wreg, fsr2l, fsr2h, status,2, status,0, prodl, prodh, cstack
  2588 ;; Tracked objects:
  2589 ;;		On entry : 0/0
  2590 ;;		On exit  : 0/0
  2591 ;;		Unchanged: 0/0
  2592 ;; Data sizes:     COMRAM   BANK0   BANK1   BANK2   BANK3   BANK4   BANK5   BANK6   BANK7   BANK8   BANK9  BANK10  BANK1
      +1  BANK12  BANK13  BANK14  BANK15
  2593 ;;      Params:         2       0       0       0       0       0       0       0       0       0       0       0       
      +0       0       0       0       0
  2594 ;;      Locals:         1       0       0       0       0       0       0       0       0       0       0       0       
      +0       0       0       0       0
  2595 ;;      Temps:          0       0       0       0       0       0       0       0       0       0       0       0       
      +0       0       0       0       0
  2596 ;;      Totals:         3       0       0       0       0       0       0       0       0       0       0       0       
      +0       0       0       0       0
  2597 ;;Total ram usage:        3 bytes
  2598 ;; Hardware stack levels used:    1
  2599 ;; Hardware stack levels required when called:    4
  2600 ;; This function calls:
  2601 ;;		_listeyeEkle
  2602 ;; This function is called by:
  2603 ;;		_main
  2604 ;; This function uses a non-reentrant model
  2605 ;;
  2606                           
  2607                           	psect	text18
  2608  001728                     __ptext18:
  2609                           	callstack 0
  2610  001728                     _gorevOlustur:
  2611                           	callstack 26
  2612                           
  2613                           ;../../../../../kaynak/gorev.c: 110:     gorev_t *gkb;;../../../../../kaynak/gorev.c: 11
      +                          2:  if(gorevSayimi >= 6) return ((void*)0);
  2614                           
  2615                           ;incstack = 0
  2616  001728  0E05               	movlw	5
  2617  00172A  641A               	cpfsgt	_gorevSayimi^0,c
  2618  00172C  D001               	goto	l2616
  2619  00172E  0012               	return	
  2620  001730                     l2616:
  2621                           
  2622                           ;../../../../../kaynak/gorev.c: 113:     gkb = &gorevHeap[gorevSayimi++];
  2623  001730  501A               	movf	_gorevSayimi^0,w,c
  2624  001732  0D04               	mullw	4
  2625  001734  50F3               	movf	243,w,c
  2626  001736  0F60               	addlw	low _gorevHeap
  2627  001738  6E4A               	movwf	gorevOlustur@gkb^0,c
  2628  00173A  2A1A               	incf	_gorevSayimi^0,f,c
  2629                           
  2630                           ;../../../../../kaynak/gorev.c: 114:  gkb->is = is;
  2631  00173C  504A               	movf	gorevOlustur@gkb^0,w,c
  2632  00173E  6ED9               	movwf	fsr2l,c
  2633  001740  6ADA               	clrf	fsr2h,c
  2634  001742  0E02               	movlw	2
  2635  001744  26D9               	addwf	fsr2l,f,c
  2636  001746  C048  FFDE         	movff	gorevOlustur@is,postinc2
  2637  00174A  C049  FFDD         	movff	gorevOlustur@is+1,postdec2
  2638                           
  2639                           ;../../../../../kaynak/gorev.c: 115:  ( (gorev_t*) gkb )->sn = 0;
  2640  00174E  504A               	movf	gorevOlustur@gkb^0,w,c
  2641  001750  6ED9               	movwf	fsr2l,c
  2642  001752  6ADA               	clrf	fsr2h,c
  2643  001754  0E00               	movlw	0
  2644  001756  6EDE               	movwf	postinc2,c
  2645  001758  0E00               	movlw	0
  2646  00175A  6EDD               	movwf	postdec2,c
  2647                           
  2648                           ;../../../../../kaynak/gorev.c: 116:     listeyeEkle(calisanListesi, &calisanSayimi, 6, 
      +                          gkb);
  2649  00175C  0E1E               	movlw	low _calisanListesi
  2650  00175E  6E42               	movwf	listeyeEkle@liste^0,c
  2651  001760  0E33               	movlw	low _calisanSayimi
  2652  001762  6E43               	movwf	listeyeEkle@sayim^0,c
  2653  001764  0E06               	movlw	6
  2654  001766  6E44               	movwf	listeyeEkle@max^0,c
  2655  001768  C04A  F045         	movff	gorevOlustur@gkb,listeyeEkle@glo
  2656  00176C  6A46               	clrf	(listeyeEkle@glo+1)^0,c
  2657  00176E  EC10  F00C         	call	_listeyeEkle	;wreg free
  2658  001772  0012               	return		;funcret
  2659  001774                     __end_of_gorevOlustur:
  2660                           	callstack 0
  2661                           
  2662 ;; *************** function _listeyeEkle *****************
  2663 ;; Defined at:
  2664 ;;		line 68 in file "../../../../../kaynak/gorev.c"
  2665 ;; Parameters:    Size  Location     Type
  2666 ;;  liste           1   14[COMRAM] PTR PTR struct .
  2667 ;;		 -> cikanListesi(4), calisanListesi(12), 
  2668 ;;  sayim           1   15[COMRAM] PTR unsigned char 
  2669 ;;		 -> cikanSayimi(1), calisanSayimi(1), 
  2670 ;;  max             1   16[COMRAM] unsigned char 
  2671 ;;  glo             2   17[COMRAM] PTR struct .
  2672 ;;		 -> gorevHeap(24), NULL(0), 
  2673 ;; Auto vars:     Size  Location     Type
  2674 ;;  cSayim          1   19[COMRAM] const unsigned char 
  2675 ;; Return value:  Size  Location     Type
  2676 ;;                  1    wreg      void 
  2677 ;; Registers used:
  2678 ;;		wreg, fsr2l, fsr2h, status,2, status,0, prodl, prodh
  2679 ;; Tracked objects:
  2680 ;;		On entry : 0/0
  2681 ;;		On exit  : 0/0
  2682 ;;		Unchanged: 0/0
  2683 ;; Data sizes:     COMRAM   BANK0   BANK1   BANK2   BANK3   BANK4   BANK5   BANK6   BANK7   BANK8   BANK9  BANK10  BANK1
      +1  BANK12  BANK13  BANK14  BANK15
  2684 ;;      Params:         5       0       0       0       0       0       0       0       0       0       0       0       
      +0       0       0       0       0
  2685 ;;      Locals:         1       0       0       0       0       0       0       0       0       0       0       0       
      +0       0       0       0       0
  2686 ;;      Temps:          0       0       0       0       0       0       0       0       0       0       0       0       
      +0       0       0       0       0
  2687 ;;      Totals:         6       0       0       0       0       0       0       0       0       0       0       0       
      +0       0       0       0       0
  2688 ;;Total ram usage:        6 bytes
  2689 ;; Hardware stack levels used:    1
  2690 ;; Hardware stack levels required when called:    3
  2691 ;; This function calls:
  2692 ;;		Nothing
  2693 ;; This function is called by:
  2694 ;;		_gorevOlustur
  2695 ;;		_gorevciyiBaslat
  2696 ;; This function uses a non-reentrant model
  2697 ;;
  2698                           
  2699                           	psect	text19
  2700  001820                     __ptext19:
  2701                           	callstack 0
  2702  001820                     _listeyeEkle:
  2703                           	callstack 25
  2704                           
  2705                           ;../../../../../kaynak/gorev.c: 68: static void listeyeEkle(gorevListeOgesi_t liste[],;.
      +                          ./../../../../kaynak/gorev.c: 69:         char *sayim, char max, gorevListeOgesi_t glo) 
      +                          {;../../../../../kaynak/gorev.c: 71:     const char cSayim = *sayim;
  2706                           
  2707                           ;incstack = 0
  2708  001820  5043               	movf	listeyeEkle@sayim^0,w,c
  2709  001822  6ED9               	movwf	fsr2l,c
  2710  001824  6ADA               	clrf	fsr2h,c
  2711  001826  50DF               	movf	indf2,w,c
  2712  001828  6E47               	movwf	listeyeEkle@cSayim^0,c
  2713                           
  2714                           ;../../../../../kaynak/gorev.c: 74:     if(cSayim >= max) return;
  2715  00182A  5044               	movf	listeyeEkle@max^0,w,c
  2716  00182C  5C47               	subwf	listeyeEkle@cSayim^0,w,c
  2717  00182E  B0D8               	btfsc	status,0,c
  2718  001830  0012               	return	
  2719                           
  2720                           ;../../../../../kaynak/gorev.c: 76:     liste[cSayim] = glo;
  2721  001832  5047               	movf	listeyeEkle@cSayim^0,w,c
  2722  001834  0D02               	mullw	2
  2723  001836  5042               	movf	listeyeEkle@liste^0,w,c
  2724  001838  24F3               	addwf	243,w,c
  2725  00183A  6ED9               	movwf	fsr2l,c
  2726  00183C  6ADA               	clrf	fsr2h,c
  2727  00183E  C045  FFDE         	movff	listeyeEkle@glo,postinc2
  2728  001842  C046  FFDD         	movff	listeyeEkle@glo+1,postdec2
  2729                           
  2730                           ;../../../../../kaynak/gorev.c: 77:     (*sayim)++;
  2731  001846  5043               	movf	listeyeEkle@sayim^0,w,c
  2732  001848  6ED9               	movwf	fsr2l,c
  2733  00184A  6ADA               	clrf	fsr2h,c
  2734  00184C  2ADF               	incf	indf2,f,c
  2735  00184E  0012               	return		;funcret
  2736  001850                     __end_of_listeyeEkle:
  2737                           	callstack 0
  2738                           
  2739 ;; *************** function _interruptYonetici *****************
  2740 ;; Defined at:
  2741 ;;		line 50 in file "interrupt.c"
  2742 ;; Parameters:    Size  Location     Type
  2743 ;;		None
  2744 ;; Auto vars:     Size  Location     Type
  2745 ;;		None
  2746 ;; Return value:  Size  Location     Type
  2747 ;;                  1    wreg      void 
  2748 ;; Registers used:
  2749 ;;		wreg, fsr0l, fsr0h, fsr1l, fsr1h, fsr1l, fsr1h, fsr2l, fsr2h, status,2, status,0, pclath, btemp, btemp+1, btemp+2, b
      +temp+3, btemp+4, btemp+5, btemp+6, btemp+7, btemp+8, btemp+9, btemp+10, btemp+11, btemp+12, btemp+13, btemp+14, btemp+15
      +, btemp+16, btemp+17, btemp+18, btemp+19, btemp+20, btemp+21, btemp+22, btemp+23, btemp+24, btemp+25, btemp+26, btemp+27
      +, btemp+28, btemp+29, btemp+30, btemp+31, tosl, structret, tblptrl, tblptrh, tblptru, prodl, prodh, bsr, cstack
  2750 ;; Tracked objects:
  2751 ;;		On entry : 0/0
  2752 ;;		On exit  : 0/0
  2753 ;;		Unchanged: 0/0
  2754 ;; Data sizes:     COMRAM   BANK0   BANK1   BANK2   BANK3   BANK4   BANK5   BANK6   BANK7   BANK8   BANK9  BANK10  BANK1
      +1  BANK12  BANK13  BANK14  BANK15
  2755 ;;      Params:         0       0       0       0       0       0       0       0       0       0       0       0       
      +0       0       0       0       0
  2756 ;;      Locals:         0       0       0       0       0       0       0       0       0       0       0       0       
      +0       0       0       0       0
  2757 ;;      Temps:         14       0       0       0       0       0       0       0       0       0       0       0       
      +0       0       0       0       0
  2758 ;;      Totals:        14       0       0       0       0       0       0       0       0       0       0       0       
      +0       0       0       0       0
  2759 ;;Total ram usage:       14 bytes
  2760 ;; Hardware stack levels used:    1
  2761 ;; Hardware stack levels required when called:    2
  2762 ;; This function calls:
  2763 ;;		Absolute function
  2764 ;;		_sisTimerKesmeIsleyici
  2765 ;; This function is called by:
  2766 ;;		Interrupt level 2
  2767 ;; This function uses a non-reentrant model
  2768 ;;
  2769                           
  2770                           	psect	intcode
  2771  000008                     __pintcode:
  2772                           	callstack 0
  2773  000008                     _interruptYonetici:
  2774                           	callstack 23
  2775                           
  2776                           ;incstack = 0
  2777  000008  8250               	bsf	btemp,1,c	;set compiler interrupt flag (level 2)
  2778  00000A  CFFA F034          	movff	pclath,??_interruptYonetici
  2779  00000E  CFFB F035          	movff	pclatu,??_interruptYonetici+1
  2780  000012  CFE9 F036          	movff	fsr0l,??_interruptYonetici+2
  2781  000016  CFEA F037          	movff	fsr0h,??_interruptYonetici+3
  2782  00001A  CFE1 F038          	movff	fsr1l,??_interruptYonetici+4
  2783  00001E  CFE2 F039          	movff	fsr1h,??_interruptYonetici+5
  2784  000022  CFD9 F03A          	movff	fsr2l,??_interruptYonetici+6
  2785  000026  CFDA F03B          	movff	fsr2h,??_interruptYonetici+7
  2786  00002A  CFF3 F03C          	movff	prodl,??_interruptYonetici+8
  2787  00002E  CFF4 F03D          	movff	prodh,??_interruptYonetici+9
  2788  000032  CFF6 F03E          	movff	tblptrl,??_interruptYonetici+10
  2789  000036  CFF7 F03F          	movff	tblptrh,??_interruptYonetici+11
  2790  00003A  CFF8 F040          	movff	tblptru,??_interruptYonetici+12
  2791  00003E  CFF5 F041          	movff	tablat,??_interruptYonetici+13
  2792                           
  2793                           ;interrupt.c: 52:     if(INTCONbits.TMR0IF == 1 && INTCONbits.TMR0IF == 1){
  2794  000042  B4F2               	btfsc	242,2,c	;volatile
  2795  000044  A4F2               	btfss	242,2,c	;volatile
  2796  000046  D00C               	goto	i2l39
  2797                           
  2798                           ;interrupt.c: 53:         TMR0IF = 0;
  2799  000048  94F2               	bcf	4082,2,c	;volatile
  2800                           
  2801                           ;interrupt.c: 54:         (*timer0KesmeIsleyici)();
  2802  00004A  D801               	call	i2u48_48
  2803  00004C  D014               	goto	i2l46
  2804  00004E                     i2u48_48:
  2805  00004E  0005               	push	
  2806  000050  6EFA               	movwf	pclath,c
  2807  000052  5015               	movf	_timer0KesmeIsleyici^0,w,c
  2808  000054  6EFD               	movwf	tosl,c
  2809  000056  5016               	movf	(_timer0KesmeIsleyici+1)^0,w,c
  2810  000058  6EFE               	movwf	tosh,c
  2811  00005A  6AFF               	clrf	tosu,c
  2812  00005C  50FA               	movf	pclath,w,c
  2813  00005E  0012               	return		;indir
  2814  000060                     i2l39:
  2815  000060  ACF2               	btfss	242,6,c	;volatile
  2816  000062  D009               	goto	i2l46
  2817                           
  2818                           ;interrupt.c: 57:         if(PIE1bits.RCIE == 1 && PIR1bits.RCIF == 1){
  2819  000064  BA9D               	btfsc	157,5,c	;volatile
  2820  000066  AA9E               	btfss	158,5,c	;volatile
  2821  000068  D002               	goto	i2l42
  2822                           
  2823                           ;interrupt.c: 58:             RCIF = 0;
  2824  00006A  9A9E               	bcf	3998,5,c	;volatile
  2825                           
  2826                           ;interrupt.c: 59:         }
  2827  00006C  D004               	goto	i2l46
  2828  00006E                     i2l42:
  2829  00006E  B89D               	btfsc	3997,4,c	;volatile
  2830  000070  A89E               	btfss	3998,4,c	;volatile
  2831  000072  D001               	goto	i2l46
  2832                           
  2833                           ;interrupt.c: 61:             TXIF = 0;
  2834  000074  989E               	bcf	3998,4,c	;volatile
  2835  000076                     i2l46:
  2836  000076  C041  FFF5         	movff	??_interruptYonetici+13,tablat
  2837  00007A  C040  FFF8         	movff	??_interruptYonetici+12,tblptru
  2838  00007E  C03F  FFF7         	movff	??_interruptYonetici+11,tblptrh
  2839  000082  C03E  FFF6         	movff	??_interruptYonetici+10,tblptrl
  2840  000086  C03D  FFF4         	movff	??_interruptYonetici+9,prodh
  2841  00008A  C03C  FFF3         	movff	??_interruptYonetici+8,prodl
  2842  00008E  C03B  FFDA         	movff	??_interruptYonetici+7,fsr2h
  2843  000092  C03A  FFD9         	movff	??_interruptYonetici+6,fsr2l
  2844  000096  C039  FFE2         	movff	??_interruptYonetici+5,fsr1h
  2845  00009A  C038  FFE1         	movff	??_interruptYonetici+4,fsr1l
  2846  00009E  C037  FFEA         	movff	??_interruptYonetici+3,fsr0h
  2847  0000A2  C036  FFE9         	movff	??_interruptYonetici+2,fsr0l
  2848  0000A6  C035  FFFB         	movff	??_interruptYonetici+1,pclatu
  2849  0000AA  C034  FFFA         	movff	??_interruptYonetici,pclath
  2850  0000AE  9250               	bcf	btemp,1,c	;clear compiler interrupt flag (level 2)
  2851  0000B0  0011               	retfie		f
  2852  0000B2                     __end_of_interruptYonetici:
  2853                           	callstack 0
  2854                           
  2855 ;; *************** function _sisTimerKesmeIsleyici *****************
  2856 ;; Defined at:
  2857 ;;		line 125 in file "sistimer.c"
  2858 ;; Parameters:    Size  Location     Type
  2859 ;;		None
  2860 ;; Auto vars:     Size  Location     Type
  2861 ;;		None
  2862 ;; Return value:  Size  Location     Type
  2863 ;;                  1    wreg      void 
  2864 ;; Registers used:
  2865 ;;		wreg, fsr0l, fsr0h, fsr1l, fsr1h, fsr1l, fsr1h, fsr2l, fsr2h, status,2, status,0, pclath, btemp, btemp+1, btemp+2, b
      +temp+3, btemp+4, btemp+5, btemp+6, btemp+7, btemp+8, btemp+9, btemp+10, btemp+11, btemp+12, btemp+13, btemp+14, btemp+15
      +, btemp+16, btemp+17, btemp+18, btemp+19, btemp+20, btemp+21, btemp+22, btemp+23, btemp+24, btemp+25, btemp+26, btemp+27
      +, btemp+28, btemp+29, btemp+30, btemp+31, tosl, structret, tblptrl, tblptrh, tblptru, prodl, prodh, bsr, cstack
  2866 ;; Tracked objects:
  2867 ;;		On entry : 0/0
  2868 ;;		On exit  : 0/0
  2869 ;;		Unchanged: 0/0
  2870 ;; Data sizes:     COMRAM   BANK0   BANK1   BANK2   BANK3   BANK4   BANK5   BANK6   BANK7   BANK8   BANK9  BANK10  BANK1
      +1  BANK12  BANK13  BANK14  BANK15
  2871 ;;      Params:         0       0       0       0       0       0       0       0       0       0       0       0       
      +0       0       0       0       0
  2872 ;;      Locals:         0       0       0       0       0       0       0       0       0       0       0       0       
      +0       0       0       0       0
  2873 ;;      Temps:          0       0       0       0       0       0       0       0       0       0       0       0       
      +0       0       0       0       0
  2874 ;;      Totals:         0       0       0       0       0       0       0       0       0       0       0       0       
      +0       0       0       0       0
  2875 ;;Total ram usage:        0 bytes
  2876 ;; Hardware stack levels used:    1
  2877 ;; Hardware stack levels required when called:    1
  2878 ;; This function calls:
  2879 ;;		Absolute function
  2880 ;;		_sisTikKesmeIsleyici
  2881 ;;		_sisTimerIsleyiciVarsayilan
  2882 ;; This function is called by:
  2883 ;;		_sisTimerIlkle
  2884 ;;		_interruptYonetici
  2885 ;; This function uses a non-reentrant model
  2886 ;;
  2887                           
  2888                           	psect	text21
  2889  001870                     __ptext21:
  2890                           	callstack 0
  2891  001870                     _sisTimerKesmeIsleyici:
  2892                           	callstack 23
  2893                           
  2894                           ;sistimer.c: 127:     TMR0 = (uint16_t) ((uint16_t)((65536)-((( (1000) - ( ( ( 52 ) * ( 
      +                          ( 1 * ( 100 ) ) / ( (16000000 / 4 ) / 1000000 ) ) ) / ( 100 ) ) )* (16000000/1000000))/(
      +                          4*(1)))-1));
  2895                           
  2896                           ;incstack = 0
  2897  001870  0EF0               	movlw	240
  2898  001872  6ED7               	movwf	215,c	;volatile
  2899  001874  0E93               	movlw	147
  2900  001876  6ED6               	movwf	214,c	;volatile
  2901                           
  2902                           ;sistimer.c: 131:     (*sisTimerDisIsleyici)();
  2903  001878  D801               	call	i2u44_48
  2904  00187A  0012               	return	
  2905  00187C                     i2u44_48:
  2906  00187C  0005               	push	
  2907  00187E  6EFA               	movwf	pclath,c
  2908  001880  500F               	movf	_sisTimerDisIsleyici^0,w,c
  2909  001882  6EFD               	movwf	tosl,c
  2910  001884  5010               	movf	(_sisTimerDisIsleyici+1)^0,w,c
  2911  001886  6EFE               	movwf	tosh,c
  2912  001888  6AFF               	clrf	tosu,c
  2913  00188A  50FA               	movf	pclath,w,c
  2914  00188C  0012               	return		;indir
  2915  00188E                     __end_of_sisTimerKesmeIsleyici:
  2916                           	callstack 0
  2917                           
  2918 ;; *************** function _sisTikKesmeIsleyici *****************
  2919 ;; Defined at:
  2920 ;;		line 161 in file "../../../../../kaynak/gorev.c"
  2921 ;; Parameters:    Size  Location     Type
  2922 ;;		None
  2923 ;; Auto vars:     Size  Location     Type
  2924 ;;		None
  2925 ;; Return value:  Size  Location     Type
  2926 ;;                  1    wreg      void 
  2927 ;; Registers used:
  2928 ;;		status,2, status,0
  2929 ;; Tracked objects:
  2930 ;;		On entry : 0/0
  2931 ;;		On exit  : 0/0
  2932 ;;		Unchanged: 0/0
  2933 ;; Data sizes:     COMRAM   BANK0   BANK1   BANK2   BANK3   BANK4   BANK5   BANK6   BANK7   BANK8   BANK9  BANK10  BANK1
      +1  BANK12  BANK13  BANK14  BANK15
  2934 ;;      Params:         0       0       0       0       0       0       0       0       0       0       0       0       
      +0       0       0       0       0
  2935 ;;      Locals:         0       0       0       0       0       0       0       0       0       0       0       0       
      +0       0       0       0       0
  2936 ;;      Temps:          0       0       0       0       0       0       0       0       0       0       0       0       
      +0       0       0       0       0
  2937 ;;      Totals:         0       0       0       0       0       0       0       0       0       0       0       0       
      +0       0       0       0       0
  2938 ;;Total ram usage:        0 bytes
  2939 ;; Hardware stack levels used:    1
  2940 ;; This function calls:
  2941 ;;		Nothing
  2942 ;; This function is called by:
  2943 ;;		_portGorevciyiBaslat
  2944 ;;		_sisTimerKesmeIsleyici
  2945 ;; This function uses a non-reentrant model
  2946 ;;
  2947                           
  2948                           	psect	text22
  2949  0018F2                     __ptext22:
  2950                           	callstack 0
  2951  0018F2                     _sisTikKesmeIsleyici:
  2952                           	callstack 23
  2953                           
  2954                           ;../../../../../kaynak/gorev.c: 162:  tikSayimi++;
  2955                           
  2956                           ;incstack = 0
  2957  0018F2  4A0D               	infsnz	_tikSayimi^0,f,c
  2958  0018F4  2A0E               	incf	(_tikSayimi+1)^0,f,c
  2959  0018F6  0012               	return		;funcret
  2960  0018F8                     __end_of_sisTikKesmeIsleyici:
  2961                           	callstack 0
  2962                           
  2963 ;; *************** function _sisTimerIsleyiciVarsayilan *****************
  2964 ;; Defined at:
  2965 ;;		line 121 in file "sistimer.c"
  2966 ;; Parameters:    Size  Location     Type
  2967 ;;		None
  2968 ;; Auto vars:     Size  Location     Type
  2969 ;;		None
  2970 ;; Return value:  Size  Location     Type
  2971 ;;                  1    wreg      void 
  2972 ;; Registers used:
  2973 ;;		None
  2974 ;; Tracked objects:
  2975 ;;		On entry : 0/0
  2976 ;;		On exit  : 0/0
  2977 ;;		Unchanged: 0/0
  2978 ;; Data sizes:     COMRAM   BANK0   BANK1   BANK2   BANK3   BANK4   BANK5   BANK6   BANK7   BANK8   BANK9  BANK10  BANK1
      +1  BANK12  BANK13  BANK14  BANK15
  2979 ;;      Params:         0       0       0       0       0       0       0       0       0       0       0       0       
      +0       0       0       0       0
  2980 ;;      Locals:         0       0       0       0       0       0       0       0       0       0       0       0       
      +0       0       0       0       0
  2981 ;;      Temps:          0       0       0       0       0       0       0       0       0       0       0       0       
      +0       0       0       0       0
  2982 ;;      Totals:         0       0       0       0       0       0       0       0       0       0       0       0       
      +0       0       0       0       0
  2983 ;;Total ram usage:        0 bytes
  2984 ;; Hardware stack levels used:    1
  2985 ;; This function calls:
  2986 ;;		Nothing
  2987 ;; This function is called by:
  2988 ;;		_sisTimerIlkle
  2989 ;;		_sisTimerKesmeIsleyici
  2990 ;; This function uses a non-reentrant model
  2991 ;;
  2992                           
  2993                           	psect	text23
  2994  0018FC                     __ptext23:
  2995                           	callstack 0
  2996  0018FC                     _sisTimerIsleyiciVarsayilan:
  2997                           	callstack 23
  2998                           
  2999                           ;incstack = 0
  3000  0018FC  0012               	return		;funcret
  3001  0018FE                     __end_of_sisTimerIsleyiciVarsayilan:
  3002                           	callstack 0
  3003                           
  3004                           	psect	text24
  3005  000000                     __ptext24:
  3006                           	callstack 0
  3007                           
  3008                           	psect	rparam
  3009  0000                     
  3010                           	psect	temp
  3011  000050                     btemp:
  3012                           	callstack 0
  3013  000050                     	ds	1
  3014  0000                     int$flags	set	btemp
  3015  0000                     wtemp8	set	btemp+1
  3016  0000                     ttemp5	set	btemp+1
  3017  0000                     ttemp6	set	btemp+4
  3018  0000                     ttemp7	set	btemp+8
  3019                           
  3020                           	psect	idloc
  3021                           
  3022                           ;Config register IDLOC0 @ 0x200000
  3023                           ;	unspecified, using default values
  3024  200000                     	org	2097152
  3025  200000  FF                 	db	255
  3026                           
  3027                           ;Config register IDLOC1 @ 0x200001
  3028                           ;	unspecified, using default values
  3029  200001                     	org	2097153
  3030  200001  FF                 	db	255
  3031                           
  3032                           ;Config register IDLOC2 @ 0x200002
  3033                           ;	unspecified, using default values
  3034  200002                     	org	2097154
  3035  200002  FF                 	db	255
  3036                           
  3037                           ;Config register IDLOC3 @ 0x200003
  3038                           ;	unspecified, using default values
  3039  200003                     	org	2097155
  3040  200003  FF                 	db	255
  3041                           
  3042                           ;Config register IDLOC4 @ 0x200004
  3043                           ;	unspecified, using default values
  3044  200004                     	org	2097156
  3045  200004  FF                 	db	255
  3046                           
  3047                           ;Config register IDLOC5 @ 0x200005
  3048                           ;	unspecified, using default values
  3049  200005                     	org	2097157
  3050  200005  FF                 	db	255
  3051                           
  3052                           ;Config register IDLOC6 @ 0x200006
  3053                           ;	unspecified, using default values
  3054  200006                     	org	2097158
  3055  200006  FF                 	db	255
  3056                           
  3057                           ;Config register IDLOC7 @ 0x200007
  3058                           ;	unspecified, using default values
  3059  200007                     	org	2097159
  3060  200007  FF                 	db	255
  3061                           
  3062                           	psect	config
  3063                           
  3064                           ; Padding undefined space
  3065  300000                     	org	3145728
  3066  300000  FF                 	db	255
  3067                           
  3068                           ;Config register CONFIG1H @ 0x300001
  3069                           ;	Oscillator Selection bits
  3070                           ;	FOSC = INTIO67, Internal oscillator block
  3071                           ;	4X PLL Enable
  3072                           ;	PLLCFG = ON, Oscillator multiplied by 4
  3073                           ;	Primary clock enable bit
  3074                           ;	PRICLKEN = ON, Primary clock is always enabled
  3075                           ;	Fail-Safe Clock Monitor Enable bit
  3076                           ;	FCMEN = OFF, Fail-Safe Clock Monitor disabled
  3077                           ;	Internal/External Oscillator Switchover bit
  3078                           ;	IESO = OFF, Oscillator Switchover mode disabled
  3079  300001                     	org	3145729
  3080  300001  38                 	db	56
  3081                           
  3082                           ;Config register CONFIG2L @ 0x300002
  3083                           ;	Power-up Timer Enable bit
  3084                           ;	PWRTEN = ON, Power up timer enabled
  3085                           ;	Brown-out Reset Enable bits
  3086                           ;	BOREN = SBORDIS, Brown-out Reset enabled in hardware only (SBOREN is disabled)
  3087                           ;	Brown Out Reset Voltage bits
  3088                           ;	BORV = 250, VBOR set to 2.50 V nominal
  3089  300002                     	org	3145730
  3090  300002  0E                 	db	14
  3091                           
  3092                           ;Config register CONFIG2H @ 0x300003
  3093                           ;	Watchdog Timer Enable bits
  3094                           ;	WDTEN = OFF, Watch dog timer is always disabled. SWDTEN has no effect.
  3095                           ;	Watchdog Timer Postscale Select bits
  3096                           ;	WDTPS = 32768, 1:32768
  3097  300003                     	org	3145731
  3098  300003  3C                 	db	60
  3099                           
  3100                           ; Padding undefined space
  3101  300004                     	org	3145732
  3102  300004  FF                 	db	255
  3103                           
  3104                           ;Config register CONFIG3H @ 0x300005
  3105                           ;	CCP2 MUX bit
  3106                           ;	CCP2MX = PORTC1, CCP2 input/output is multiplexed with RC1
  3107                           ;	PORTB A/D Enable bit
  3108                           ;	PBADEN = OFF, PORTB<5:0> pins are configured as digital I/O on Reset
  3109                           ;	P3A/CCP3 Mux bit
  3110                           ;	CCP3MX = PORTB5, P3A/CCP3 input/output is multiplexed with RB5
  3111                           ;	HFINTOSC Fast Start-up
  3112                           ;	HFOFST = ON, HFINTOSC output and ready status are not delayed by the oscillator stable
      +                           status
  3113                           ;	Timer3 Clock input mux bit
  3114                           ;	T3CMX = PORTC0, T3CKI is on RC0
  3115                           ;	ECCP2 B output mux bit
  3116                           ;	P2BMX = PORTD2, P2B is on RD2
  3117                           ;	MCLR Pin Enable bit
  3118                           ;	MCLRE = INTMCLR, RE3 input pin enabled; MCLR disabled
  3119  300005                     	org	3145733
  3120  300005  3D                 	db	61
  3121                           
  3122                           ;Config register CONFIG4L @ 0x300006
  3123                           ;	Stack Full/Underflow Reset Enable bit
  3124                           ;	STVREN = ON, Stack full/underflow will cause Reset
  3125                           ;	Single-Supply ICSP Enable bit
  3126                           ;	LVP = ON, Single-Supply ICSP enabled if MCLRE is also 1
  3127                           ;	Extended Instruction Set Enable bit
  3128                           ;	XINST = OFF, Instruction set extension and Indexed Addressing mode disabled (Legacy mo
      +                          de)
  3129                           ;	Background Debug
  3130                           ;	DEBUG = OFF, Disabled
  3131  300006                     	org	3145734
  3132  300006  85                 	db	133
  3133                           
  3134                           ; Padding undefined space
  3135  300007                     	org	3145735
  3136  300007  FF                 	db	255
  3137                           
  3138                           ;Config register CONFIG5L @ 0x300008
  3139                           ;	Code Protection Block 0
  3140                           ;	CP0 = OFF, Block 0 (000800-003FFFh) not code-protected
  3141                           ;	Code Protection Block 1
  3142                           ;	CP1 = OFF, Block 1 (004000-007FFFh) not code-protected
  3143                           ;	Code Protection Block 2
  3144                           ;	CP2 = OFF, Block 2 (008000-00BFFFh) not code-protected
  3145                           ;	Code Protection Block 3
  3146                           ;	CP3 = OFF, Block 3 (00C000-00FFFFh) not code-protected
  3147  300008                     	org	3145736
  3148  300008  0F                 	db	15
  3149                           
  3150                           ;Config register CONFIG5H @ 0x300009
  3151                           ;	Boot Block Code Protection bit
  3152                           ;	CPB = OFF, Boot block (000000-0007FFh) not code-protected
  3153                           ;	Data EEPROM Code Protection bit
  3154                           ;	CPD = OFF, Data EEPROM not code-protected
  3155  300009                     	org	3145737
  3156  300009  C0                 	db	192
  3157                           
  3158                           ;Config register CONFIG6L @ 0x30000A
  3159                           ;	Write Protection Block 0
  3160                           ;	WRT0 = OFF, Block 0 (000800-003FFFh) not write-protected
  3161                           ;	Write Protection Block 1
  3162                           ;	WRT1 = OFF, Block 1 (004000-007FFFh) not write-protected
  3163                           ;	Write Protection Block 2
  3164                           ;	WRT2 = OFF, Block 2 (008000-00BFFFh) not write-protected
  3165                           ;	Write Protection Block 3
  3166                           ;	WRT3 = OFF, Block 3 (00C000-00FFFFh) not write-protected
  3167  30000A                     	org	3145738
  3168  30000A  0F                 	db	15
  3169                           
  3170                           ;Config register CONFIG6H @ 0x30000B
  3171                           ;	Configuration Register Write Protection bit
  3172                           ;	WRTC = OFF, Configuration registers (300000-3000FFh) not write-protected
  3173                           ;	Boot Block Write Protection bit
  3174                           ;	WRTB = OFF, Boot Block (000000-0007FFh) not write-protected
  3175                           ;	Data EEPROM Write Protection bit
  3176                           ;	WRTD = OFF, Data EEPROM not write-protected
  3177  30000B                     	org	3145739
  3178  30000B  E0                 	db	224
  3179                           
  3180                           ;Config register CONFIG7L @ 0x30000C
  3181                           ;	Table Read Protection Block 0
  3182                           ;	EBTR0 = OFF, Block 0 (000800-003FFFh) not protected from table reads executed in other
      +                           blocks
  3183                           ;	Table Read Protection Block 1
  3184                           ;	EBTR1 = OFF, Block 1 (004000-007FFFh) not protected from table reads executed in other
      +                           blocks
  3185                           ;	Table Read Protection Block 2
  3186                           ;	EBTR2 = OFF, Block 2 (008000-00BFFFh) not protected from table reads executed in other
      +                           blocks
  3187                           ;	Table Read Protection Block 3
  3188                           ;	EBTR3 = OFF, Block 3 (00C000-00FFFFh) not protected from table reads executed in other
      +                           blocks
  3189  30000C                     	org	3145740
  3190  30000C  0F                 	db	15
  3191                           
  3192                           ;Config register CONFIG7H @ 0x30000D
  3193                           ;	Boot Block Table Read Protection bit
  3194                           ;	EBTRB = OFF, Boot Block (000000-0007FFh) not protected from table reads executed in ot
      +                          her blocks
  3195  30000D                     	org	3145741
  3196  30000D  40                 	db	64
  3197                           tosu	equ	0xFFF
  3198                           tosh	equ	0xFFE
  3199                           tosl	equ	0xFFD
  3200                           stkptr	equ	0xFFC
  3201                           pclatu	equ	0xFFB
  3202                           pclath	equ	0xFFA
  3203                           pcl	equ	0xFF9
  3204                           tblptru	equ	0xFF8
  3205                           tblptrh	equ	0xFF7
  3206                           tblptrl	equ	0xFF6
  3207                           tablat	equ	0xFF5
  3208                           prodh	equ	0xFF4
  3209                           prodl	equ	0xFF3
  3210                           indf0	equ	0xFEF
  3211                           postinc0	equ	0xFEE
  3212                           postdec0	equ	0xFED
  3213                           preinc0	equ	0xFEC
  3214                           plusw0	equ	0xFEB
  3215                           fsr0h	equ	0xFEA
  3216                           fsr0l	equ	0xFE9
  3217                           wreg	equ	0xFE8
  3218                           indf1	equ	0xFE7
  3219                           postinc1	equ	0xFE6
  3220                           postdec1	equ	0xFE5
  3221                           preinc1	equ	0xFE4
  3222                           plusw1	equ	0xFE3
  3223                           fsr1h	equ	0xFE2
  3224                           fsr1l	equ	0xFE1
  3225                           bsr	equ	0xFE0
  3226                           indf2	equ	0xFDF
  3227                           postinc2	equ	0xFDE
  3228                           postdec2	equ	0xFDD
  3229                           preinc2	equ	0xFDC
  3230                           plusw2	equ	0xFDB
  3231                           fsr2h	equ	0xFDA
  3232                           fsr2l	equ	0xFD9
  3233                           status	equ	0xFD8

Data Sizes:
    Strings     0
    Constant    17
    Data        1
    BSS         83
    Persistent  0
    Stack       0

Auto Spaces:
    Space          Size  Autos    Used
    COMRAM           94     27      79
    BANK0           160      9      41
    BANK1           256      0       0
    BANK2           256      0       0
    BANK3           256      0       0
    BANK4           256      0       0
    BANK5           256      0       0
    BANK6           256      0       0
    BANK7           256      0       0
    BANK8           256      0       0
    BANK9           256      0       0
    BANK10          256      0       0
    BANK11          256      0       0
    BANK12          256      0       0
    BANK13          256      0       0
    BANK14          256      0       0
    BANK15           56      0       0

Pointer List with Targets:

    cikanListesi.is	PTR FTN(PTR void ,)unsigned char  size(2) Largest target is 0
		 -> gostergeTara(), gostergeDegerleriGuncelle(), uretici2(), uretici1(), 

    is$0	PTR void  size(2) Largest target is 24
		 -> gorevHeap(BANK0[24]), NULL(NULL[0]), 

    S388$1$0	PTR void  size(2) Largest target is 24
		 -> gorevHeap(BANK0[24]), NULL(NULL[0]), 

    ?_gorevOlustur.is	PTR FTN(PTR void ,)unsigned char  size(2) Largest target is 1
		 -> gostergeTara(), gostergeDegerleriGuncelle(), uretici2(), uretici1(), 

    gostergeTara@tutucu.is	PTR FTN(PTR void ,)unsigned char  size(2) Largest target is 1
		 -> gostergeTara(), gostergeDegerleriGuncelle(), uretici2(), uretici1(), 

    gostergeTara@tutucu	PTR void  size(2) Largest target is 24
		 -> gorevHeap(BANK0[24]), NULL(NULL[0]), 

    gostergeDegerleriGuncelle@tutucu.is	PTR FTN(PTR void ,)unsigned char  size(2) Largest target is 1
		 -> gostergeTara(), gostergeDegerleriGuncelle(), uretici2(), uretici1(), 

    gostergeDegerleriGuncelle@tutucu	PTR void  size(2) Largest target is 24
		 -> gorevHeap(BANK0[24]), NULL(NULL[0]), 

    uretici2@tutucu.is	PTR FTN(PTR void ,)unsigned char  size(2) Largest target is 1
		 -> gostergeTara(), gostergeDegerleriGuncelle(), uretici2(), uretici1(), 

    uretici2@tutucu	PTR void  size(2) Largest target is 24
		 -> gorevHeap(BANK0[24]), NULL(NULL[0]), 

    uretici1@tutucu.is	PTR FTN(PTR void ,)unsigned char  size(2) Largest target is 1
		 -> gostergeTara(), gostergeDegerleriGuncelle(), uretici2(), uretici1(), 

    uretici1@tutucu	PTR void  size(2) Largest target is 24
		 -> gorevHeap(BANK0[24]), NULL(NULL[0]), 

    kuyruk1.veri	PTR unsigned char  size(1) Largest target is 8
		 -> k1(BANK0[8]), 

    uckuyrukKalanKapasite@kuyruk.veri	PTR unsigned char  size(1) Largest target is 8
		 -> k1(BANK0[8]), 

    uckuyrukBos@kuyruk.veri	PTR unsigned char  size(1) Largest target is 8
		 -> k1(BANK0[8]), 

    uckuyrukBos@kuyruk	PTR struct . size(1) Largest target is 6
		 -> kuyruk1(COMRAM[4]), 

    uckuyrukDolu@kuyruk.veri	PTR unsigned char  size(1) Largest target is 8
		 -> k1(BANK0[8]), 

    uckuyrukDolu@kuyruk	PTR struct . size(1) Largest target is 6
		 -> kuyruk1(COMRAM[4]), 

    uckuyrukKacOgeVar@kuyruk.veri	PTR unsigned char  size(1) Largest target is 8
		 -> k1(BANK0[8]), 

    uckuyrukCokluAl@kuyruk.veri	PTR unsigned char  size(1) Largest target is 8
		 -> k1(BANK0[8]), 

    uckuyrukKuyruktanAl@kuyruk.veri	PTR unsigned char  size(1) Largest target is 8
		 -> k1(BANK0[8]), 

    uckuyrukKuyruktanAl@kuyruk	PTR struct . size(1) Largest target is 6
		 -> kuyruk1(COMRAM[4]), 

    uckuyrukBastakiOge@kuyruk.veri	PTR unsigned char  size(1) Largest target is 8
		 -> k1(BANK0[8]), 

    uckuyrukCokluKuyrukla@kuyruk.veri	PTR unsigned char  size(1) Largest target is 8
		 -> k1(BANK0[8]), 

    uckuyrukKuyrukla@kuyruk.veri	PTR unsigned char  size(1) Largest target is 8
		 -> k1(BANK0[8]), 

    uckuyrukKuyrukla@kuyruk	PTR struct . size(1) Largest target is 6
		 -> kuyruk1(COMRAM[4]), 

    uckuyrukIlkle@veri	PTR unsigned char  size(1) Largest target is 8
		 -> k1(BANK0[8]), 

    S489$veri	PTR unsigned char  size(1) Largest target is 8
		 -> k1(BANK0[8]), 

    uckuyrukIlkle@kuyruk.veri	PTR unsigned char  size(1) Largest target is 8
		 -> k1(BANK0[8]), 

    uckuyrukIlkle@kuyruk	PTR struct . size(1) Largest target is 6
		 -> kuyruk1(COMRAM[4]), 

    sp__gorevBlogunuAl	PTR struct . size(2) Largest target is 24
		 -> gorevHeap(BANK0[24]), NULL(NULL[0]), 

    gorevHeap.is	PTR FTN(PTR void ,)unsigned char  size(2) Largest target is 1
		 -> gostergeTara(), gostergeDegerleriGuncelle(), uretici2(), uretici1(), 

    cikanListesi	PTR struct .[2] size(2) Largest target is 24
		 -> gorevHeap(BANK0[24]), NULL(NULL[0]), 

    gorevciyiBaslat@glo	PTR struct . size(2) Largest target is 24
		 -> gorevHeap(BANK0[24]), NULL(NULL[0]), 

    calisanListesi.is	PTR FTN(PTR void ,)unsigned char  size(2) Largest target is 1
		 -> gostergeTara(), gostergeDegerleriGuncelle(), uretici2(), uretici1(), 

    sp__gorevOlustur.is	PTR FTN(PTR void ,)unsigned char  size(2) Largest target is 1
		 -> gostergeTara(), gostergeDegerleriGuncelle(), uretici2(), uretici1(), 

    calisanListesi	PTR struct .[6] size(2) Largest target is 24
		 -> gorevHeap(BANK0[24]), NULL(NULL[0]), 

    gorevOlustur@gkb.is	PTR FTN(PTR void ,)unsigned char  size(2) Largest target is 1
		 -> gostergeTara(), gostergeDegerleriGuncelle(), uretici2(), uretici1(), 

    gorevOlustur@is	PTR FTN(PTR void ,)unsigned char  size(2) Largest target is 1
		 -> gostergeTara(), gostergeDegerleriGuncelle(), uretici2(), uretici1(), 

    gorevOlustur@gkb	PTR struct . size(1) Largest target is 24
		 -> gorevHeap(BANK0[24]), 

    sp__gorevOlustur	PTR struct . size(2) Largest target is 24
		 -> gorevHeap(BANK0[24]), NULL(NULL[0]), 

    listedenSil@liste.is	PTR FTN(PTR void ,)unsigned char  size(2) Largest target is 1
		 -> gostergeTara(), gostergeDegerleriGuncelle(), uretici2(), uretici1(), 

    listedenSil@liste	PTR PTR struct . size(1) Largest target is 12
		 -> calisanListesi(COMRAM[12]), 

    listedenSil@sayim	PTR unsigned char  size(1) Largest target is 1
		 -> calisanSayimi(COMRAM[1]), 

    S388$is	PTR FTN(PTR void ,)unsigned char  size(2) Largest target is 1
		 -> gostergeTara(), gostergeDegerleriGuncelle(), uretici2(), uretici1(), 

    listeyeEkle@liste.is	PTR FTN(PTR void ,)unsigned char  size(2) Largest target is 1
		 -> gostergeTara(), gostergeDegerleriGuncelle(), uretici2(), uretici1(), 

    listeyeEkle@glo	PTR struct . size(2) Largest target is 24
		 -> gorevHeap(BANK0[24]), NULL(NULL[0]), 

    listeyeEkle@liste	PTR PTR struct . size(1) Largest target is 12
		 -> cikanListesi(COMRAM[4]), calisanListesi(COMRAM[12]), 

    listeyeEkle@sayim	PTR unsigned char  size(1) Largest target is 1
		 -> cikanSayimi(COMRAM[1]), calisanSayimi(COMRAM[1]), 

    sisTimerIlkle@isleyici	PTR FTN()void  size(2) Largest target is 1
		 -> sisTikKesmeIsleyici(), 

    sisTimerDisIsleyici	PTR FTN()void  size(2) Largest target is 2
		 -> Absolute function(), sisTikKesmeIsleyici(), sisTimerIlkle@isleyici(COMRAM[2]), sisTimerIsleyiciVarsayilan(), 

    uartRxKesmeIsleyici	PTR FTN()void  size(2) Largest target is 1
		 -> Absolute function(), 

    uartTxKesmeIsleyici	PTR FTN()void  size(2) Largest target is 1
		 -> Absolute function(), 

    timer0KesmeIsleyiciKur@isleyici	PTR FTN()void  size(2) Largest target is 1
		 -> sisTimerKesmeIsleyici(), 

    timer0KesmeIsleyici	PTR FTN()void  size(2) Largest target is 1
		 -> Absolute function(), sisTimerKesmeIsleyici(), 


Critical Paths under _main in COMRAM

    _sisTimerIlkle->_timer0KesmeIsleyiciKur
    _gorevciyiBaslat->_gostergeTara
    _gorevciyiBaslat->_uretici1
    _gorevciyiBaslat->_uretici2
    _uretici2->_uckuyrukKuyrukla
    _uretici1->_uckuyrukKuyrukla
    _uckuyrukKuyrukla->_uckuyrukDolu
    _uckuyrukKuyruktanAl->_uckuyrukBos
    _gorevOlustur->_listeyeEkle

Critical Paths under _interruptYonetici in COMRAM

    None.

Critical Paths under _main in BANK0

    _portGorevciyiBaslat->_gorevciyiBaslat
    _gorevciyiBaslat->_gostergeDegerleriGuncelle

Critical Paths under _interruptYonetici in BANK0

    None.

Critical Paths under _main in BANK1

    None.

Critical Paths under _interruptYonetici in BANK1

    None.

Critical Paths under _main in BANK2

    None.

Critical Paths under _interruptYonetici in BANK2

    None.

Critical Paths under _main in BANK3

    None.

Critical Paths under _interruptYonetici in BANK3

    None.

Critical Paths under _main in BANK4

    None.

Critical Paths under _interruptYonetici in BANK4

    None.

Critical Paths under _main in BANK5

    None.

Critical Paths under _interruptYonetici in BANK5

    None.

Critical Paths under _main in BANK6

    None.

Critical Paths under _interruptYonetici in BANK6

    None.

Critical Paths under _main in BANK7

    None.

Critical Paths under _interruptYonetici in BANK7

    None.

Critical Paths under _main in BANK8

    None.

Critical Paths under _interruptYonetici in BANK8

    None.

Critical Paths under _main in BANK9

    None.

Critical Paths under _interruptYonetici in BANK9

    None.

Critical Paths under _main in BANK10

    None.

Critical Paths under _interruptYonetici in BANK10

    None.

Critical Paths under _main in BANK11

    None.

Critical Paths under _interruptYonetici in BANK11

    None.

Critical Paths under _main in BANK12

    None.

Critical Paths under _interruptYonetici in BANK12

    None.

Critical Paths under _main in BANK13

    None.

Critical Paths under _interruptYonetici in BANK13

    None.

Critical Paths under _main in BANK14

    None.

Critical Paths under _interruptYonetici in BANK14

    None.

Critical Paths under _main in BANK15

    None.

Critical Paths under _interruptYonetici in BANK15

    None.

Call Graph Tables:

 ---------------------------------------------------------------------------------
 (Depth) Function   	        Calls       Base Space   Used Autos Params    Refs
 ---------------------------------------------------------------------------------
 (0) _main                                                 0     0      0    8671
                       _gorevOlustur
                _portGorevciyiBaslat
                   _sisOsilatorIlkle
                      _uckuyrukIlkle
 ---------------------------------------------------------------------------------
 (1) _uckuyrukIlkle                                        3     1      2     284
                                             14 COMRAM     3     1      2
 ---------------------------------------------------------------------------------
 (1) _sisOsilatorIlkle                                     0     0      0       0
 ---------------------------------------------------------------------------------
 (1) _portGorevciyiBaslat                                  0     0      0    6953
                    _gorevciyiBaslat
                     _interruptIlkle
                      _sisTimerIlkle
 ---------------------------------------------------------------------------------
 (2) _sisTimerIlkle                                        2     0      2     220
                                             16 COMRAM     2     0      2
             _timer0KesmeIsleyiciKur
 ---------------------------------------------------------------------------------
 (3) _timer0KesmeIsleyiciKur                               2     0      2      98
                                             14 COMRAM     2     0      2
 ---------------------------------------------------------------------------------
 (2) _interruptIlkle                                       0     0      0       0
 ---------------------------------------------------------------------------------
 (2) _gorevciyiBaslat                                      6     6      0    6733
                                              3 BANK0      6     6      0
          _gostergeDegerleriGuncelle *
                       _gostergeTara *
                        _listedenSil
                        _listeyeEkle
                           _uretici1 *
                           _uretici2 *
 ---------------------------------------------------------------------------------
 (3) _uretici2                                             5     3      2    1575
                                             22 COMRAM     5     3      2
                        _uckuyrukBos
                   _uckuyrukKuyrukla
 ---------------------------------------------------------------------------------
 (3) _uretici1                                             5     3      2    1516
                                             22 COMRAM     5     3      2
                       _uckuyrukDolu
                   _uckuyrukKuyrukla
 ---------------------------------------------------------------------------------
 (4) _uckuyrukKuyrukla                                     5     3      2    1048
                                             17 COMRAM     5     3      2
                       _uckuyrukDolu
 ---------------------------------------------------------------------------------
 (5) _uckuyrukDolu                                         3     2      1     242
                                             14 COMRAM     3     2      1
 ---------------------------------------------------------------------------------
 (3) _listedenSil                                         14    11      3     868
                                             14 COMRAM    11     8      3
 ---------------------------------------------------------------------------------
 (3) _gostergeTara                                         5     3      2     291
                                             22 COMRAM     5     3      2
                      _tikSayiminiAl
 ---------------------------------------------------------------------------------
 (3) _gostergeDegerleriGuncelle                            7     5      2    1314
                                             22 COMRAM     4     2      2
                                              0 BANK0      3     3      0
                      _tikSayiminiAl
                        _uckuyrukBos
                _uckuyrukKuyruktanAl
 ---------------------------------------------------------------------------------
 (4) _uckuyrukKuyruktanAl                                  4     3      1     713
                                             15 COMRAM     4     3      1
                        _uckuyrukBos
 ---------------------------------------------------------------------------------
 (4) _uckuyrukBos                                          1     0      1     301
                                             14 COMRAM     1     0      1
 ---------------------------------------------------------------------------------
 (4) _tikSayiminiAl                                        4     2      2      34
                                             14 COMRAM     4     2      2
 ---------------------------------------------------------------------------------
 (1) _gorevOlustur                                         3     1      2    1434
                                             20 COMRAM     3     1      2
                        _listeyeEkle
 ---------------------------------------------------------------------------------
 (3) _listeyeEkle                                          6     1      5     940
                                             14 COMRAM     6     1      5
 ---------------------------------------------------------------------------------
 Estimated maximum stack depth 5
 ---------------------------------------------------------------------------------
 (Depth) Function   	        Calls       Base Space   Used Autos Params    Refs
 ---------------------------------------------------------------------------------
 (6) _interruptYonetici                                   14    14      0       0
                                              0 COMRAM    14    14      0
                   Absolute function *
              _sisTimerKesmeIsleyici *
 ---------------------------------------------------------------------------------
 (7) _sisTimerKesmeIsleyici                                0     0      0       0
                   Absolute function *
                _sisTikKesmeIsleyici *
         _sisTimerIsleyiciVarsayilan *
 ---------------------------------------------------------------------------------
 (8) _sisTimerIsleyiciVarsayilan                           0     0      0       0
 ---------------------------------------------------------------------------------
 (8) _sisTikKesmeIsleyici                                  0     0      0       0
 ---------------------------------------------------------------------------------
 (8) Absolute function(Fake)                               0     0      0       0
 ---------------------------------------------------------------------------------
 Estimated maximum stack depth 8
 ---------------------------------------------------------------------------------

 Call Graph Graphs:

 _main (ROOT)
   _gorevOlustur
     _listeyeEkle
   _portGorevciyiBaslat
     _gorevciyiBaslat
       _gostergeDegerleriGuncelle *
         _tikSayiminiAl
         _uckuyrukBos
         _uckuyrukKuyruktanAl
           _uckuyrukBos
       _gostergeTara *
         _tikSayiminiAl
       _listedenSil *
       _listeyeEkle *
       _uretici1 *
         _uckuyrukDolu
         _uckuyrukKuyrukla
           _uckuyrukDolu
       _uretici2 *
         _uckuyrukBos
         _uckuyrukKuyrukla
           _uckuyrukDolu
     _interruptIlkle
     _sisTimerIlkle
       _timer0KesmeIsleyiciKur
   _sisOsilatorIlkle
   _uckuyrukIlkle

 _interruptYonetici (ROOT)
   Absolute function(Fake) *
   _sisTimerKesmeIsleyici *
     Absolute function(Fake) *
     _sisTikKesmeIsleyici *
     _sisTimerIsleyiciVarsayilan *

 Address spaces:
Name               Size   Autos  Total    Cost      Usage
BIGRAM             F37      0       0      37        0.0%
EEDATA             400      0       0       0        0.0%
BITBANK14          100      0       0      33        0.0%
BANK14             100      0       0      34        0.0%
BITBANK13          100      0       0      31        0.0%
BANK13             100      0       0      32        0.0%
BITBANK12          100      0       0      29        0.0%
BANK12             100      0       0      30        0.0%
BITBANK11          100      0       0      27        0.0%
BANK11             100      0       0      28        0.0%
BITBANK10          100      0       0      25        0.0%
BANK10             100      0       0      26        0.0%
BITBANK9           100      0       0      23        0.0%
BANK9              100      0       0      24        0.0%
BITBANK8           100      0       0      21        0.0%
BANK8              100      0       0      22        0.0%
BITBANK7           100      0       0      19        0.0%
BANK7              100      0       0      20        0.0%
BITBANK6           100      0       0      17        0.0%
BANK6              100      0       0      18        0.0%
BITBANK5           100      0       0      15        0.0%
BANK5              100      0       0      16        0.0%
BITBANK4           100      0       0      13        0.0%
BANK4              100      0       0      14        0.0%
BITBANK3           100      0       0      10        0.0%
BANK3              100      0       0      11        0.0%
BITBANK2           100      0       0       8        0.0%
BANK2              100      0       0       9        0.0%
BITBANK1           100      0       0       6        0.0%
BANK1              100      0       0       7        0.0%
BITBANK0            A0      0       0       4        0.0%
BANK0               A0      9      29       5       25.6%
BITCOMRAM           5E      0       0       0        0.0%
COMRAM              5E     1B      4F       1       84.0%
BITBANK15           38      0       0      35        0.0%
BANK15              38      0       0      36        0.0%
BITSFR_1             0      0       0     200        0.0%
SFR_1                0      0       0     200        0.0%
BITSFR               0      0       0     200        0.0%
SFR                  0      0       0     200        0.0%
STACK                0      0       0       2        0.0%
NULL                 0      0       0       0        0.0%
ABS                  0      0      78      12        0.0%
DATA                 0      0      78       3        0.0%
CODE                 0      0       0       0        0.0%


Microchip Technology PIC18 Macro Assembler V2.31 build 20201012212115 
Symbol Table                                                                                   Sun May  9 22:40:49 2021

                                  _k1 0078                __end_of_interruptIlkle 18FC  
                   ??_gorevciyiBaslat 0083                    tikSayiminiAl@sayim 0044  
                                 l129 1512                                   l270 1378  
                                 l292 144E                                   u980 186C  
                                 tosl 000FFD                                   wreg 000FE8  
                    _sisOsilatorIlkle 18DA                                  l2210 1614  
                                l2220 1648                                  l2036 1798  
                                l2038 17A0                                  l2234 1684  
                                l2402 1470                                  l2322 138C  
                                l2306 1356                                  l2244 16C8  
                                l2404 14AE                                  l2340 13D8  
                                l2332 1396                                  l2270 1508  
                                l2350 13E2                                  l2430 1246  
                                l2422 1224                                  l2414 1202  
                                l2502 108C                                  l2280 1552  
                                l2352 13F2                                  l2416 1212  
                                l2520 10DE                                  l2600 15F4  
                                l2370 142C                                  l2362 140E  
                                l2338 139A                                  l2442 1274  
                                l2434 1258                                  l2426 123C  
                                l2602 15F8                                  l2276 152C  
                                l2358 13FC                                  l2294 1326  
                                l2286 130C                                  l2454 12B2  
                                l2446 127E                                  l2438 1262  
                                l2470 12D0                                  l2542 1142  
                                l2526 10F6                                  l2616 1730  
                                l2288 131C                                  l2472 1302  
                                l2464 12CC                                  l2386 1462  
                                l2298 1338                                  l2562 11A0  
                                l2482 1016                                  l2396 146C  
                                l2580 11FC                                  l2572 11BA  
                                l2548 115A                                  l2484 1030  
                                l2590 1564                                  l2496 1070  
                                l2578 11BE                                  u1000 18D6  
                                u1120 1322                                  u1220 1220  
                                u1300 109E                                  u1170 13F8  
                                u1330 1102                                  u1270 1088  
                                _LATB 000F8A                                  _LATC 000F8B  
                                u1378 159C                                  u1379 15AE  
                                _RCIF 007CF5                                  i2l42 006E  
                                i2l46 0076                                  i2l39 0060  
                                _TMR0 000FD6                                  _TXIE 007CEC  
                                _TXIF 007CF4                                  _main 16DA  
                                fsr0h 000FEA                                  fsr1h 000FE2  
                                fsr2h 000FDA                                  fsr0l 000FE9  
                                indf2 000FDF                                  fsr1l 000FE1  
                                fsr2l 000FD9                                  btemp 0050  
                                prodh 000FF4                                  prodl 000FF3  
                                start 00B2                          ___param_bank 000000  
                 _uartTxKesmeIsleyici 0013                       ?_interruptIlkle 0034  
                               ?_main 0034    __size_of_gostergeDegerleriGuncelle 0106  
                               _T0CON 000FD5                                 _TRISB 000F93  
                               _TRISC 000F94           __end_of_portGorevciyiBaslat 18C2  
              uckuyrukKuyrukla@kuyruk 0045                ?_sisTimerKesmeIsleyici 0034  
                     ??_uckuyrukIlkle 0044                                 pclath 000FFA  
                 _sisTimerDisIsleyici 000F                                 tablat 000FF5  
     __size_of_timer0KesmeIsleyiciKur 000A                                 ttemp5 0051  
                               ttemp6 0054                                 ttemp7 0058  
                               status 000FD8                                 wtemp8 0051  
                     __initialization 17EC                          __end_of_main 1728  
                        ?_listedenSil 0042                uckuyrukKuyruktanAl@bas 0046  
                        ?_listeyeEkle 0042                                ??_main 004F  
                       __activetblptr 000003                        gostergeTara@s5 0001  
   __end_of_gostergeDegerleriGuncelle 1306                         ?_gorevOlustur 0048  
                              _ANSELB 000F39                                _ANSELC 000F3A  
        __size_of_sisTikKesmeIsleyici 0006                   _uckuyrukKuyruktanAl 1672  
                              _INTCON 000FF2                                _OSCCON 000FD3  
                              _TMR0IF 007F92           ?_sisTimerIsleyiciVarsayilan 0034  
           __size_of_uckuyrukKuyrukla 0070                   uckuyrukIlkle@kuyruk 0042  
               __end_of_tikSayiminiAl 18AA                  ?_uckuyrukKuyruktanAl 0043  
                    gorevciyiBaslat@s 0088                                clear_0 1804  
                              clear_1 1810                _timer0KesmeIsleyiciKur 18E8  
                        __pdataCOMRAM 004F                          __mediumconst 0000  
                              tblptrh 000FF7                                tblptrl 000FF6  
                              tblptru 000FF8                         ?_gostergeTara 004A  
                      ??_gorevOlustur 004A                      __end_of_uretici1 13DC  
                    __end_of_uretici2 14B2                        uretici1@tutucu 004A  
                        ?_uckuyrukBos 0042                        uretici2@tutucu 004A  
                          __accesstop 0060               __end_of__initialization 1816  
                       ___rparam_used 000001                       _gorevciyiBaslat 155C  
                      __pcstackCOMRAM 0034              __end_of_sisOsilatorIlkle 18E8  
                uckuyrukKuyrukla@veri 0046                 ??_uckuyrukKuyruktanAl 0044  
               __end_of_sisTimerIlkle 17B4                  uckuyrukKuyruktanAl@b 0045  
                      ??_gostergeTara 004C            _intconYedek@portmacro$F427 001B  
          _intconYedek@portmacro$F672 0019              uretici1@VAZGECIS_BAYRAGI 004E  
                        _cikanListesi 002E                          uretici1@cift 0017  
                          __pbssBANK0 0060                      ??_interruptIlkle 0042  
                __size_of_listedenSil 00AA                       gorevOlustur@gkb 004A  
             ??_sisTimerKesmeIsleyici 0034                  __size_of_listeyeEkle 0030  
                             _OSCCON2 000FD2                               i2u44_48 187C  
                             _OSCTUNE 000F9B                               i2u48_48 004E  
          gostergeDegerleriGuncelle@b 0081                      listedenSil@liste 0042  
                    listedenSil@konum 0044               __end_of_gorevciyiBaslat 1602  
                    listedenSil@sayim 0043                  gorevciyiBaslat@donus 0087  
                             __Hparam 0000                      _uckuyrukKuyrukla 1602  
                             __Lparam 0000                  __end_of_gorevOlustur 1774  
                        __psmallconst 1000                   _sisTikKesmeIsleyici 18F2  
                           ?_uretici1 004A                             ?_uretici2 004A  
                             __pcinit 17EC                               __ramtop 1000  
                             __ptext0 16DA                               __ptext1 17B4  
                             __ptext2 18DA                               __ptext3 18AA  
                             __ptext4 1774                               __ptext5 18E8  
                             __ptext6 18F8                               __ptext7 155C  
                             __ptext8 1014                               __ptext9 1200  
                           _T0CONbits 000FD5        timer0KesmeIsleyiciKur@isleyici 0042  
                             _kuyruk1 002A                  end_of_initialization 1816  
                ?_sisTikKesmeIsleyici 0034                 __end_of_uckuyrukIlkle 17EC  
        __size_of_portGorevciyiBaslat 0018                  __size_of_uckuyrukBos 0018  
                __end_of_gostergeTara 1200              uretici2@VAZGECIS_BAYRAGI 004E  
                             postdec1 000FE5                               postdec2 000FDD  
             ?_timer0KesmeIsleyiciKur 0042                               postinc0 000FEE  
                             postinc1 000FE6                               postinc2 000FDE  
                       _calisanSayimi 0033                            ??_uretici1 004C  
                          ??_uretici2 004C                         ?_uckuyrukDolu 0042  
          ?_gostergeDegerleriGuncelle 004A                 ??_sisTikKesmeIsleyici 0034  
                    ?_gorevciyiBaslat 0034                   _uartRxKesmeIsleyici 0011  
      __end_of_timer0KesmeIsleyiciKur 18F2                     ?_sisOsilatorIlkle 0034  
                       __pidataCOMRAM 18FE                 uckuyrukKuyrukla@konum 0049  
               uckuyrukKuyrukla@sayim 0047                    ??_sisOsilatorIlkle 0042  
                  uckuyrukDolu@kuyruk 0042                        ??_uckuyrukDolu 0043  
                 start_initialization 17EC                __size_of_tikSayiminiAl 001C  
                  gostergeTara@tutucu 004A                 __size_of_gorevOlustur 004C  
         __end_of_uckuyrukKuyruktanAl 16DA       gostergeDegerleriGuncelle@tutucu 004A  
                         __pbssCOMRAM 0001        __size_of_sisTimerKesmeIsleyici 001E  
            __end_of_uckuyrukKuyrukla 1672                         __pcstackBANK0 0080  
       __end_of_sisTimerKesmeIsleyici 188E                   uckuyrukKuyrukla@kap 0048  
                        _gorevOlustur 1728                          listedenSil@k 004C  
               __size_of_gostergeTara 01EC                           _cikanSayimi 0032  
              __size_of_sisTimerIlkle 0040                           uretici2@tek 004F  
                           __pintcode 0008                     listeyeEkle@cSayim 0047  
                       ??_listedenSil 0045                        gorevOlustur@is 0048  
                       _tikSayiminiAl 188E                         ??_listeyeEkle 0047  
                 _portGorevciyiBaslat 18AA                     __size_of_uretici1 00D6  
                   __size_of_uretici2 00D6                     _interruptYonetici 0008  
                         __smallconst 1000                    ?_interruptYonetici 0034  
                        _gostergeTara 1014                             _gorevHeap 0060  
                      listeyeEkle@glo 0045                        listeyeEkle@max 0044  
                 ??_interruptYonetici 0034                  ?_portGorevciyiBaslat 0034  
                            _LATBbits 000F8A                  __end_of_uckuyrukDolu 1870  
                            _PIE1bits 000F9D                             _tikSayimi 000D  
                            _PIR1bits 000F9E          ??_sisTimerIsleyiciVarsayilan 0034  
                            _RCONbits 000FD0                        ?_tikSayiminiAl 0042  
                   uckuyrukBos@kuyruk 0042                     listedenSil@cSayim 004B  
           __end_of_interruptYonetici 00B2                         _sisTimerIlkle 1774  
         gostergeDegerleriGuncelle@s2 0005               __size_of_interruptIlkle 0004  
                 __end_of_listedenSil 155C                   __end_of_listeyeEkle 1850  
         ??_gostergeDegerleriGuncelle 004C                         ??_uckuyrukBos 0043  
 __size_of_sisTimerIsleyiciVarsayilan 0002                 ??_portGorevciyiBaslat 004F  
                            __Hrparam 0000  __end_ofgostergeTara@BCDdenOrtakAnoda 1012  
        gostergeTara@BCDdenOrtakAnoda 1001                              __Lrparam 0000  
                   uckuyrukIlkle@veri 0043             uckuyrukKuyruktanAl@kuyruk 0043  
                      ?_sisTimerIlkle 0044                           _gorevSayimi 001A  
              __size_of_uckuyrukIlkle 0038           __end_of_sisTikKesmeIsleyici 18F8  
                            __ptext10 1306                              __ptext11 13DC  
                            __ptext12 1602                              __ptext21 1870  
                            __ptext13 1850                              __ptext22 18F2  
                            __ptext14 14B2                              __ptext23 18FC  
                            __ptext15 1672                              __ptext24 0000  
                            __ptext16 18C2                              __ptext17 188E  
                            __ptext18 1728                              __ptext19 1820  
           __size_of_sisOsilatorIlkle 000E                      listeyeEkle@liste 0042  
                    listeyeEkle@sayim 0043                    gorevciyiBaslat@glo 0085  
                         _intconYedek 001C                         __size_of_main 004E  
                            _gosterge 0009                   __end_of_uckuyrukBos 18DA  
           _gostergeDegerleriGuncelle 1200                       ??_tikSayiminiAl 0044  
            __size_of_gorevciyiBaslat 00A6                           _tmr0OnDeger 001D  
                            int$flags 0050                           _listedenSil 14B2  
                            _uretici1 1306                              _uretici2 13DC  
          __size_of_interruptYonetici 00AA                           _listeyeEkle 1820  
                          _INTCONbits 000FF2                      uckuyrukIlkle@kap 0044  
                   ?_uckuyrukKuyrukla 0045                   _timer0KesmeIsleyici 0015  
                  ??_uckuyrukKuyrukla 0047                 __size_of_uckuyrukDolu 0020  
                            intlevel2 0000                         _uckuyrukIlkle 17B4  
  __end_of_sisTimerIsleyiciVarsayilan 18FE            _sisTimerIsleyiciVarsayilan 18FC  
                     ??_sisTimerIlkle 0046          __size_of_uckuyrukKuyruktanAl 0068  
                      _calisanListesi 001E                         _kuyruk1Erisim 0018  
               sisTimerIlkle@isleyici 0044                        _interruptIlkle 18F8  
                        _uckuyrukDolu 1850                 _sisTimerKesmeIsleyici 1870  
                         _uckuyrukBos 18C2              ??_timer0KesmeIsleyiciKur 0044  
                      ?_uckuyrukIlkle 0042  
