

Microchip MPLAB XC8 Assembler V2.31 build 20201012212115 
                                                                                               Fri May  7 00:32:51 2021

Microchip MPLAB XC8 C Compiler v2.31 (Free license) build 20201012212115 Og9 
     1                           	processor	18F46K22
     2                           	fnconf	rparam,??,?,0
     3                           	pagewidth 120
     4                           	opt	flic
     5                           	psect	smallconst,global,reloc=2,class=SMALLCONST,delta=1,noexec
     6                           	psect	cinit,global,reloc=2,class=CODE,delta=1
     7                           	psect	bssCOMRAM,global,class=COMRAM,space=1,delta=1,lowdata,noexec
     8                           	psect	cstackBANK0,global,class=BANK0,space=1,delta=1,lowdata,noexec
     9                           	psect	cstackCOMRAM,global,class=COMRAM,space=1,delta=1,lowdata,noexec
    10                           	psect	text0,global,reloc=2,class=CODE,delta=1
    11                           	psect	text1,global,reloc=2,class=CODE,delta=1
    12                           	psect	text2,global,reloc=2,class=CODE,delta=1
    13                           	psect	text3,global,reloc=2,class=CODE,delta=1
    14                           	psect	text4,global,reloc=2,class=CODE,delta=1
    15                           	psect	text5,global,reloc=2,class=CODE,delta=1
    16                           	psect	text6,global,reloc=2,class=CODE,delta=1
    17                           	psect	text7,global,reloc=2,class=CODE,delta=1
    18                           	psect	text8,global,reloc=2,class=CODE,delta=1
    19                           	psect	text9,global,reloc=2,class=CODE,delta=1
    20                           	psect	text10,global,reloc=2,class=CODE,delta=1
    21                           	psect	text11,global,reloc=2,class=CODE,delta=1
    22                           	psect	text12,global,reloc=2,class=CODE,delta=1,group=1
    23                           	psect	intcode,global,reloc=2,class=CODE,delta=1
    24                           	psect	text14,global,reloc=2,class=CODE,delta=1
    25                           	psect	text15,global,reloc=2,class=CODE,delta=1
    26                           	psect	text16,global,reloc=2,class=CODE,delta=1
    27                           	psect	intsave_regs,global,class=BIGRAM,space=1,delta=1,noexec
    28                           	psect	text17,global,reloc=2,class=CODE,delta=1
    29                           	psect	rparam,global,class=COMRAM,space=1,delta=1,noexec
    30                           	psect	temp,global,ovrld,common,class=COMRAM,space=1,delta=1
    31                           	psect	idloc,global,abs,ovrld,class=IDLOC,space=5,delta=1,noexec
    32                           	psect	config,global,abs,ovrld,class=CONFIG,space=4,delta=1,noexec
    33  0000                     
    34                           ; Version 2.20
    35                           ; Generated 05/05/2020 GMT
    36                           ; 
    37                           ; Copyright © 2020, Microchip Technology Inc. and its subsidiaries ("Microchip")
    38                           ; All rights reserved.
    39                           ; 
    40                           ; This software is developed by Microchip Technology Inc. and its subsidiaries ("Microch
      +                          ip").
    41                           ; 
    42                           ; Redistribution and use in source and binary forms, with or without modification, are
    43                           ; permitted provided that the following conditions are met:
    44                           ; 
    45                           ;     1. Redistributions of source code must retain the above copyright notice, this lis
      +                          t of
    46                           ;        conditions and the following disclaimer.
    47                           ; 
    48                           ;     2. Redistributions in binary form must reproduce the above copyright notice, this 
      +                          list
    49                           ;        of conditions and the following disclaimer in the documentation and/or other
    50                           ;        materials provided with the distribution.
    51                           ; 
    52                           ;     3. Microchip's name may not be used to endorse or promote products derived from th
      +                          is
    53                           ;        software without specific prior written permission.
    54                           ; 
    55                           ; THIS SOFTWARE IS PROVIDED BY MICROCHIP "AS IS" AND ANY EXPRESS OR IMPLIED WARRANTIES,
    56                           ; INCLUDING, BUT NOT LIMITED TO, THE IMPLIED WARRANTIES OF MERCHANTABILITY AND FITNESS F
      +                          OR
    57                           ; PURPOSE ARE DISCLAIMED.  IN NO EVENT SHALL MICROCHIP BE LIABLE FOR ANY DIRECT, INDIREC
      +                          T,
    58                           ; INCIDENTAL, SPECIAL, EXEMPLARY, OR CONSEQUENTIAL DAMAGES (INCLUDING BUT NOT LIMITED TO
    59                           ; PROCUREMENT OF SUBSTITUTE GOODS OR SERVICES; LOSS OF USE, DATA OR PROFITS; OR BUSINESS
    60                           ; INTERRUPTION) HOWSOEVER CAUSED AND ON ANY THEORY OF LIABILITY, WHETHER IN CONTRACT, ST
      +                          RICT
    61                           ; LIABILITY, OR TORT (INCLUDING NEGLIGENCE OR OTHERWISE) ARISING IN ANY WAY OUT OF THE U
      +                          SE OF
    62                           ; THIS SOFTWARE, EVEN IF ADVISED OF THE POSSIBILITY OF SUCH DAMAGE.
    63                           ; 
    64                           ; 
    65                           ; Code-generator required, PIC18F46K22 Definitions
    66                           ; 
    67                           ; SFR Addresses
    68  0000                     
    69                           	psect	smallconst
    70  001000                     __psmallconst:
    71                           	callstack 0
    72  001000  00                 	db	0
    73  001001                     gostergeGuncelle@BCDdenOrtakAnoda:
    74                           	callstack 0
    75  001001  C0                 	db	192
    76  001002  F9                 	db	249
    77  001003  A4                 	db	164
    78  001004  B0                 	db	176
    79  001005  99                 	db	153
    80  001006  92                 	db	146
    81  001007  82                 	db	130
    82  001008  F8                 	db	248
    83  001009  80                 	db	128
    84  00100A  90                 	db	144
    85  00100B  88                 	db	136
    86  00100C  83                 	db	131
    87  00100D  C6                 	db	198
    88  00100E  A1                 	db	161
    89  00100F  86                 	db	134
    90  001010  8E                 	db	142
    91  001011  BF                 	db	191
    92  001012                     __end_ofgostergeGuncelle@BCDdenOrtakAnoda:
    93                           	callstack 0
    94  001012  0E                 	db	14
    95  001013                     __end_ofledCakarlama1@sonSira:
    96                           	callstack 0
    97  001013                     ledCakarlama1@sureler:
    98                           	callstack 0
    99  001013  0032               	dw	50
   100  001015  003C               	dw	60
   101  001017  0046               	dw	70
   102  001019  0050               	dw	80
   103  00101B  005A               	dw	90
   104  00101D  0064               	dw	100
   105  00101F  00C8               	dw	200
   106  001021  012C               	dw	300
   107  001023  0190               	dw	400
   108  001025  01F4               	dw	500
   109  001027  0258               	dw	600
   110  001029  02BC               	dw	700
   111  00102B  0320               	dw	800
   112  00102D  0384               	dw	900
   113  00102F  03E8               	dw	1000
   114  001031                     __end_ofledCakarlama1@sureler:
   115                           	callstack 0
   116  0000                     _ANSELB	set	3897
   117  0000                     _ANSELC	set	3898
   118  0000                     _ANSELD	set	3899
   119  0000                     _ANSELEbits	set	3900
   120  0000                     _TMR0	set	4054
   121  0000                     _LATBbits	set	3978
   122  0000                     _TRISB	set	3987
   123  0000                     _LATB	set	3978
   124  0000                     _TRISC	set	3988
   125  0000                     _LATC	set	3979
   126  0000                     _ADRESL	set	4035
   127  0000                     _ADRESH	set	4036
   128  0000                     _ADCON0bits	set	4034
   129  0000                     _TRISAbits	set	3986
   130  0000                     _ADCON1	set	4033
   131  0000                     _ADCON2	set	4032
   132  0000                     _PORTD	set	3971
   133  0000                     _TRISD	set	3989
   134  0000                     _LATD	set	3980
   135  0000                     _PORTEbits	set	3972
   136  0000                     _TRISEbits	set	3990
   137  0000                     _LATEbits	set	3981
   138  0000                     _INTCON	set	4082
   139  0000                     _OSCTUNE	set	3995
   140  0000                     _OSCCON2	set	4050
   141  0000                     _OSCCON	set	4051
   142  0000                     _T0CONbits	set	4053
   143  0000                     _T0CON	set	4053
   144  0000                     _PIR1bits	set	3998
   145  0000                     _PIE1bits	set	3997
   146  0000                     _INTCONbits	set	4082
   147  0000                     _RCONbits	set	4048
   148  0000                     _TXIF	set	31988
   149  0000                     _TXIE	set	31980
   150  0000                     _RCIF	set	31989
   151  0000                     _TMR0IF	set	32658
   152  001031  00                 	db	0	; dummy byte at the end
   153  0000                     
   154                           ; #config settings
   155                           
   156                           	psect	cinit
   157  00195A                     __pcinit:
   158                           	callstack 0
   159  00195A                     start_initialization:
   160                           	callstack 0
   161  00195A                     __initialization:
   162                           	callstack 0
   163                           
   164                           ; Clear objects allocated to COMRAM (49 bytes)
   165  00195A  EE00  F001         	lfsr	0,__pbssCOMRAM
   166  00195E  0E31               	movlw	49
   167  001960                     clear_0:
   168  001960  6AEE               	clrf	postinc0,c
   169  001962  06E8               	decf	wreg,f,c
   170  001964  E1FD               	bnz	clear_0
   171  001966                     end_of_initialization:
   172                           	callstack 0
   173  001966                     __end_of__initialization:
   174                           	callstack 0
   175  001966  904D               	bcf	int$flags,0,c	;clear compiler interrupt flag (level 1)
   176  001968  924D               	bcf	int$flags,1,c	;clear compiler interrupt flag (level 2)
   177  00196A  0100               	movlb	0
   178  00196C  EF0A  F00C         	goto	_main	;jump to C main() function
   179                           
   180                           	psect	bssCOMRAM
   181  000001                     __pbssCOMRAM:
   182                           	callstack 0
   183  000001                     gostergeGuncelle@s5:
   184                           	callstack 0
   185  000001                     	ds	4
   186  000005                     karaSimsekHiziOkuma@s4:
   187                           	callstack 0
   188  000005                     	ds	4
   189  000009                     karaSimsek@s3:
   190                           	callstack 0
   191  000009                     	ds	4
   192  00000D                     ledCakarlama2@s2:
   193                           	callstack 0
   194  00000D                     	ds	4
   195  000011                     ledCakarlama1@s1:
   196                           	callstack 0
   197  000011                     	ds	4
   198  000015                     _gosterge:
   199                           	callstack 0
   200  000015                     	ds	4
   201  000019                     karaSimsekHiziOkuma@oncekiSonuc:
   202                           	callstack 0
   203  000019                     	ds	2
   204  00001B                     _karaSimsekHizi:
   205                           	callstack 0
   206  00001B                     	ds	2
   207  00001D                     _gercekDeger:
   208                           	callstack 0
   209  00001D                     	ds	2
   210  00001F                     _tikSayimi:
   211                           	callstack 0
   212  00001F                     	ds	2
   213  000021                     _sisTimerDisIsleyici:
   214                           	callstack 0
   215  000021                     	ds	2
   216  000023                     _uartRxKesmeIsleyici:
   217                           	callstack 0
   218  000023                     	ds	2
   219  000025                     _uartTxKesmeIsleyici:
   220                           	callstack 0
   221  000025                     	ds	2
   222  000027                     _timer0KesmeIsleyici:
   223                           	callstack 0
   224  000027                     	ds	2
   225  000029                     karaSimsek@sola:
   226                           	callstack 0
   227  000029                     	ds	1
   228  00002A                     ledCakarlama1@artir:
   229                           	callstack 0
   230  00002A                     	ds	1
   231  00002B                     ledCakarlama1@secici:
   232                           	callstack 0
   233  00002B                     	ds	1
   234  00002C                     _gostergeDegeriHesaplandi:
   235                           	callstack 0
   236  00002C                     	ds	1
   237  00002D                     _karasimsekHiziOkundu:
   238                           	callstack 0
   239  00002D                     	ds	1
   240  00002E                     	ds	1
   241  00002F                     _intconYedek@portmacro$F371:
   242                           	callstack 0
   243  00002F                     	ds	1
   244  000030                     	ds	1
   245  000031                     	ds	1
   246                           
   247                           	psect	cstackBANK0
   248  000060                     __pcstackBANK0:
   249                           	callstack 0
   250  000060                     main@ksmsk:
   251                           	callstack 0
   252                           
   253                           ; 2 bytes @ 0x0
   254  000060                     	ds	2
   255  000062                     main@gdg:
   256                           	callstack 0
   257                           
   258                           ; 2 bytes @ 0x2
   259  000062                     	ds	2
   260  000064                     main@lc1:
   261                           	callstack 0
   262                           
   263                           ; 2 bytes @ 0x4
   264  000064                     	ds	2
   265  000066                     main@kho:
   266                           	callstack 0
   267                           
   268                           ; 2 bytes @ 0x6
   269  000066                     	ds	2
   270  000068                     main@gg:
   271                           	callstack 0
   272                           
   273                           ; 2 bytes @ 0x8
   274  000068                     	ds	2
   275  00006A                     main@lc2:
   276                           	callstack 0
   277                           
   278                           ; 2 bytes @ 0xA
   279  00006A                     	ds	2
   280                           
   281                           	psect	cstackCOMRAM
   282  000032                     __pcstackCOMRAM:
   283                           	callstack 0
   284  000032                     ??_interruptYonetici:
   285  000032                     
   286                           ; 1 bytes @ 0x0
   287  000032                     	ds	14
   288  000040                     ?_tikSayiminiAl:
   289                           	callstack 0
   290  000040                     ?___lwdiv:
   291                           	callstack 0
   292  000040                     timer0KesmeIsleyiciKur@isleyici:
   293                           	callstack 0
   294  000040                     ___lwdiv@dividend:
   295                           	callstack 0
   296                           
   297                           ; 2 bytes @ 0xE
   298  000040                     	ds	2
   299  000042                     sisTimerIlkle@isleyici:
   300                           	callstack 0
   301  000042                     tikSayiminiAl@sayim:
   302                           	callstack 0
   303  000042                     ___lwdiv@divisor:
   304                           	callstack 0
   305                           
   306                           ; 2 bytes @ 0x10
   307  000042                     	ds	2
   308  000044                     ledCakarlama1@tutucu:
   309                           	callstack 0
   310  000044                     ledCakarlama2@tutucu:
   311                           	callstack 0
   312  000044                     karaSimsek@tutucu:
   313                           	callstack 0
   314  000044                     gostergeGuncelle@tutucu:
   315                           	callstack 0
   316  000044                     ___lwdiv@counter:
   317                           	callstack 0
   318                           
   319                           ; 1 bytes @ 0x12
   320  000044                     	ds	1
   321  000045                     ??_ledCakarlama1:
   322  000045                     ??_ledCakarlama2:
   323  000045                     ??_karaSimsek:
   324  000045                     ??_gostergeGuncelle:
   325  000045                     ___lwdiv@quotient:
   326                           	callstack 0
   327                           
   328                           ; 2 bytes @ 0x13
   329  000045                     	ds	2
   330  000047                     karaSimsekHiziOkuma@tutucu:
   331                           	callstack 0
   332  000047                     gostergeDegeriGuncelle@tutucu:
   333                           	callstack 0
   334                           
   335                           ; 1 bytes @ 0x15
   336  000047                     	ds	1
   337  000048                     ??_karaSimsekHiziOkuma:
   338  000048                     ??_gostergeDegeriGuncelle:
   339                           
   340                           ; 1 bytes @ 0x16
   341  000048                     	ds	3
   342  00004B                     karaSimsekHiziOkuma@sonuc:
   343                           	callstack 0
   344  00004B                     gostergeDegeriGuncelle@olcekliDeger:
   345                           	callstack 0
   346                           
   347                           ; 2 bytes @ 0x19
   348  00004B                     	ds	2
   349  00004D                     
   350                           ; 1 bytes @ 0x1B
   351 ;;
   352 ;;Main: autosize = 0, tempsize = 0, incstack = 0, save=0
   353 ;;
   354 ;; *************** function _main *****************
   355 ;; Defined at:
   356 ;;		line 356 in file "ornek3.c"
   357 ;; Parameters:    Size  Location     Type
   358 ;;		None
   359 ;; Auto vars:     Size  Location     Type
   360 ;;  lc2             2   10[BANK0 ] struct .
   361 ;;  gg              2    8[BANK0 ] struct .
   362 ;;  kho             2    6[BANK0 ] struct .
   363 ;;  lc1             2    4[BANK0 ] struct .
   364 ;;  gdg             2    2[BANK0 ] struct .
   365 ;;  ksmsk           2    0[BANK0 ] struct .
   366 ;; Return value:  Size  Location     Type
   367 ;;                  1    wreg      void 
   368 ;; Registers used:
   369 ;;		wreg, fsr2l, fsr2h, status,2, status,0, tblptrl, tblptrh, tblptru, prodl, prodh, cstack
   370 ;; Tracked objects:
   371 ;;		On entry : 0/0
   372 ;;		On exit  : 0/0
   373 ;;		Unchanged: 0/0
   374 ;; Data sizes:     COMRAM   BANK0   BANK1   BANK2   BANK3   BANK4   BANK5   BANK6   BANK7   BANK8   BANK9  BANK10  BANK1
      +1  BANK12  BANK13  BANK14  BANK15
   375 ;;      Params:         0       0       0       0       0       0       0       0       0       0       0       0       
      +0       0       0       0       0
   376 ;;      Locals:         0      12       0       0       0       0       0       0       0       0       0       0       
      +0       0       0       0       0
   377 ;;      Temps:          0       0       0       0       0       0       0       0       0       0       0       0       
      +0       0       0       0       0
   378 ;;      Totals:         0      12       0       0       0       0       0       0       0       0       0       0       
      +0       0       0       0       0
   379 ;;Total ram usage:       12 bytes
   380 ;; Hardware stack levels required when called:    5
   381 ;; This function calls:
   382 ;;		_gostergeDegeriGuncelle
   383 ;;		_gostergeGuncelle
   384 ;;		_interruptIlkle
   385 ;;		_karaSimsek
   386 ;;		_karaSimsekHiziOkuma
   387 ;;		_ledCakarlama1
   388 ;;		_ledCakarlama2
   389 ;;		_sisOsilatorIlkle
   390 ;;		_sisTimerIlkle
   391 ;; This function is called by:
   392 ;;		Startup code after reset
   393 ;; This function uses a non-reentrant model
   394 ;;
   395                           
   396                           	psect	text0
   397  001814                     __ptext0:
   398                           	callstack 0
   399  001814                     _main:
   400                           	callstack 26
   401                           
   402                           ;ornek3.c: 358:     sisOsilatorIlkle();
   403                           
   404                           ;incstack = 0
   405  001814  ECB8  F00C         	call	_sisOsilatorIlkle	;wreg free
   406                           
   407                           ;ornek3.c: 361:  interruptIlkle();
   408  001818  ECC7  F00C         	call	_interruptIlkle	;wreg free
   409                           
   410                           ;ornek3.c: 364:  sisTimerIlkle(sisTikKesmeIsleyici);
   411  00181C  0E88               	movlw	low _sisTikKesmeIsleyici
   412  00181E  6E42               	movwf	sisTimerIlkle@isleyici^0,c
   413  001820  0E19               	movlw	high _sisTikKesmeIsleyici
   414  001822  6E43               	movwf	(sisTimerIlkle@isleyici+1)^0,c
   415  001824  EC70  F00C         	call	_sisTimerIlkle	;wreg free
   416                           
   417                           ;ornek3.c: 367:  INTCONbits.GIEH = 1;;
   418  001828  8EF2               	bsf	242,7,c	;volatile
   419                           
   420                           ;ornek3.c: 370:     gorev_t lc1, lc2, ksmsk, kho, gdg, gg;;ornek3.c: 372:     ( (gorev_t
      +                          *) &lc1 )->sn = 0;
   421  00182A  0E00               	movlw	0
   422  00182C  0100               	movlb	0	; () banked
   423  00182E  6F65               	movwf	(main@lc1+1)& (0+255),b
   424  001830  0E00               	movlw	0
   425  001832  6F64               	movwf	main@lc1& (0+255),b
   426                           
   427                           ; BSR set to: 0
   428                           ;ornek3.c: 373:     ( (gorev_t*) &lc2 )->sn = 0;
   429  001834  0E00               	movlw	0
   430  001836  6F6B               	movwf	(main@lc2+1)& (0+255),b
   431  001838  0E00               	movlw	0
   432  00183A  6F6A               	movwf	main@lc2& (0+255),b
   433                           
   434                           ; BSR set to: 0
   435                           ;ornek3.c: 374:     ( (gorev_t*) &ksmsk )->sn = 0;
   436  00183C  0E00               	movlw	0
   437  00183E  6F61               	movwf	(main@ksmsk+1)& (0+255),b
   438  001840  0E00               	movlw	0
   439  001842  6F60               	movwf	main@ksmsk& (0+255),b
   440                           
   441                           ; BSR set to: 0
   442                           ;ornek3.c: 375:     ( (gorev_t*) &kho )->sn = 0;
   443  001844  0E00               	movlw	0
   444  001846  6F67               	movwf	(main@kho+1)& (0+255),b
   445  001848  0E00               	movlw	0
   446  00184A  6F66               	movwf	main@kho& (0+255),b
   447                           
   448                           ; BSR set to: 0
   449                           ;ornek3.c: 376:     ( (gorev_t*) &gdg )->sn = 0;
   450  00184C  0E00               	movlw	0
   451  00184E  6F63               	movwf	(main@gdg+1)& (0+255),b
   452  001850  0E00               	movlw	0
   453  001852  6F62               	movwf	main@gdg& (0+255),b
   454                           
   455                           ; BSR set to: 0
   456                           ;ornek3.c: 377:     ( (gorev_t*) &gg )->sn = 0;
   457  001854  0E00               	movlw	0
   458  001856  6F69               	movwf	(main@gg+1)& (0+255),b
   459  001858  0E00               	movlw	0
   460  00185A  6F68               	movwf	main@gg& (0+255),b
   461  00185C                     l2758:
   462                           
   463                           ;ornek3.c: 381:         ledCakarlama1(&lc1);
   464  00185C  0E64               	movlw	low main@lc1
   465  00185E  6E44               	movwf	ledCakarlama1@tutucu^0,c
   466  001860  EC2E  F00A         	call	_ledCakarlama1	;wreg free
   467                           
   468                           ;ornek3.c: 382:         ledCakarlama2(&lc2);
   469  001864  0E6A               	movlw	low main@lc2
   470  001866  6E44               	movwf	ledCakarlama2@tutucu^0,c
   471  001868  EC19  F008         	call	_ledCakarlama2	;wreg free
   472                           
   473                           ;ornek3.c: 383:         karaSimsek(&ksmsk);
   474  00186C  0E60               	movlw	low main@ksmsk
   475  00186E  6E44               	movwf	karaSimsek@tutucu^0,c
   476  001870  ECB6  F00B         	call	_karaSimsek	;wreg free
   477                           
   478                           ;ornek3.c: 384:         karaSimsekHiziOkuma(&kho);
   479  001874  0E66               	movlw	low main@kho
   480  001876  6E47               	movwf	karaSimsekHiziOkuma@tutucu^0,c
   481  001878  ECCB  F00A         	call	_karaSimsekHiziOkuma	;wreg free
   482                           
   483                           ;ornek3.c: 385:         gostergeDegeriGuncelle(&gdg);
   484  00187C  0E62               	movlw	low main@gdg
   485  00187E  6E47               	movwf	gostergeDegeriGuncelle@tutucu^0,c
   486  001880  EC4A  F00B         	call	_gostergeDegeriGuncelle	;wreg free
   487                           
   488                           ;ornek3.c: 386:         gostergeGuncelle(&gg);
   489  001884  0E68               	movlw	low main@gg
   490  001886  6E44               	movwf	gostergeGuncelle@tutucu^0,c
   491  001888  EC3E  F009         	call	_gostergeGuncelle	;wreg free
   492  00188C  D7E7               	goto	l2758
   493  00188E                     __end_of_main:
   494                           	callstack 0
   495                           
   496 ;; *************** function _sisTimerIlkle *****************
   497 ;; Defined at:
   498 ;;		line 134 in file "sistimer.c"
   499 ;; Parameters:    Size  Location     Type
   500 ;;  isleyici        2   16[COMRAM] PTR FTN()void 
   501 ;;		 -> sisTikKesmeIsleyici(1), 
   502 ;; Auto vars:     Size  Location     Type
   503 ;;		None
   504 ;; Return value:  Size  Location     Type
   505 ;;                  1    wreg      void 
   506 ;; Registers used:
   507 ;;		wreg, status,2, status,0, cstack
   508 ;; Tracked objects:
   509 ;;		On entry : 0/0
   510 ;;		On exit  : 0/0
   511 ;;		Unchanged: 0/0
   512 ;; Data sizes:     COMRAM   BANK0   BANK1   BANK2   BANK3   BANK4   BANK5   BANK6   BANK7   BANK8   BANK9  BANK10  BANK1
      +1  BANK12  BANK13  BANK14  BANK15
   513 ;;      Params:         2       0       0       0       0       0       0       0       0       0       0       0       
      +0       0       0       0       0
   514 ;;      Locals:         0       0       0       0       0       0       0       0       0       0       0       0       
      +0       0       0       0       0
   515 ;;      Temps:          0       0       0       0       0       0       0       0       0       0       0       0       
      +0       0       0       0       0
   516 ;;      Totals:         2       0       0       0       0       0       0       0       0       0       0       0       
      +0       0       0       0       0
   517 ;;Total ram usage:        2 bytes
   518 ;; Hardware stack levels used:    1
   519 ;; Hardware stack levels required when called:    4
   520 ;; This function calls:
   521 ;;		_timer0KesmeIsleyiciKur
   522 ;; This function is called by:
   523 ;;		_main
   524 ;; This function uses a non-reentrant model
   525 ;;
   526                           
   527                           	psect	text1
   528  0018E0                     __ptext1:
   529                           	callstack 0
   530  0018E0                     _sisTimerIlkle:
   531                           	callstack 26
   532                           
   533                           ;sistimer.c: 135:     T0CON = 0;
   534                           
   535                           ;incstack = 0
   536  0018E0  0E00               	movlw	0
   537  0018E2  6ED5               	movwf	213,c	;volatile
   538                           
   539                           ;sistimer.c: 137:     T0CONbits.T08BIT = 0;
   540  0018E4  9CD5               	bcf	213,6,c	;volatile
   541                           
   542                           ;sistimer.c: 142:     T0CONbits.T0CS = 0;
   543  0018E6  9AD5               	bcf	213,5,c	;volatile
   544                           
   545                           ;sistimer.c: 145:     T0CONbits.PSA = 1;
   546  0018E8  86D5               	bsf	213,3,c	;volatile
   547                           
   548                           ;sistimer.c: 154:     TMR0 = (uint16_t) ((uint16_t)((65536)-((( 1000u - ( ( ( 52 ) * ( (
      +                           1 * ( 100 ) ) / ( (16000000 / 4 ) / 1000000 ) ) ) / ( 100 ) ) )* (16000000/1000000))/(4
      +                          *(1)))-1));
   549  0018EA  0EF0               	movlw	240
   550  0018EC  6ED7               	movwf	215,c	;volatile
   551  0018EE  0E93               	movlw	147
   552  0018F0  6ED6               	movwf	214,c	;volatile
   553                           
   554                           ;sistimer.c: 160:     sisTimerDisIsleyici = isleyici == ((void*)0) ? sisTimerIsleyiciVar
      +                          sayilan : isleyici;
   555  0018F2  5042               	movf	sisTimerIlkle@isleyici^0,w,c
   556  0018F4  1043               	iorwf	(sisTimerIlkle@isleyici+1)^0,w,c
   557  0018F6  B4D8               	btfsc	status,2,c
   558  0018F8  D005               	goto	l2334
   559  0018FA  C042  F021         	movff	sisTimerIlkle@isleyici,_sisTimerDisIsleyici
   560  0018FE  C043  F022         	movff	sisTimerIlkle@isleyici+1,_sisTimerDisIsleyici+1
   561  001902  D004               	goto	l2336
   562  001904                     l2334:
   563  001904  0E92               	movlw	low _sisTimerIsleyiciVarsayilan
   564  001906  6E21               	movwf	_sisTimerDisIsleyici^0,c
   565  001908  0E19               	movlw	high _sisTimerIsleyiciVarsayilan
   566  00190A  6E22               	movwf	(_sisTimerDisIsleyici+1)^0,c
   567  00190C                     l2336:
   568                           
   569                           ;sistimer.c: 162:     timer0KesmeIsleyiciKur(sisTimerKesmeIsleyici);
   570  00190C  0E20               	movlw	low _sisTimerKesmeIsleyici
   571  00190E  6E40               	movwf	timer0KesmeIsleyiciKur@isleyici^0,c
   572  001910  0E19               	movlw	high _sisTimerKesmeIsleyici
   573  001912  6E41               	movwf	(timer0KesmeIsleyiciKur@isleyici+1)^0,c
   574  001914  ECBF  F00C         	call	_timer0KesmeIsleyiciKur	;wreg free
   575                           
   576                           ;sistimer.c: 165:     INTCONbits.TMR0IF = 0;
   577  001918  94F2               	bcf	242,2,c	;volatile
   578                           
   579                           ;sistimer.c: 166:     INTCONbits.TMR0IE = 1;
   580  00191A  8AF2               	bsf	242,5,c	;volatile
   581                           
   582                           ;sistimer.c: 169:     T0CONbits.TMR0ON = 1;
   583  00191C  8ED5               	bsf	213,7,c	;volatile
   584  00191E  0012               	return		;funcret
   585  001920                     __end_of_sisTimerIlkle:
   586                           	callstack 0
   587                           
   588 ;; *************** function _timer0KesmeIsleyiciKur *****************
   589 ;; Defined at:
   590 ;;		line 38 in file "interrupt.c"
   591 ;; Parameters:    Size  Location     Type
   592 ;;  isleyici        2   14[COMRAM] PTR FTN()void 
   593 ;;		 -> sisTimerKesmeIsleyici(1), 
   594 ;; Auto vars:     Size  Location     Type
   595 ;;		None
   596 ;; Return value:  Size  Location     Type
   597 ;;                  1    wreg      void 
   598 ;; Registers used:
   599 ;;		wreg, status,2, status,0
   600 ;; Tracked objects:
   601 ;;		On entry : 0/0
   602 ;;		On exit  : 0/0
   603 ;;		Unchanged: 0/0
   604 ;; Data sizes:     COMRAM   BANK0   BANK1   BANK2   BANK3   BANK4   BANK5   BANK6   BANK7   BANK8   BANK9  BANK10  BANK1
      +1  BANK12  BANK13  BANK14  BANK15
   605 ;;      Params:         2       0       0       0       0       0       0       0       0       0       0       0       
      +0       0       0       0       0
   606 ;;      Locals:         0       0       0       0       0       0       0       0       0       0       0       0       
      +0       0       0       0       0
   607 ;;      Temps:          0       0       0       0       0       0       0       0       0       0       0       0       
      +0       0       0       0       0
   608 ;;      Totals:         2       0       0       0       0       0       0       0       0       0       0       0       
      +0       0       0       0       0
   609 ;;Total ram usage:        2 bytes
   610 ;; Hardware stack levels used:    1
   611 ;; Hardware stack levels required when called:    3
   612 ;; This function calls:
   613 ;;		Nothing
   614 ;; This function is called by:
   615 ;;		_sisTimerIlkle
   616 ;; This function uses a non-reentrant model
   617 ;;
   618                           
   619                           	psect	text2
   620  00197E                     __ptext2:
   621                           	callstack 0
   622  00197E                     _timer0KesmeIsleyiciKur:
   623                           	callstack 26
   624                           
   625                           ;interrupt.c: 39:     timer0KesmeIsleyici = isleyici;
   626                           
   627                           ;incstack = 0
   628  00197E  C040  F027         	movff	timer0KesmeIsleyiciKur@isleyici,_timer0KesmeIsleyici
   629  001982  C041  F028         	movff	timer0KesmeIsleyiciKur@isleyici+1,_timer0KesmeIsleyici+1
   630  001986  0012               	return		;funcret
   631  001988                     __end_of_timer0KesmeIsleyiciKur:
   632                           	callstack 0
   633                           
   634 ;; *************** function _sisOsilatorIlkle *****************
   635 ;; Defined at:
   636 ;;		line 27 in file "osilator.c"
   637 ;; Parameters:    Size  Location     Type
   638 ;;		None
   639 ;; Auto vars:     Size  Location     Type
   640 ;;		None
   641 ;; Return value:  Size  Location     Type
   642 ;;                  1    wreg      void 
   643 ;; Registers used:
   644 ;;		wreg, status,2
   645 ;; Tracked objects:
   646 ;;		On entry : 0/0
   647 ;;		On exit  : 0/0
   648 ;;		Unchanged: 0/0
   649 ;; Data sizes:     COMRAM   BANK0   BANK1   BANK2   BANK3   BANK4   BANK5   BANK6   BANK7   BANK8   BANK9  BANK10  BANK1
      +1  BANK12  BANK13  BANK14  BANK15
   650 ;;      Params:         0       0       0       0       0       0       0       0       0       0       0       0       
      +0       0       0       0       0
   651 ;;      Locals:         0       0       0       0       0       0       0       0       0       0       0       0       
      +0       0       0       0       0
   652 ;;      Temps:          0       0       0       0       0       0       0       0       0       0       0       0       
      +0       0       0       0       0
   653 ;;      Totals:         0       0       0       0       0       0       0       0       0       0       0       0       
      +0       0       0       0       0
   654 ;;Total ram usage:        0 bytes
   655 ;; Hardware stack levels used:    1
   656 ;; Hardware stack levels required when called:    3
   657 ;; This function calls:
   658 ;;		Nothing
   659 ;; This function is called by:
   660 ;;		_main
   661 ;; This function uses a non-reentrant model
   662 ;;
   663                           
   664                           	psect	text3
   665  001970                     __ptext3:
   666                           	callstack 0
   667  001970                     _sisOsilatorIlkle:
   668                           	callstack 27
   669                           
   670                           ;osilator.c: 29:     OSCCON = 0b01110011;
   671                           
   672                           ;incstack = 0
   673  001970  0E73               	movlw	115
   674  001972  6ED3               	movwf	211,c	;volatile
   675                           
   676                           ;osilator.c: 31:     OSCCON2 = 0x04;
   677  001974  0E04               	movlw	4
   678  001976  6ED2               	movwf	210,c	;volatile
   679                           
   680                           ;osilator.c: 33:     OSCTUNE = 0x00;
   681  001978  0E00               	movlw	0
   682  00197A  6E9B               	movwf	155,c	;volatile
   683  00197C  0012               	return		;funcret
   684  00197E                     __end_of_sisOsilatorIlkle:
   685                           	callstack 0
   686                           
   687 ;; *************** function _ledCakarlama2 *****************
   688 ;; Defined at:
   689 ;;		line 108 in file "ornek3.c"
   690 ;; Parameters:    Size  Location     Type
   691 ;;  tutucu          1   18[COMRAM] PTR void 
   692 ;;		 -> main@lc2(2), 
   693 ;; Auto vars:     Size  Location     Type
   694 ;;  VAZGECIS_BAY    1    0        unsigned char 
   695 ;; Return value:  Size  Location     Type
   696 ;;                  1    wreg      unsigned char 
   697 ;; Registers used:
   698 ;;		wreg, fsr2l, fsr2h, status,2, status,0, cstack
   699 ;; Tracked objects:
   700 ;;		On entry : 0/0
   701 ;;		On exit  : 0/0
   702 ;;		Unchanged: 0/0
   703 ;; Data sizes:     COMRAM   BANK0   BANK1   BANK2   BANK3   BANK4   BANK5   BANK6   BANK7   BANK8   BANK9  BANK10  BANK1
      +1  BANK12  BANK13  BANK14  BANK15
   704 ;;      Params:         1       0       0       0       0       0       0       0       0       0       0       0       
      +0       0       0       0       0
   705 ;;      Locals:         1       0       0       0       0       0       0       0       0       0       0       0       
      +0       0       0       0       0
   706 ;;      Temps:          2       0       0       0       0       0       0       0       0       0       0       0       
      +0       0       0       0       0
   707 ;;      Totals:         4       0       0       0       0       0       0       0       0       0       0       0       
      +0       0       0       0       0
   708 ;;Total ram usage:        4 bytes
   709 ;; Hardware stack levels used:    1
   710 ;; Hardware stack levels required when called:    4
   711 ;; This function calls:
   712 ;;		_tikSayiminiAl
   713 ;; This function is called by:
   714 ;;		_main
   715 ;; This function uses a non-reentrant model
   716 ;;
   717                           
   718                           	psect	text4
   719  001032                     __ptext4:
   720                           	callstack 0
   721  001032                     _ledCakarlama2:
   722                           	callstack 26
   723                           
   724                           ;incstack = 0
   725  001032  D101               	goto	l2482
   726  001034                     l203:
   727                           
   728                           ;ornek3.c: 111:     static sure_t s2;;ornek3.c: 114:     LATEbits.LATE2 = 0;
   729  001034  948D               	bcf	141,2,c	;volatile
   730                           
   731                           ;ornek3.c: 115:     ANSELEbits.ANSE2 = 0;
   732  001036  010F               	movlb	15	; () banked
   733  001038  953C               	bcf	60,2,b	;volatile
   734                           
   735                           ;ornek3.c: 116:     TRISEbits.TRISE2 = 0;
   736  00103A  9496               	bcf	150,2,c	;volatile
   737  00103C                     l2402:
   738                           
   739                           ;ornek3.c: 120:         PORTEbits.RE2 = !PORTEbits.RE2;
   740  00103C  B484               	btfsc	132,2,c	;volatile
   741  00103E  D003               	goto	u1340
   742  001040  6A45               	clrf	??_ledCakarlama2^0,c
   743  001042  2A45               	incf	??_ledCakarlama2^0,f,c
   744  001044  D001               	goto	u1358
   745  001046                     u1340:
   746  001046  6A45               	clrf	??_ledCakarlama2^0,c
   747  001048                     u1358:
   748  001048  4645               	rlncf	??_ledCakarlama2^0,f,c
   749  00104A  4645               	rlncf	??_ledCakarlama2^0,f,c
   750  00104C  5084               	movf	132,w,c	;volatile
   751  00104E  1845               	xorwf	??_ledCakarlama2^0,w,c
   752  001050  0BFB               	andlw	-5
   753  001052  1845               	xorwf	??_ledCakarlama2^0,w,c
   754  001054  6E84               	movwf	132,c	;volatile
   755                           
   756                           ;ornek3.c: 122:   ( (sure_t*) &s2 )->kacTik = (50u / (1000u / 1000u)); ( (sure_t*) &s2 )
      +                          ->baslangic = tikSayiminiAl(); ( (gorev_t*) tutucu )->sn = 122; case 122:; if(!(( (tikSa
      +                          yiminiAl() - ( (sure_t*) &s2 )->baslangic) >= ( (sure_t*) &s2 )->kacTik ))){ return 0; }
      +                          ;
   757  001056  0E00               	movlw	0
   758  001058  6E10               	movwf	(ledCakarlama2@s2+3)^0,c
   759  00105A  0E32               	movlw	50
   760  00105C  6E0F               	movwf	(ledCakarlama2@s2+2)^0,c
   761  00105E  EC9F  F00C         	call	_tikSayiminiAl	;wreg free
   762  001062  C040  F00D         	movff	?_tikSayiminiAl,ledCakarlama2@s2
   763  001066  C041  F00E         	movff	?_tikSayiminiAl+1,ledCakarlama2@s2+1
   764  00106A  5044               	movf	ledCakarlama2@tutucu^0,w,c
   765  00106C  6ED9               	movwf	fsr2l,c
   766  00106E  6ADA               	clrf	fsr2h,c
   767  001070  0E7A               	movlw	122
   768  001072  6EDE               	movwf	postinc2,c
   769  001074  0E00               	movlw	0
   770  001076  6EDD               	movwf	postdec2,c
   771  001078                     l2410:
   772  001078  EC9F  F00C         	call	_tikSayiminiAl	;wreg free
   773  00107C  500D               	movf	ledCakarlama2@s2^0,w,c
   774  00107E  5E40               	subwf	?_tikSayiminiAl^0,f,c
   775  001080  500E               	movf	(ledCakarlama2@s2+1)^0,w,c
   776  001082  5A41               	subwfb	(?_tikSayiminiAl+1)^0,f,c
   777  001084  500F               	movf	(ledCakarlama2@s2+2)^0,w,c
   778  001086  5C40               	subwf	?_tikSayiminiAl^0,w,c
   779  001088  5010               	movf	(ledCakarlama2@s2+3)^0,w,c
   780  00108A  5841               	subwfb	(?_tikSayiminiAl+1)^0,w,c
   781  00108C  A0D8               	btfss	status,0,c
   782  00108E  0012               	return	
   783                           
   784                           ;ornek3.c: 124:         PORTEbits.RE2 = !PORTEbits.RE2;
   785  001090  B484               	btfsc	132,2,c	;volatile
   786  001092  D003               	goto	u1370
   787  001094  6A45               	clrf	??_ledCakarlama2^0,c
   788  001096  2A45               	incf	??_ledCakarlama2^0,f,c
   789  001098  D001               	goto	u1388
   790  00109A                     u1370:
   791  00109A  6A45               	clrf	??_ledCakarlama2^0,c
   792  00109C                     u1388:
   793  00109C  4645               	rlncf	??_ledCakarlama2^0,f,c
   794  00109E  4645               	rlncf	??_ledCakarlama2^0,f,c
   795  0010A0  5084               	movf	132,w,c	;volatile
   796  0010A2  1845               	xorwf	??_ledCakarlama2^0,w,c
   797  0010A4  0BFB               	andlw	-5
   798  0010A6  1845               	xorwf	??_ledCakarlama2^0,w,c
   799  0010A8  6E84               	movwf	132,c	;volatile
   800                           
   801                           ;ornek3.c: 126:   ( (sure_t*) &s2 )->kacTik = (50u / (1000u / 1000u)); ( (sure_t*) &s2 )
      +                          ->baslangic = tikSayiminiAl(); ( (gorev_t*) tutucu )->sn = 126; case 126:; if(!(( (tikSa
      +                          yiminiAl() - ( (sure_t*) &s2 )->baslangic) >= ( (sure_t*) &s2 )->kacTik ))){ return 0; }
      +                          ;
   802  0010AA  0E00               	movlw	0
   803  0010AC  6E10               	movwf	(ledCakarlama2@s2+3)^0,c
   804  0010AE  0E32               	movlw	50
   805  0010B0  6E0F               	movwf	(ledCakarlama2@s2+2)^0,c
   806  0010B2  EC9F  F00C         	call	_tikSayiminiAl	;wreg free
   807  0010B6  C040  F00D         	movff	?_tikSayiminiAl,ledCakarlama2@s2
   808  0010BA  C041  F00E         	movff	?_tikSayiminiAl+1,ledCakarlama2@s2+1
   809  0010BE  5044               	movf	ledCakarlama2@tutucu^0,w,c
   810  0010C0  6ED9               	movwf	fsr2l,c
   811  0010C2  6ADA               	clrf	fsr2h,c
   812  0010C4  0E7E               	movlw	126
   813  0010C6  6EDE               	movwf	postinc2,c
   814  0010C8  0E00               	movlw	0
   815  0010CA  6EDD               	movwf	postdec2,c
   816  0010CC                     l2422:
   817  0010CC  EC9F  F00C         	call	_tikSayiminiAl	;wreg free
   818  0010D0  500D               	movf	ledCakarlama2@s2^0,w,c
   819  0010D2  5E40               	subwf	?_tikSayiminiAl^0,f,c
   820  0010D4  500E               	movf	(ledCakarlama2@s2+1)^0,w,c
   821  0010D6  5A41               	subwfb	(?_tikSayiminiAl+1)^0,f,c
   822  0010D8  500F               	movf	(ledCakarlama2@s2+2)^0,w,c
   823  0010DA  5C40               	subwf	?_tikSayiminiAl^0,w,c
   824  0010DC  5010               	movf	(ledCakarlama2@s2+3)^0,w,c
   825  0010DE  5841               	subwfb	(?_tikSayiminiAl+1)^0,w,c
   826  0010E0  A0D8               	btfss	status,0,c
   827  0010E2  0012               	return	
   828                           
   829                           ;ornek3.c: 128:         PORTEbits.RE2 = !PORTEbits.RE2;
   830  0010E4  B484               	btfsc	132,2,c	;volatile
   831  0010E6  D003               	goto	u1400
   832  0010E8  6A45               	clrf	??_ledCakarlama2^0,c
   833  0010EA  2A45               	incf	??_ledCakarlama2^0,f,c
   834  0010EC  D001               	goto	u1418
   835  0010EE                     u1400:
   836  0010EE  6A45               	clrf	??_ledCakarlama2^0,c
   837  0010F0                     u1418:
   838  0010F0  4645               	rlncf	??_ledCakarlama2^0,f,c
   839  0010F2  4645               	rlncf	??_ledCakarlama2^0,f,c
   840  0010F4  5084               	movf	132,w,c	;volatile
   841  0010F6  1845               	xorwf	??_ledCakarlama2^0,w,c
   842  0010F8  0BFB               	andlw	-5
   843  0010FA  1845               	xorwf	??_ledCakarlama2^0,w,c
   844  0010FC  6E84               	movwf	132,c	;volatile
   845                           
   846                           ;ornek3.c: 130:   ( (sure_t*) &s2 )->kacTik = (50u / (1000u / 1000u)); ( (sure_t*) &s2 )
      +                          ->baslangic = tikSayiminiAl(); ( (gorev_t*) tutucu )->sn = 130; case 130:; if(!(( (tikSa
      +                          yiminiAl() - ( (sure_t*) &s2 )->baslangic) >= ( (sure_t*) &s2 )->kacTik ))){ return 0; }
      +                          ;
   847  0010FE  0E00               	movlw	0
   848  001100  6E10               	movwf	(ledCakarlama2@s2+3)^0,c
   849  001102  0E32               	movlw	50
   850  001104  6E0F               	movwf	(ledCakarlama2@s2+2)^0,c
   851  001106  EC9F  F00C         	call	_tikSayiminiAl	;wreg free
   852  00110A  C040  F00D         	movff	?_tikSayiminiAl,ledCakarlama2@s2
   853  00110E  C041  F00E         	movff	?_tikSayiminiAl+1,ledCakarlama2@s2+1
   854  001112  5044               	movf	ledCakarlama2@tutucu^0,w,c
   855  001114  6ED9               	movwf	fsr2l,c
   856  001116  6ADA               	clrf	fsr2h,c
   857  001118  0E82               	movlw	130
   858  00111A  6EDE               	movwf	postinc2,c
   859  00111C  0E00               	movlw	0
   860  00111E  6EDD               	movwf	postdec2,c
   861  001120                     l2434:
   862  001120  EC9F  F00C         	call	_tikSayiminiAl	;wreg free
   863  001124  500D               	movf	ledCakarlama2@s2^0,w,c
   864  001126  5E40               	subwf	?_tikSayiminiAl^0,f,c
   865  001128  500E               	movf	(ledCakarlama2@s2+1)^0,w,c
   866  00112A  5A41               	subwfb	(?_tikSayiminiAl+1)^0,f,c
   867  00112C  500F               	movf	(ledCakarlama2@s2+2)^0,w,c
   868  00112E  5C40               	subwf	?_tikSayiminiAl^0,w,c
   869  001130  5010               	movf	(ledCakarlama2@s2+3)^0,w,c
   870  001132  5841               	subwfb	(?_tikSayiminiAl+1)^0,w,c
   871  001134  A0D8               	btfss	status,0,c
   872  001136  0012               	return	
   873                           
   874                           ;ornek3.c: 132:         PORTEbits.RE2 = !PORTEbits.RE2;
   875  001138  B484               	btfsc	132,2,c	;volatile
   876  00113A  D003               	goto	u1430
   877  00113C  6A45               	clrf	??_ledCakarlama2^0,c
   878  00113E  2A45               	incf	??_ledCakarlama2^0,f,c
   879  001140  D001               	goto	u1448
   880  001142                     u1430:
   881  001142  6A45               	clrf	??_ledCakarlama2^0,c
   882  001144                     u1448:
   883  001144  4645               	rlncf	??_ledCakarlama2^0,f,c
   884  001146  4645               	rlncf	??_ledCakarlama2^0,f,c
   885  001148  5084               	movf	132,w,c	;volatile
   886  00114A  1845               	xorwf	??_ledCakarlama2^0,w,c
   887  00114C  0BFB               	andlw	-5
   888  00114E  1845               	xorwf	??_ledCakarlama2^0,w,c
   889  001150  6E84               	movwf	132,c	;volatile
   890                           
   891                           ;ornek3.c: 134:   ( (sure_t*) &s2 )->kacTik = (50u / (1000u / 1000u)); ( (sure_t*) &s2 )
      +                          ->baslangic = tikSayiminiAl(); ( (gorev_t*) tutucu )->sn = 134; case 134:; if(!(( (tikSa
      +                          yiminiAl() - ( (sure_t*) &s2 )->baslangic) >= ( (sure_t*) &s2 )->kacTik ))){ return 0; }
      +                          ;
   892  001152  0E00               	movlw	0
   893  001154  6E10               	movwf	(ledCakarlama2@s2+3)^0,c
   894  001156  0E32               	movlw	50
   895  001158  6E0F               	movwf	(ledCakarlama2@s2+2)^0,c
   896  00115A  EC9F  F00C         	call	_tikSayiminiAl	;wreg free
   897  00115E  C040  F00D         	movff	?_tikSayiminiAl,ledCakarlama2@s2
   898  001162  C041  F00E         	movff	?_tikSayiminiAl+1,ledCakarlama2@s2+1
   899  001166  5044               	movf	ledCakarlama2@tutucu^0,w,c
   900  001168  6ED9               	movwf	fsr2l,c
   901  00116A  6ADA               	clrf	fsr2h,c
   902  00116C  0E86               	movlw	134
   903  00116E  6EDE               	movwf	postinc2,c
   904  001170  0E00               	movlw	0
   905  001172  6EDD               	movwf	postdec2,c
   906  001174                     l2446:
   907  001174  EC9F  F00C         	call	_tikSayiminiAl	;wreg free
   908  001178  500D               	movf	ledCakarlama2@s2^0,w,c
   909  00117A  5E40               	subwf	?_tikSayiminiAl^0,f,c
   910  00117C  500E               	movf	(ledCakarlama2@s2+1)^0,w,c
   911  00117E  5A41               	subwfb	(?_tikSayiminiAl+1)^0,f,c
   912  001180  500F               	movf	(ledCakarlama2@s2+2)^0,w,c
   913  001182  5C40               	subwf	?_tikSayiminiAl^0,w,c
   914  001184  5010               	movf	(ledCakarlama2@s2+3)^0,w,c
   915  001186  5841               	subwfb	(?_tikSayiminiAl+1)^0,w,c
   916  001188  A0D8               	btfss	status,0,c
   917  00118A  0012               	return	
   918                           
   919                           ;ornek3.c: 136:         PORTEbits.RE2 = !PORTEbits.RE2;
   920  00118C  B484               	btfsc	132,2,c	;volatile
   921  00118E  D003               	goto	u1460
   922  001190  6A45               	clrf	??_ledCakarlama2^0,c
   923  001192  2A45               	incf	??_ledCakarlama2^0,f,c
   924  001194  D001               	goto	u1478
   925  001196                     u1460:
   926  001196  6A45               	clrf	??_ledCakarlama2^0,c
   927  001198                     u1478:
   928  001198  4645               	rlncf	??_ledCakarlama2^0,f,c
   929  00119A  4645               	rlncf	??_ledCakarlama2^0,f,c
   930  00119C  5084               	movf	132,w,c	;volatile
   931  00119E  1845               	xorwf	??_ledCakarlama2^0,w,c
   932  0011A0  0BFB               	andlw	-5
   933  0011A2  1845               	xorwf	??_ledCakarlama2^0,w,c
   934  0011A4  6E84               	movwf	132,c	;volatile
   935                           
   936                           ;ornek3.c: 138:   ( (sure_t*) &s2 )->kacTik = (50u / (1000u / 1000u)); ( (sure_t*) &s2 )
      +                          ->baslangic = tikSayiminiAl(); ( (gorev_t*) tutucu )->sn = 138; case 138:; if(!(( (tikSa
      +                          yiminiAl() - ( (sure_t*) &s2 )->baslangic) >= ( (sure_t*) &s2 )->kacTik ))){ return 0; }
      +                          ;
   937  0011A6  0E00               	movlw	0
   938  0011A8  6E10               	movwf	(ledCakarlama2@s2+3)^0,c
   939  0011AA  0E32               	movlw	50
   940  0011AC  6E0F               	movwf	(ledCakarlama2@s2+2)^0,c
   941  0011AE  EC9F  F00C         	call	_tikSayiminiAl	;wreg free
   942  0011B2  C040  F00D         	movff	?_tikSayiminiAl,ledCakarlama2@s2
   943  0011B6  C041  F00E         	movff	?_tikSayiminiAl+1,ledCakarlama2@s2+1
   944  0011BA  5044               	movf	ledCakarlama2@tutucu^0,w,c
   945  0011BC  6ED9               	movwf	fsr2l,c
   946  0011BE  6ADA               	clrf	fsr2h,c
   947  0011C0  0E8A               	movlw	138
   948  0011C2  6EDE               	movwf	postinc2,c
   949  0011C4  0E00               	movlw	0
   950  0011C6  6EDD               	movwf	postdec2,c
   951  0011C8                     l2458:
   952  0011C8  EC9F  F00C         	call	_tikSayiminiAl	;wreg free
   953  0011CC  500D               	movf	ledCakarlama2@s2^0,w,c
   954  0011CE  5E40               	subwf	?_tikSayiminiAl^0,f,c
   955  0011D0  500E               	movf	(ledCakarlama2@s2+1)^0,w,c
   956  0011D2  5A41               	subwfb	(?_tikSayiminiAl+1)^0,f,c
   957  0011D4  500F               	movf	(ledCakarlama2@s2+2)^0,w,c
   958  0011D6  5C40               	subwf	?_tikSayiminiAl^0,w,c
   959  0011D8  5010               	movf	(ledCakarlama2@s2+3)^0,w,c
   960  0011DA  5841               	subwfb	(?_tikSayiminiAl+1)^0,w,c
   961  0011DC  A0D8               	btfss	status,0,c
   962  0011DE  0012               	return	
   963                           
   964                           ;ornek3.c: 140:         PORTEbits.RE2 = !PORTEbits.RE2;
   965  0011E0  B484               	btfsc	132,2,c	;volatile
   966  0011E2  D003               	goto	u1490
   967  0011E4  6A45               	clrf	??_ledCakarlama2^0,c
   968  0011E6  2A45               	incf	??_ledCakarlama2^0,f,c
   969  0011E8  D001               	goto	u1508
   970  0011EA                     u1490:
   971  0011EA  6A45               	clrf	??_ledCakarlama2^0,c
   972  0011EC                     u1508:
   973  0011EC  4645               	rlncf	??_ledCakarlama2^0,f,c
   974  0011EE  4645               	rlncf	??_ledCakarlama2^0,f,c
   975  0011F0  5084               	movf	132,w,c	;volatile
   976  0011F2  1845               	xorwf	??_ledCakarlama2^0,w,c
   977  0011F4  0BFB               	andlw	-5
   978  0011F6  1845               	xorwf	??_ledCakarlama2^0,w,c
   979  0011F8  6E84               	movwf	132,c	;volatile
   980                           
   981                           ;ornek3.c: 142:   ( (sure_t*) &s2 )->kacTik = (1000u / (1000u / 1000u)); ( (sure_t*) &s2
      +                           )->baslangic = tikSayiminiAl(); ( (gorev_t*) tutucu )->sn = 142; case 142:; if(!(( (tik
      +                          SayiminiAl() - ( (sure_t*) &s2 )->baslangic) >= ( (sure_t*) &s2 )->kacTik ))){ return 0;
      +                           };
   982  0011FA  0E03               	movlw	3
   983  0011FC  6E10               	movwf	(ledCakarlama2@s2+3)^0,c
   984  0011FE  0EE8               	movlw	232
   985  001200  6E0F               	movwf	(ledCakarlama2@s2+2)^0,c
   986  001202  EC9F  F00C         	call	_tikSayiminiAl	;wreg free
   987  001206  C040  F00D         	movff	?_tikSayiminiAl,ledCakarlama2@s2
   988  00120A  C041  F00E         	movff	?_tikSayiminiAl+1,ledCakarlama2@s2+1
   989  00120E  5044               	movf	ledCakarlama2@tutucu^0,w,c
   990  001210  6ED9               	movwf	fsr2l,c
   991  001212  6ADA               	clrf	fsr2h,c
   992  001214  0E8E               	movlw	142
   993  001216  6EDE               	movwf	postinc2,c
   994  001218  0E00               	movlw	0
   995  00121A  6EDD               	movwf	postdec2,c
   996  00121C                     l2470:
   997  00121C  EC9F  F00C         	call	_tikSayiminiAl	;wreg free
   998  001220  500D               	movf	ledCakarlama2@s2^0,w,c
   999  001222  5E40               	subwf	?_tikSayiminiAl^0,f,c
  1000  001224  500E               	movf	(ledCakarlama2@s2+1)^0,w,c
  1001  001226  5A41               	subwfb	(?_tikSayiminiAl+1)^0,f,c
  1002  001228  500F               	movf	(ledCakarlama2@s2+2)^0,w,c
  1003  00122A  5C40               	subwf	?_tikSayiminiAl^0,w,c
  1004  00122C  5010               	movf	(ledCakarlama2@s2+3)^0,w,c
  1005  00122E  5841               	subwfb	(?_tikSayiminiAl+1)^0,w,c
  1006  001230  A0D8               	btfss	status,0,c
  1007  001232  0012               	return	
  1008  001234  D703               	goto	l2402
  1009  001236                     l2482:
  1010  001236  5044               	movf	ledCakarlama2@tutucu^0,w,c
  1011  001238  6ED9               	movwf	fsr2l,c
  1012  00123A  6ADA               	clrf	fsr2h,c
  1013  00123C  CFDE F045          	movff	postinc2,??_ledCakarlama2
  1014  001240  CFDD F046          	movff	postdec2,??_ledCakarlama2+1
  1015                           
  1016                           ; Switch on 2 bytes has been partitioned into a top level switch of size 1, and 1 sub-sw
      +                          itches
  1017                           ; Switch size 1, requested type "simple"
  1018                           ; Number of cases is 1, Range of values is 0 to 0
  1019                           ; switch strategies available:
  1020                           ; Name         Instructions Cycles
  1021                           ; simple_byte            4     3 (average)
  1022                           ;	Chosen strategy is simple_byte
  1023  001244  5046               	movf	(??_ledCakarlama2+1)^0,w,c
  1024  001246  0A00               	xorlw	0	; case 0
  1025  001248  A4D8               	btfss	status,2,c
  1026  00124A  0012               	return	
  1027                           
  1028                           ; Switch size 1, requested type "simple"
  1029                           ; Number of cases is 8, Range of values is 0 to 145
  1030                           ; switch strategies available:
  1031                           ; Name         Instructions Cycles
  1032                           ; simple_byte           25    13 (average)
  1033                           ;	Chosen strategy is simple_byte
  1034  00124C  5045               	movf	??_ledCakarlama2^0,w,c
  1035  00124E  0A00               	xorlw	0	; case 0
  1036  001250  B4D8               	btfsc	status,2,c
  1037  001252  D6F0               	goto	l203
  1038  001254  0A7A               	xorlw	122	; case 122
  1039  001256  B4D8               	btfsc	status,2,c
  1040  001258  D70F               	goto	l2410
  1041  00125A  0A04               	xorlw	4	; case 126
  1042  00125C  B4D8               	btfsc	status,2,c
  1043  00125E  D736               	goto	l2422
  1044  001260  0AFC               	xorlw	252	; case 130
  1045  001262  B4D8               	btfsc	status,2,c
  1046  001264  D75D               	goto	l2434
  1047  001266  0A04               	xorlw	4	; case 134
  1048  001268  B4D8               	btfsc	status,2,c
  1049  00126A  D784               	goto	l2446
  1050  00126C  0A0C               	xorlw	12	; case 138
  1051  00126E  B4D8               	btfsc	status,2,c
  1052  001270  D7AB               	goto	l2458
  1053  001272  0A04               	xorlw	4	; case 142
  1054  001274  B4D8               	btfsc	status,2,c
  1055  001276  D7D2               	goto	l2470
  1056  001278  0A1F               	xorlw	31	; case 145
  1057  00127A  0012               	return	
  1058  00127C                     __end_of_ledCakarlama2:
  1059                           	callstack 0
  1060                           
  1061 ;; *************** function _ledCakarlama1 *****************
  1062 ;; Defined at:
  1063 ;;		line 47 in file "ornek3.c"
  1064 ;; Parameters:    Size  Location     Type
  1065 ;;  tutucu          1   18[COMRAM] PTR void 
  1066 ;;		 -> main@lc1(2), 
  1067 ;; Auto vars:     Size  Location     Type
  1068 ;;  VAZGECIS_BAY    1    0        unsigned char 
  1069 ;; Return value:  Size  Location     Type
  1070 ;;                  1    wreg      unsigned char 
  1071 ;; Registers used:
  1072 ;;		wreg, fsr2l, fsr2h, status,2, status,0, tblptrl, tblptrh, tblptru, prodl, prodh, cstack
  1073 ;; Tracked objects:
  1074 ;;		On entry : 0/0
  1075 ;;		On exit  : 0/0
  1076 ;;		Unchanged: 0/0
  1077 ;; Data sizes:     COMRAM   BANK0   BANK1   BANK2   BANK3   BANK4   BANK5   BANK6   BANK7   BANK8   BANK9  BANK10  BANK1
      +1  BANK12  BANK13  BANK14  BANK15
  1078 ;;      Params:         1       0       0       0       0       0       0       0       0       0       0       0       
      +0       0       0       0       0
  1079 ;;      Locals:         1       0       0       0       0       0       0       0       0       0       0       0       
      +0       0       0       0       0
  1080 ;;      Temps:          2       0       0       0       0       0       0       0       0       0       0       0       
      +0       0       0       0       0
  1081 ;;      Totals:         4       0       0       0       0       0       0       0       0       0       0       0       
      +0       0       0       0       0
  1082 ;;Total ram usage:        4 bytes
  1083 ;; Hardware stack levels used:    1
  1084 ;; Hardware stack levels required when called:    4
  1085 ;; This function calls:
  1086 ;;		_tikSayiminiAl
  1087 ;; This function is called by:
  1088 ;;		_main
  1089 ;; This function uses a non-reentrant model
  1090 ;;
  1091                           
  1092                           	psect	text5
  1093  00145C                     __ptext5:
  1094                           	callstack 0
  1095  00145C                     _ledCakarlama1:
  1096                           	callstack 26
  1097                           
  1098                           ;incstack = 0
  1099  00145C  D085               	goto	l2394
  1100  00145E                     l174:
  1101                           
  1102                           ;ornek3.c: 55:     static sure_t s1;;ornek3.c: 56:     static char secici;;ornek3.c: 57:
      +                               static _Bool artir;;ornek3.c: 60:     static const unsigned int sureler[] = {;ornek
      +                          3.c: 65:     static const char sonSira = sizeof(sureler) / sizeof(unsigned int) - 1;;orn
      +                          ek3.c: 68:     LATEbits.LATE1 = 0;
  1103  00145E  928D               	bcf	141,1,c	;volatile
  1104                           
  1105                           ;ornek3.c: 69:     ANSELEbits.ANSE1 = 0;
  1106  001460  010F               	movlb	15	; () banked
  1107  001462  933C               	bcf	60,1,b	;volatile
  1108                           
  1109                           ;ornek3.c: 70:     TRISEbits.TRISE1 = 0;
  1110  001464  9296               	bcf	150,1,c	;volatile
  1111                           
  1112                           ; BSR set to: 15
  1113                           ;ornek3.c: 71:     secici = 0;
  1114  001466  0E00               	movlw	0
  1115  001468  6E2B               	movwf	ledCakarlama1@secici^0,c
  1116                           
  1117                           ;ornek3.c: 72:     artir = 1;
  1118  00146A  0E01               	movlw	1
  1119  00146C  6E2A               	movwf	ledCakarlama1@artir^0,c
  1120  00146E                     l185:
  1121                           
  1122                           ;ornek3.c: 76:         if(artir){
  1123  00146E  502A               	movf	ledCakarlama1@artir^0,w,c
  1124  001470  B4D8               	btfsc	status,2,c
  1125  001472  D008               	goto	l2356
  1126                           
  1127                           ;ornek3.c: 77:             if(secici == sonSira){
  1128  001474  0E0E               	movlw	14
  1129  001476  182B               	xorwf	ledCakarlama1@secici^0,w,c
  1130  001478  A4D8               	btfss	status,2,c
  1131  00147A  D002               	goto	l2354
  1132                           
  1133                           ;ornek3.c: 78:                 artir = 0;
  1134  00147C  0E00               	movlw	0
  1135  00147E  D006               	goto	L1
  1136  001480                     l2354:
  1137                           
  1138                           ;ornek3.c: 80:                 secici++;
  1139  001480  2A2B               	incf	ledCakarlama1@secici^0,f,c
  1140  001482  D007               	goto	l2362
  1141  001484                     l2356:
  1142                           
  1143                           ;ornek3.c: 83:             if(secici == 0){
  1144  001484  502B               	movf	ledCakarlama1@secici^0,w,c
  1145  001486  A4D8               	btfss	status,2,c
  1146  001488  D003               	goto	l2360
  1147                           
  1148                           ;ornek3.c: 84:                 artir = 1;
  1149  00148A  0E01               	movlw	1
  1150  00148C                     L1:
  1151  00148C  6E2A               	movwf	ledCakarlama1@artir^0,c
  1152                           
  1153                           ;ornek3.c: 85:             } else{
  1154  00148E  D001               	goto	l2362
  1155  001490                     l2360:
  1156                           
  1157                           ;ornek3.c: 86:                 secici--;
  1158  001490  062B               	decf	ledCakarlama1@secici^0,f,c
  1159  001492                     l2362:
  1160                           
  1161                           ;ornek3.c: 90:         PORTEbits.RE1 = !PORTEbits.RE1;
  1162  001492  B284               	btfsc	132,1,c	;volatile
  1163  001494  D003               	goto	u1280
  1164  001496  6A45               	clrf	??_ledCakarlama1^0,c
  1165  001498  2A45               	incf	??_ledCakarlama1^0,f,c
  1166  00149A  D001               	goto	u1298
  1167  00149C                     u1280:
  1168  00149C  6A45               	clrf	??_ledCakarlama1^0,c
  1169  00149E                     u1298:
  1170  00149E  4645               	rlncf	??_ledCakarlama1^0,f,c
  1171  0014A0  5084               	movf	132,w,c	;volatile
  1172  0014A2  1845               	xorwf	??_ledCakarlama1^0,w,c
  1173  0014A4  0BFD               	andlw	-3
  1174  0014A6  1845               	xorwf	??_ledCakarlama1^0,w,c
  1175  0014A8  6E84               	movwf	132,c	;volatile
  1176                           
  1177                           ;ornek3.c: 92:         ( (sure_t*) &s1 )->kacTik = (sureler[secici] / (1000u / 1000u)); 
      +                          ( (sure_t*) &s1 )->baslangic = tikSayiminiAl(); ( (gorev_t*) tutucu )->sn = 92; case 92:
      +                          ; if(!(( (tikSayiminiAl() - ( (sure_t*) &s1 )->baslangic) >= ( (sure_t*) &s1 )->kacTik )
      +                          )){ return 0; };
  1178  0014AA  502B               	movf	ledCakarlama1@secici^0,w,c
  1179  0014AC  0D02               	mullw	2
  1180  0014AE  50F3               	movf	243,w,c
  1181  0014B0  0F13               	addlw	low ledCakarlama1@sureler
  1182  0014B2  6E45               	movwf	??_ledCakarlama1^0,c
  1183  0014B4  C045  FFF6         	movff	??_ledCakarlama1,tblptrl
  1184  0014B8                     	if	1	;There is more than 1 active tblptr byte
  1185  0014B8  0E10               	movlw	high __smallconst
  1186  0014BA  6EF7               	movwf	tblptrh,c
  1187  0014BC                     	endif
  1188  0014BC                     	if	1	;Program memory is < 0x10000, tblptru is always zero
  1189  0014BC  6AF8               	clrf	tblptru,c
  1190  0014BE                     	endif
  1191  0014BE                     	if	0	;tblptru may be non-zero
  1192  0014BE                     	endif
  1193  0014BE  0009               	tblrd		*+
  1194  0014C0  CFF5 F013          	movff	tablat,ledCakarlama1@s1+2
  1195  0014C4  000A               	tblrd		*-
  1196  0014C6  CFF5 F014          	movff	tablat,ledCakarlama1@s1+3
  1197  0014CA  EC9F  F00C         	call	_tikSayiminiAl	;wreg free
  1198  0014CE  C040  F011         	movff	?_tikSayiminiAl,ledCakarlama1@s1
  1199  0014D2  C041  F012         	movff	?_tikSayiminiAl+1,ledCakarlama1@s1+1
  1200  0014D6  5044               	movf	ledCakarlama1@tutucu^0,w,c
  1201  0014D8  6ED9               	movwf	fsr2l,c
  1202  0014DA  6ADA               	clrf	fsr2h,c
  1203  0014DC  0E5C               	movlw	92
  1204  0014DE  6EDE               	movwf	postinc2,c
  1205  0014E0  0E00               	movlw	0
  1206  0014E2  6EDD               	movwf	postdec2,c
  1207  0014E4                     l2370:
  1208  0014E4  EC9F  F00C         	call	_tikSayiminiAl	;wreg free
  1209  0014E8  5011               	movf	ledCakarlama1@s1^0,w,c
  1210  0014EA  5E40               	subwf	?_tikSayiminiAl^0,f,c
  1211  0014EC  5012               	movf	(ledCakarlama1@s1+1)^0,w,c
  1212  0014EE  5A41               	subwfb	(?_tikSayiminiAl+1)^0,f,c
  1213  0014F0  5013               	movf	(ledCakarlama1@s1+2)^0,w,c
  1214  0014F2  5C40               	subwf	?_tikSayiminiAl^0,w,c
  1215  0014F4  5014               	movf	(ledCakarlama1@s1+3)^0,w,c
  1216  0014F6  5841               	subwfb	(?_tikSayiminiAl+1)^0,w,c
  1217  0014F8  A0D8               	btfss	status,0,c
  1218  0014FA  0012               	return	
  1219                           
  1220                           ;ornek3.c: 94:         PORTEbits.RE1 = !PORTEbits.RE1;
  1221  0014FC  B284               	btfsc	132,1,c	;volatile
  1222  0014FE  D003               	goto	u1310
  1223  001500  6A45               	clrf	??_ledCakarlama1^0,c
  1224  001502  2A45               	incf	??_ledCakarlama1^0,f,c
  1225  001504  D001               	goto	u1328
  1226  001506                     u1310:
  1227  001506  6A45               	clrf	??_ledCakarlama1^0,c
  1228  001508                     u1328:
  1229  001508  4645               	rlncf	??_ledCakarlama1^0,f,c
  1230  00150A  5084               	movf	132,w,c	;volatile
  1231  00150C  1845               	xorwf	??_ledCakarlama1^0,w,c
  1232  00150E  0BFD               	andlw	-3
  1233  001510  1845               	xorwf	??_ledCakarlama1^0,w,c
  1234  001512  6E84               	movwf	132,c	;volatile
  1235                           
  1236                           ;ornek3.c: 96:         ( (sure_t*) &s1 )->kacTik = (sureler[secici] / (1000u / 1000u)); 
      +                          ( (sure_t*) &s1 )->baslangic = tikSayiminiAl(); ( (gorev_t*) tutucu )->sn = 96; case 96:
      +                          ; if(!(( (tikSayiminiAl() - ( (sure_t*) &s1 )->baslangic) >= ( (sure_t*) &s1 )->kacTik )
      +                          )){ return 0; };
  1237  001514  502B               	movf	ledCakarlama1@secici^0,w,c
  1238  001516  0D02               	mullw	2
  1239  001518  50F3               	movf	243,w,c
  1240  00151A  0F13               	addlw	low ledCakarlama1@sureler
  1241  00151C  6E45               	movwf	??_ledCakarlama1^0,c
  1242  00151E  C045  FFF6         	movff	??_ledCakarlama1,tblptrl
  1243  001522                     	if	1	;There is more than 1 active tblptr byte
  1244  001522  0E10               	movlw	high __smallconst
  1245  001524  6EF7               	movwf	tblptrh,c
  1246  001526                     	endif
  1247  001526                     	if	1	;Program memory is < 0x10000, tblptru is always zero
  1248  001526  6AF8               	clrf	tblptru,c
  1249  001528                     	endif
  1250  001528                     	if	0	;tblptru may be non-zero
  1251  001528                     	endif
  1252  001528  0009               	tblrd		*+
  1253  00152A  CFF5 F013          	movff	tablat,ledCakarlama1@s1+2
  1254  00152E  000A               	tblrd		*-
  1255  001530  CFF5 F014          	movff	tablat,ledCakarlama1@s1+3
  1256  001534  EC9F  F00C         	call	_tikSayiminiAl	;wreg free
  1257  001538  C040  F011         	movff	?_tikSayiminiAl,ledCakarlama1@s1
  1258  00153C  C041  F012         	movff	?_tikSayiminiAl+1,ledCakarlama1@s1+1
  1259  001540  5044               	movf	ledCakarlama1@tutucu^0,w,c
  1260  001542  6ED9               	movwf	fsr2l,c
  1261  001544  6ADA               	clrf	fsr2h,c
  1262  001546  0E60               	movlw	96
  1263  001548  6EDE               	movwf	postinc2,c
  1264  00154A  0E00               	movlw	0
  1265  00154C  6EDD               	movwf	postdec2,c
  1266  00154E                     l2382:
  1267  00154E  EC9F  F00C         	call	_tikSayiminiAl	;wreg free
  1268  001552  5011               	movf	ledCakarlama1@s1^0,w,c
  1269  001554  5E40               	subwf	?_tikSayiminiAl^0,f,c
  1270  001556  5012               	movf	(ledCakarlama1@s1+1)^0,w,c
  1271  001558  5A41               	subwfb	(?_tikSayiminiAl+1)^0,f,c
  1272  00155A  5013               	movf	(ledCakarlama1@s1+2)^0,w,c
  1273  00155C  5C40               	subwf	?_tikSayiminiAl^0,w,c
  1274  00155E  5014               	movf	(ledCakarlama1@s1+3)^0,w,c
  1275  001560  5841               	subwfb	(?_tikSayiminiAl+1)^0,w,c
  1276  001562  A0D8               	btfss	status,0,c
  1277  001564  0012               	return	
  1278  001566  D783               	goto	l185
  1279  001568                     l2394:
  1280  001568  5044               	movf	ledCakarlama1@tutucu^0,w,c
  1281  00156A  6ED9               	movwf	fsr2l,c
  1282  00156C  6ADA               	clrf	fsr2h,c
  1283  00156E  CFDE F045          	movff	postinc2,??_ledCakarlama1
  1284  001572  CFDD F046          	movff	postdec2,??_ledCakarlama1+1
  1285                           
  1286                           ; Switch on 2 bytes has been partitioned into a top level switch of size 1, and 1 sub-sw
      +                          itches
  1287                           ; Switch size 1, requested type "simple"
  1288                           ; Number of cases is 1, Range of values is 0 to 0
  1289                           ; switch strategies available:
  1290                           ; Name         Instructions Cycles
  1291                           ; simple_byte            4     3 (average)
  1292                           ;	Chosen strategy is simple_byte
  1293  001576  5046               	movf	(??_ledCakarlama1+1)^0,w,c
  1294  001578  0A00               	xorlw	0	; case 0
  1295  00157A  A4D8               	btfss	status,2,c
  1296  00157C  0012               	return	
  1297                           
  1298                           ; Switch size 1, requested type "simple"
  1299                           ; Number of cases is 4, Range of values is 0 to 100
  1300                           ; switch strategies available:
  1301                           ; Name         Instructions Cycles
  1302                           ; simple_byte           13     7 (average)
  1303                           ;	Chosen strategy is simple_byte
  1304  00157E  5045               	movf	??_ledCakarlama1^0,w,c
  1305  001580  0A00               	xorlw	0	; case 0
  1306  001582  B4D8               	btfsc	status,2,c
  1307  001584  D76C               	goto	l174
  1308  001586  0A5C               	xorlw	92	; case 92
  1309  001588  B4D8               	btfsc	status,2,c
  1310  00158A  D7AC               	goto	l2370
  1311  00158C  0A3C               	xorlw	60	; case 96
  1312  00158E  B4D8               	btfsc	status,2,c
  1313  001590  D7DE               	goto	l2382
  1314  001592  0A04               	xorlw	4	; case 100
  1315  001594  0012               	return	
  1316  001596                     __end_of_ledCakarlama1:
  1317                           	callstack 0
  1318                           
  1319 ;; *************** function _karaSimsekHiziOkuma *****************
  1320 ;; Defined at:
  1321 ;;		line 192 in file "ornek3.c"
  1322 ;; Parameters:    Size  Location     Type
  1323 ;;  tutucu          1   21[COMRAM] PTR void 
  1324 ;;		 -> main@kho(2), 
  1325 ;; Auto vars:     Size  Location     Type
  1326 ;;  sonuc           2   25[COMRAM] unsigned short 
  1327 ;;  VAZGECIS_BAY    1    0        unsigned char 
  1328 ;; Return value:  Size  Location     Type
  1329 ;;                  1    wreg      unsigned char 
  1330 ;; Registers used:
  1331 ;;		wreg, fsr2l, fsr2h, status,2, status,0, cstack
  1332 ;; Tracked objects:
  1333 ;;		On entry : 0/0
  1334 ;;		On exit  : 0/0
  1335 ;;		Unchanged: 0/0
  1336 ;; Data sizes:     COMRAM   BANK0   BANK1   BANK2   BANK3   BANK4   BANK5   BANK6   BANK7   BANK8   BANK9  BANK10  BANK1
      +1  BANK12  BANK13  BANK14  BANK15
  1337 ;;      Params:         1       0       0       0       0       0       0       0       0       0       0       0       
      +0       0       0       0       0
  1338 ;;      Locals:         3       0       0       0       0       0       0       0       0       0       0       0       
      +0       0       0       0       0
  1339 ;;      Temps:          2       0       0       0       0       0       0       0       0       0       0       0       
      +0       0       0       0       0
  1340 ;;      Totals:         6       0       0       0       0       0       0       0       0       0       0       0       
      +0       0       0       0       0
  1341 ;;Total ram usage:        6 bytes
  1342 ;; Hardware stack levels used:    1
  1343 ;; Hardware stack levels required when called:    4
  1344 ;; This function calls:
  1345 ;;		___lwdiv
  1346 ;;		_tikSayiminiAl
  1347 ;; This function is called by:
  1348 ;;		_main
  1349 ;; This function uses a non-reentrant model
  1350 ;;
  1351                           
  1352                           	psect	text6
  1353  001596                     __ptext6:
  1354                           	callstack 0
  1355  001596                     _karaSimsekHiziOkuma:
  1356                           	callstack 26
  1357                           
  1358                           ;incstack = 0
  1359  001596  D067               	goto	l2578
  1360  001598                     l245:
  1361                           
  1362                           ;ornek3.c: 196:     static sure_t s4;;ornek3.c: 197:     static uint16_t oncekiSonuc = 0
      +                          ;;ornek3.c: 200:     PIE1bits.ADIE = 0;
  1363  001598  9C9D               	bcf	157,6,c	;volatile
  1364                           
  1365                           ;ornek3.c: 201:     PIR1bits.ADIF = 0;
  1366  00159A  9C9E               	bcf	158,6,c	;volatile
  1367                           
  1368                           ;ornek3.c: 202:     ADCON2 = 0xAF;
  1369  00159C  0EAF               	movlw	175
  1370  00159E  6EC0               	movwf	192,c	;volatile
  1371                           
  1372                           ;ornek3.c: 203:     ADCON1 = 0;
  1373  0015A0  0E00               	movlw	0
  1374  0015A2  6EC1               	movwf	193,c	;volatile
  1375                           
  1376                           ;ornek3.c: 204:     TRISAbits.TRISA0 = 1;
  1377  0015A4  8092               	bsf	146,0,c	;volatile
  1378                           
  1379                           ;ornek3.c: 205:     ADCON0bits.ADON = 1;
  1380  0015A6  80C2               	bsf	194,0,c	;volatile
  1381  0015A8                     l2532:
  1382                           
  1383                           ;ornek3.c: 209:         ADCON0bits.GO = 1;
  1384  0015A8  82C2               	bsf	194,1,c	;volatile
  1385                           
  1386                           ;ornek3.c: 211:         ( (gorev_t*) (tutucu) )->sn = 211; case 211:; if(!(!((ADCON0bits
      +                          .GO)))){ return 0; };
  1387  0015AA  5047               	movf	karaSimsekHiziOkuma@tutucu^0,w,c
  1388  0015AC  6ED9               	movwf	fsr2l,c
  1389  0015AE  6ADA               	clrf	fsr2h,c
  1390  0015B0  0ED3               	movlw	211
  1391  0015B2  6EDE               	movwf	postinc2,c
  1392  0015B4  0E00               	movlw	0
  1393  0015B6  6EDD               	movwf	postdec2,c
  1394  0015B8                     l2536:
  1395  0015B8  B2C2               	btfsc	194,1,c	;volatile
  1396  0015BA  0012               	return	
  1397                           
  1398                           ;ornek3.c: 213:         uint16_t sonuc;;ornek3.c: 214:         sonuc = 0;
  1399  0015BC  0E00               	movlw	0
  1400  0015BE  6E4C               	movwf	(karaSimsekHiziOkuma@sonuc+1)^0,c
  1401  0015C0  0E00               	movlw	0
  1402  0015C2  6E4B               	movwf	karaSimsekHiziOkuma@sonuc^0,c
  1403                           
  1404                           ;ornek3.c: 215:         sonuc |= (uint16_t)ADRESH << 8;
  1405  0015C4  50C4               	movf	196,w,c	;volatile
  1406  0015C6  6E49               	movwf	(??_karaSimsekHiziOkuma+1)^0,c
  1407  0015C8  6A48               	clrf	??_karaSimsekHiziOkuma^0,c
  1408  0015CA  5048               	movf	??_karaSimsekHiziOkuma^0,w,c
  1409  0015CC  124B               	iorwf	karaSimsekHiziOkuma@sonuc^0,f,c
  1410  0015CE  5049               	movf	(??_karaSimsekHiziOkuma+1)^0,w,c
  1411  0015D0  124C               	iorwf	(karaSimsekHiziOkuma@sonuc+1)^0,f,c
  1412                           
  1413                           ;ornek3.c: 216:         sonuc |= (uint16_t)ADRESL;
  1414  0015D2  50C3               	movf	195,w,c	;volatile
  1415  0015D4  124B               	iorwf	karaSimsekHiziOkuma@sonuc^0,f,c
  1416                           
  1417                           ;ornek3.c: 217:         if(sonuc != oncekiSonuc){
  1418  0015D6  5019               	movf	karaSimsekHiziOkuma@oncekiSonuc^0,w,c
  1419  0015D8  184B               	xorwf	karaSimsekHiziOkuma@sonuc^0,w,c
  1420  0015DA  E104               	bnz	u1570
  1421  0015DC  501A               	movf	(karaSimsekHiziOkuma@oncekiSonuc+1)^0,w,c
  1422  0015DE  184C               	xorwf	(karaSimsekHiziOkuma@sonuc+1)^0,w,c
  1423  0015E0  B4D8               	btfsc	status,2,c
  1424  0015E2  D023               	goto	l2560
  1425  0015E4                     u1570:
  1426                           
  1427                           ;ornek3.c: 218:             gercekDeger = sonuc;
  1428  0015E4  C04B  F01D         	movff	karaSimsekHiziOkuma@sonuc,_gercekDeger
  1429  0015E8  C04C  F01E         	movff	karaSimsekHiziOkuma@sonuc+1,_gercekDeger+1
  1430                           
  1431                           ;ornek3.c: 221:             if(sonuc <= 50){
  1432  0015EC  504C               	movf	(karaSimsekHiziOkuma@sonuc+1)^0,w,c
  1433  0015EE  E109               	bnz	l2554
  1434  0015F0  0E33               	movlw	51
  1435  0015F2  5C4B               	subwf	karaSimsekHiziOkuma@sonuc^0,w,c
  1436  0015F4  B0D8               	btfsc	status,0,c
  1437  0015F6  D005               	goto	l2554
  1438                           
  1439                           ;ornek3.c: 223:                 karaSimsekHizi = 10;
  1440  0015F8  0E00               	movlw	0
  1441  0015FA  6E1C               	movwf	(_karaSimsekHizi+1)^0,c
  1442  0015FC  0E0A               	movlw	10
  1443  0015FE  6E1B               	movwf	_karaSimsekHizi^0,c
  1444                           
  1445                           ;ornek3.c: 224:             } else{
  1446  001600  D00E               	goto	l2556
  1447  001602                     l2554:
  1448                           
  1449                           ;ornek3.c: 225:                 karaSimsekHizi = sonuc / 5;
  1450  001602  C04B  F040         	movff	karaSimsekHiziOkuma@sonuc,___lwdiv@dividend
  1451  001606  C04C  F041         	movff	karaSimsekHiziOkuma@sonuc+1,___lwdiv@dividend+1
  1452  00160A  0E00               	movlw	0
  1453  00160C  6E43               	movwf	(___lwdiv@divisor+1)^0,c
  1454  00160E  0E05               	movlw	5
  1455  001610  6E42               	movwf	___lwdiv@divisor^0,c
  1456  001612  EC47  F00C         	call	___lwdiv	;wreg free
  1457  001616  C040  F01B         	movff	?___lwdiv,_karaSimsekHizi
  1458  00161A  C041  F01C         	movff	?___lwdiv+1,_karaSimsekHizi+1
  1459  00161E                     l2556:
  1460                           
  1461                           ;ornek3.c: 227:             karasimsekHiziOkundu = 1;
  1462  00161E  0E01               	movlw	1
  1463  001620  6E2D               	movwf	_karasimsekHiziOkundu^0,c
  1464                           
  1465                           ;ornek3.c: 228:             oncekiSonuc = sonuc;
  1466  001622  C04B  F019         	movff	karaSimsekHiziOkuma@sonuc,karaSimsekHiziOkuma@oncekiSonuc
  1467  001626  C04C  F01A         	movff	karaSimsekHiziOkuma@sonuc+1,karaSimsekHiziOkuma@oncekiSonuc+1
  1468  00162A                     l2560:
  1469                           
  1470                           ;ornek3.c: 230:         ( (sure_t*) &s4 )->kacTik = (300u / (1000u / 1000u)); ( (sure_t*
      +                          ) &s4 )->baslangic = tikSayiminiAl(); ( (gorev_t*) tutucu )->sn = 230; case 230:; if(!((
      +                           (tikSayiminiAl() - ( (sure_t*) &s4 )->baslangic) >= ( (sure_t*) &s4 )->kacTik ))){ retu
      +                          rn 0; };
  1471  00162A  0E01               	movlw	1
  1472  00162C  6E08               	movwf	(karaSimsekHiziOkuma@s4+3)^0,c
  1473  00162E  0E2C               	movlw	44
  1474  001630  6E07               	movwf	(karaSimsekHiziOkuma@s4+2)^0,c
  1475  001632  EC9F  F00C         	call	_tikSayiminiAl	;wreg free
  1476  001636  C040  F005         	movff	?_tikSayiminiAl,karaSimsekHiziOkuma@s4
  1477  00163A  C041  F006         	movff	?_tikSayiminiAl+1,karaSimsekHiziOkuma@s4+1
  1478  00163E  5047               	movf	karaSimsekHiziOkuma@tutucu^0,w,c
  1479  001640  6ED9               	movwf	fsr2l,c
  1480  001642  6ADA               	clrf	fsr2h,c
  1481  001644  0EE6               	movlw	230
  1482  001646  6EDE               	movwf	postinc2,c
  1483  001648  0E00               	movlw	0
  1484  00164A  6EDD               	movwf	postdec2,c
  1485  00164C                     l2566:
  1486  00164C  EC9F  F00C         	call	_tikSayiminiAl	;wreg free
  1487  001650  5005               	movf	karaSimsekHiziOkuma@s4^0,w,c
  1488  001652  5E40               	subwf	?_tikSayiminiAl^0,f,c
  1489  001654  5006               	movf	(karaSimsekHiziOkuma@s4+1)^0,w,c
  1490  001656  5A41               	subwfb	(?_tikSayiminiAl+1)^0,f,c
  1491  001658  5007               	movf	(karaSimsekHiziOkuma@s4+2)^0,w,c
  1492  00165A  5C40               	subwf	?_tikSayiminiAl^0,w,c
  1493  00165C  5008               	movf	(karaSimsekHiziOkuma@s4+3)^0,w,c
  1494  00165E  5841               	subwfb	(?_tikSayiminiAl+1)^0,w,c
  1495  001660  A0D8               	btfss	status,0,c
  1496  001662  0012               	return	
  1497  001664  D7A1               	goto	l2532
  1498  001666                     l2578:
  1499  001666  5047               	movf	karaSimsekHiziOkuma@tutucu^0,w,c
  1500  001668  6ED9               	movwf	fsr2l,c
  1501  00166A  6ADA               	clrf	fsr2h,c
  1502  00166C  CFDE F048          	movff	postinc2,??_karaSimsekHiziOkuma
  1503  001670  CFDD F049          	movff	postdec2,??_karaSimsekHiziOkuma+1
  1504                           
  1505                           ; Switch on 2 bytes has been partitioned into a top level switch of size 1, and 1 sub-sw
      +                          itches
  1506                           ; Switch size 1, requested type "simple"
  1507                           ; Number of cases is 1, Range of values is 0 to 0
  1508                           ; switch strategies available:
  1509                           ; Name         Instructions Cycles
  1510                           ; simple_byte            4     3 (average)
  1511                           ;	Chosen strategy is simple_byte
  1512  001674  5049               	movf	(??_karaSimsekHiziOkuma+1)^0,w,c
  1513  001676  0A00               	xorlw	0	; case 0
  1514  001678  A4D8               	btfss	status,2,c
  1515  00167A  0012               	return	
  1516                           
  1517                           ; Switch size 1, requested type "simple"
  1518                           ; Number of cases is 4, Range of values is 0 to 233
  1519                           ; switch strategies available:
  1520                           ; Name         Instructions Cycles
  1521                           ; simple_byte           13     7 (average)
  1522                           ;	Chosen strategy is simple_byte
  1523  00167C  5048               	movf	??_karaSimsekHiziOkuma^0,w,c
  1524  00167E  0A00               	xorlw	0	; case 0
  1525  001680  B4D8               	btfsc	status,2,c
  1526  001682  D78A               	goto	l245
  1527  001684  0AD3               	xorlw	211	; case 211
  1528  001686  B4D8               	btfsc	status,2,c
  1529  001688  D797               	goto	l2536
  1530  00168A  0A35               	xorlw	53	; case 230
  1531  00168C  B4D8               	btfsc	status,2,c
  1532  00168E  D7DE               	goto	l2566
  1533  001690  0A0F               	xorlw	15	; case 233
  1534  001692  0012               	return	
  1535  001694                     __end_of_karaSimsekHiziOkuma:
  1536                           	callstack 0
  1537                           
  1538 ;; *************** function _karaSimsek *****************
  1539 ;; Defined at:
  1540 ;;		line 153 in file "ornek3.c"
  1541 ;; Parameters:    Size  Location     Type
  1542 ;;  tutucu          1   18[COMRAM] PTR void 
  1543 ;;		 -> main@ksmsk(2), 
  1544 ;; Auto vars:     Size  Location     Type
  1545 ;;  VAZGECIS_BAY    1    0        unsigned char 
  1546 ;; Return value:  Size  Location     Type
  1547 ;;                  1    wreg      unsigned char 
  1548 ;; Registers used:
  1549 ;;		wreg, fsr2l, fsr2h, status,2, status,0, cstack
  1550 ;; Tracked objects:
  1551 ;;		On entry : 0/0
  1552 ;;		On exit  : 0/0
  1553 ;;		Unchanged: 0/0
  1554 ;; Data sizes:     COMRAM   BANK0   BANK1   BANK2   BANK3   BANK4   BANK5   BANK6   BANK7   BANK8   BANK9  BANK10  BANK1
      +1  BANK12  BANK13  BANK14  BANK15
  1555 ;;      Params:         1       0       0       0       0       0       0       0       0       0       0       0       
      +0       0       0       0       0
  1556 ;;      Locals:         1       0       0       0       0       0       0       0       0       0       0       0       
      +0       0       0       0       0
  1557 ;;      Temps:          2       0       0       0       0       0       0       0       0       0       0       0       
      +0       0       0       0       0
  1558 ;;      Totals:         4       0       0       0       0       0       0       0       0       0       0       0       
      +0       0       0       0       0
  1559 ;;Total ram usage:        4 bytes
  1560 ;; Hardware stack levels used:    1
  1561 ;; Hardware stack levels required when called:    4
  1562 ;; This function calls:
  1563 ;;		_tikSayiminiAl
  1564 ;; This function is called by:
  1565 ;;		_main
  1566 ;; This function uses a non-reentrant model
  1567 ;;
  1568                           
  1569                           	psect	text7
  1570  00176C                     __ptext7:
  1571                           	callstack 0
  1572  00176C                     _karaSimsek:
  1573                           	callstack 26
  1574                           
  1575                           ;incstack = 0
  1576  00176C  D03F               	goto	l2518
  1577  00176E                     l2490:
  1578                           
  1579                           ;ornek3.c: 157:     static sure_t s3;;ornek3.c: 158:     static _Bool sola;;ornek3.c: 16
      +                          1:     LATD = 0;
  1580  00176E  0E00               	movlw	0
  1581  001770  6E8C               	movwf	140,c	;volatile
  1582                           
  1583                           ;ornek3.c: 162:     ANSELD = 0;
  1584  001772  0E00               	movlw	0
  1585  001774  010F               	movlb	15	; () banked
  1586  001776  6F3B               	movwf	59,b	;volatile
  1587                           
  1588                           ;ornek3.c: 163:     TRISD = 0;
  1589  001778  0E00               	movlw	0
  1590  00177A  6E95               	movwf	149,c	;volatile
  1591                           
  1592                           ;ornek3.c: 164:     LATD = 0x1;
  1593  00177C  0E01               	movlw	1
  1594  00177E  6E8C               	movwf	140,c	;volatile
  1595                           
  1596                           ;ornek3.c: 165:     sola = 1;
  1597  001780  0E01               	movlw	1
  1598  001782  6E29               	movwf	karaSimsek@sola^0,c
  1599                           
  1600                           ;ornek3.c: 166:     karaSimsekHizi = 50;
  1601  001784  0E00               	movlw	0
  1602  001786  6E1C               	movwf	(_karaSimsekHizi+1)^0,c
  1603  001788  0E32               	movlw	50
  1604  00178A  6E1B               	movwf	_karaSimsekHizi^0,c
  1605  00178C                     l231:
  1606                           
  1607                           ;ornek3.c: 170:         if(sola){
  1608  00178C  5029               	movf	karaSimsek@sola^0,w,c
  1609  00178E  B4D8               	btfsc	status,2,c
  1610  001790  D008               	goto	l2496
  1611                           
  1612                           ;ornek3.c: 171:             PORTD <<= 1;
  1613  001792  90D8               	bcf	status,0,c
  1614  001794  3683               	rlcf	131,f,c
  1615                           
  1616                           ;volatile
  1617                           ;ornek3.c: 173:             if(PORTD == 0x80)
  1618  001796  0E80               	movlw	128
  1619  001798  1883               	xorwf	131,w,c	;volatile
  1620  00179A  A4D8               	btfss	status,2,c
  1621  00179C  D009               	goto	l2500
  1622                           
  1623                           ;ornek3.c: 174:                 sola = 0;
  1624  00179E  0E00               	movlw	0
  1625  0017A0  D006               	goto	L2
  1626  0017A2                     l2496:
  1627                           
  1628                           ;ornek3.c: 177:             PORTD >>= 1;
  1629  0017A2  90D8               	bcf	status,0,c
  1630  0017A4  3283               	rrcf	131,f,c
  1631                           
  1632                           ;volatile
  1633                           ;ornek3.c: 179:             if(PORTD == 1)
  1634  0017A6  0483               	decf	131,w,c	;volatile
  1635  0017A8  A4D8               	btfss	status,2,c
  1636  0017AA  D002               	goto	l2500
  1637                           
  1638                           ;ornek3.c: 180:                 sola = 1;
  1639  0017AC  0E01               	movlw	1
  1640  0017AE                     L2:
  1641  0017AE  6E29               	movwf	karaSimsek@sola^0,c
  1642  0017B0                     l2500:
  1643                           
  1644                           ;ornek3.c: 183:   ( (sure_t*) &s3 )->kacTik = (karaSimsekHizi / (1000u / 1000u)); ( (sur
      +                          e_t*) &s3 )->baslangic = tikSayiminiAl(); ( (gorev_t*) tutucu )->sn = 183; case 183:; if
      +                          (!(( (tikSayiminiAl() - ( (sure_t*) &s3 )->baslangic) >= ( (sure_t*) &s3 )->kacTik ))){ 
      +                          return 0; };
  1645  0017B0  C01B  F00B         	movff	_karaSimsekHizi,karaSimsek@s3+2
  1646  0017B4  C01C  F00C         	movff	_karaSimsekHizi+1,karaSimsek@s3+3
  1647  0017B8  EC9F  F00C         	call	_tikSayiminiAl	;wreg free
  1648  0017BC  C040  F009         	movff	?_tikSayiminiAl,karaSimsek@s3
  1649  0017C0  C041  F00A         	movff	?_tikSayiminiAl+1,karaSimsek@s3+1
  1650  0017C4  5044               	movf	karaSimsek@tutucu^0,w,c
  1651  0017C6  6ED9               	movwf	fsr2l,c
  1652  0017C8  6ADA               	clrf	fsr2h,c
  1653  0017CA  0EB7               	movlw	183
  1654  0017CC  6EDE               	movwf	postinc2,c
  1655  0017CE  0E00               	movlw	0
  1656  0017D0  6EDD               	movwf	postdec2,c
  1657  0017D2                     l2506:
  1658  0017D2  EC9F  F00C         	call	_tikSayiminiAl	;wreg free
  1659  0017D6  5009               	movf	karaSimsek@s3^0,w,c
  1660  0017D8  5E40               	subwf	?_tikSayiminiAl^0,f,c
  1661  0017DA  500A               	movf	(karaSimsek@s3+1)^0,w,c
  1662  0017DC  5A41               	subwfb	(?_tikSayiminiAl+1)^0,f,c
  1663  0017DE  500B               	movf	(karaSimsek@s3+2)^0,w,c
  1664  0017E0  5C40               	subwf	?_tikSayiminiAl^0,w,c
  1665  0017E2  500C               	movf	(karaSimsek@s3+3)^0,w,c
  1666  0017E4  5841               	subwfb	(?_tikSayiminiAl+1)^0,w,c
  1667  0017E6  A0D8               	btfss	status,0,c
  1668  0017E8  0012               	return	
  1669  0017EA  D7D0               	goto	l231
  1670  0017EC                     l2518:
  1671  0017EC  5044               	movf	karaSimsek@tutucu^0,w,c
  1672  0017EE  6ED9               	movwf	fsr2l,c
  1673  0017F0  6ADA               	clrf	fsr2h,c
  1674  0017F2  CFDE F045          	movff	postinc2,??_karaSimsek
  1675  0017F6  CFDD F046          	movff	postdec2,??_karaSimsek+1
  1676                           
  1677                           ; Switch on 2 bytes has been partitioned into a top level switch of size 1, and 1 sub-sw
      +                          itches
  1678                           ; Switch size 1, requested type "simple"
  1679                           ; Number of cases is 1, Range of values is 0 to 0
  1680                           ; switch strategies available:
  1681                           ; Name         Instructions Cycles
  1682                           ; simple_byte            4     3 (average)
  1683                           ;	Chosen strategy is simple_byte
  1684  0017FA  5046               	movf	(??_karaSimsek+1)^0,w,c
  1685  0017FC  0A00               	xorlw	0	; case 0
  1686  0017FE  A4D8               	btfss	status,2,c
  1687  001800  0012               	return	
  1688                           
  1689                           ; Switch size 1, requested type "simple"
  1690                           ; Number of cases is 3, Range of values is 0 to 186
  1691                           ; switch strategies available:
  1692                           ; Name         Instructions Cycles
  1693                           ; simple_byte           10     6 (average)
  1694                           ;	Chosen strategy is simple_byte
  1695  001802  5045               	movf	??_karaSimsek^0,w,c
  1696  001804  0A00               	xorlw	0	; case 0
  1697  001806  B4D8               	btfsc	status,2,c
  1698  001808  D7B2               	goto	l2490
  1699  00180A  0AB7               	xorlw	183	; case 183
  1700  00180C  B4D8               	btfsc	status,2,c
  1701  00180E  D7E1               	goto	l2506
  1702  001810  0A0D               	xorlw	13	; case 186
  1703  001812  0012               	return	
  1704  001814                     __end_of_karaSimsek:
  1705                           	callstack 0
  1706                           
  1707 ;; *************** function _interruptIlkle *****************
  1708 ;; Defined at:
  1709 ;;		line 31 in file "interrupt.c"
  1710 ;; Parameters:    Size  Location     Type
  1711 ;;		None
  1712 ;; Auto vars:     Size  Location     Type
  1713 ;;		None
  1714 ;; Return value:  Size  Location     Type
  1715 ;;                  1    wreg      void 
  1716 ;; Registers used:
  1717 ;;		None
  1718 ;; Tracked objects:
  1719 ;;		On entry : 0/0
  1720 ;;		On exit  : 0/0
  1721 ;;		Unchanged: 0/0
  1722 ;; Data sizes:     COMRAM   BANK0   BANK1   BANK2   BANK3   BANK4   BANK5   BANK6   BANK7   BANK8   BANK9  BANK10  BANK1
      +1  BANK12  BANK13  BANK14  BANK15
  1723 ;;      Params:         0       0       0       0       0       0       0       0       0       0       0       0       
      +0       0       0       0       0
  1724 ;;      Locals:         0       0       0       0       0       0       0       0       0       0       0       0       
      +0       0       0       0       0
  1725 ;;      Temps:          0       0       0       0       0       0       0       0       0       0       0       0       
      +0       0       0       0       0
  1726 ;;      Totals:         0       0       0       0       0       0       0       0       0       0       0       0       
      +0       0       0       0       0
  1727 ;;Total ram usage:        0 bytes
  1728 ;; Hardware stack levels used:    1
  1729 ;; Hardware stack levels required when called:    3
  1730 ;; This function calls:
  1731 ;;		Nothing
  1732 ;; This function is called by:
  1733 ;;		_main
  1734 ;; This function uses a non-reentrant model
  1735 ;;
  1736                           
  1737                           	psect	text8
  1738  00198E                     __ptext8:
  1739                           	callstack 0
  1740  00198E                     _interruptIlkle:
  1741                           	callstack 27
  1742                           
  1743                           ;interrupt.c: 34:     RCONbits.IPEN = 0;
  1744                           
  1745                           ;incstack = 0
  1746  00198E  9ED0               	bcf	208,7,c	;volatile
  1747  001990  0012               	return		;funcret
  1748  001992                     __end_of_interruptIlkle:
  1749                           	callstack 0
  1750                           
  1751 ;; *************** function _gostergeGuncelle *****************
  1752 ;; Defined at:
  1753 ;;		line 289 in file "ornek3.c"
  1754 ;; Parameters:    Size  Location     Type
  1755 ;;  tutucu          1   18[COMRAM] PTR void 
  1756 ;;		 -> main@gg(2), 
  1757 ;; Auto vars:     Size  Location     Type
  1758 ;;  VAZGECIS_BAY    1    0        unsigned char 
  1759 ;; Return value:  Size  Location     Type
  1760 ;;                  1    wreg      unsigned char 
  1761 ;; Registers used:
  1762 ;;		wreg, fsr2l, fsr2h, status,2, status,0, tblptrl, tblptrh, tblptru, cstack
  1763 ;; Tracked objects:
  1764 ;;		On entry : 0/0
  1765 ;;		On exit  : 0/0
  1766 ;;		Unchanged: 0/0
  1767 ;; Data sizes:     COMRAM   BANK0   BANK1   BANK2   BANK3   BANK4   BANK5   BANK6   BANK7   BANK8   BANK9  BANK10  BANK1
      +1  BANK12  BANK13  BANK14  BANK15
  1768 ;;      Params:         1       0       0       0       0       0       0       0       0       0       0       0       
      +0       0       0       0       0
  1769 ;;      Locals:         1       0       0       0       0       0       0       0       0       0       0       0       
      +0       0       0       0       0
  1770 ;;      Temps:          2       0       0       0       0       0       0       0       0       0       0       0       
      +0       0       0       0       0
  1771 ;;      Totals:         4       0       0       0       0       0       0       0       0       0       0       0       
      +0       0       0       0       0
  1772 ;;Total ram usage:        4 bytes
  1773 ;; Hardware stack levels used:    1
  1774 ;; Hardware stack levels required when called:    4
  1775 ;; This function calls:
  1776 ;;		_tikSayiminiAl
  1777 ;; This function is called by:
  1778 ;;		_main
  1779 ;; This function uses a non-reentrant model
  1780 ;;
  1781                           
  1782                           	psect	text9
  1783  00127C                     __ptext9:
  1784                           	callstack 0
  1785  00127C                     _gostergeGuncelle:
  1786                           	callstack 26
  1787                           
  1788                           ;incstack = 0
  1789  00127C  D0CC               	goto	l2728
  1790  00127E                     l2642:
  1791                           
  1792                           ;ornek3.c: 309:     LATC = 0;
  1793  00127E  0E00               	movlw	0
  1794  001280  6E8B               	movwf	139,c	;volatile
  1795                           
  1796                           ;ornek3.c: 310:     ANSELC = 0;
  1797  001282  0E00               	movlw	0
  1798  001284  010F               	movlb	15	; () banked
  1799  001286  6F3A               	movwf	58,b	;volatile
  1800                           
  1801                           ;ornek3.c: 311:     TRISC = 0;
  1802  001288  0E00               	movlw	0
  1803  00128A  6E94               	movwf	148,c	;volatile
  1804                           
  1805                           ;ornek3.c: 314:     LATB = 0;
  1806  00128C  0E00               	movlw	0
  1807  00128E  6E8A               	movwf	138,c	;volatile
  1808                           
  1809                           ;ornek3.c: 315:     ANSELB = 0xF0;
  1810  001290  0EF0               	movlw	240
  1811  001292  6F39               	movwf	57,b	;volatile
  1812                           
  1813                           ;ornek3.c: 316:     TRISB = 0xF0;
  1814  001294  0EF0               	movlw	240
  1815  001296  6E93               	movwf	147,c	;volatile
  1816  001298                     l2644:
  1817                           
  1818                           ;ornek3.c: 321:         LATB &= 0xF0;
  1819  001298  0EF0               	movlw	240
  1820  00129A  168A               	andwf	138,f,c	;volatile
  1821                           
  1822                           ;ornek3.c: 322:         LATC = BCDdenOrtakAnoda[gosterge[0]];
  1823  00129C  5015               	movf	_gosterge^0,w,c
  1824  00129E  0F01               	addlw	low gostergeGuncelle@BCDdenOrtakAnoda
  1825  0012A0  6E45               	movwf	??_gostergeGuncelle^0,c
  1826  0012A2  C045  FFF6         	movff	??_gostergeGuncelle,tblptrl
  1827  0012A6                     	if	1	;There is more than 1 active tblptr byte
  1828  0012A6  0E10               	movlw	high __smallconst
  1829  0012A8  6EF7               	movwf	tblptrh,c
  1830  0012AA                     	endif
  1831  0012AA                     	if	1	;Program memory is < 0x10000, tblptru is always zero
  1832  0012AA  6AF8               	clrf	tblptru,c
  1833  0012AC                     	endif
  1834  0012AC                     	if	0	;tblptru may be non-zero
  1835  0012AC                     	endif
  1836  0012AC  0008               	tblrd		*
  1837  0012AE  CFF5 FF8B          	movff	tablat,3979	;volatile
  1838                           
  1839                           ;ornek3.c: 323:         LATBbits.LATB0 = 1;
  1840  0012B2  808A               	bsf	138,0,c	;volatile
  1841                           
  1842                           ;ornek3.c: 324:         ( (sure_t*) &s5 )->kacTik = (5u / (1000u / 1000u)); ( (sure_t*) 
      +                          &s5 )->baslangic = tikSayiminiAl(); ( (gorev_t*) tutucu )->sn = 324; case 324:; if(!(( (
      +                          tikSayiminiAl() - ( (sure_t*) &s5 )->baslangic) >= ( (sure_t*) &s5 )->kacTik ))){ return
      +                           0; };
  1843  0012B4  0E00               	movlw	0
  1844  0012B6  6E04               	movwf	(gostergeGuncelle@s5+3)^0,c
  1845  0012B8  0E05               	movlw	5
  1846  0012BA  6E03               	movwf	(gostergeGuncelle@s5+2)^0,c
  1847  0012BC  EC9F  F00C         	call	_tikSayiminiAl	;wreg free
  1848  0012C0  C040  F001         	movff	?_tikSayiminiAl,gostergeGuncelle@s5
  1849  0012C4  C041  F002         	movff	?_tikSayiminiAl+1,gostergeGuncelle@s5+1
  1850  0012C8  5044               	movf	gostergeGuncelle@tutucu^0,w,c
  1851  0012CA  6ED9               	movwf	fsr2l,c
  1852  0012CC  6ADA               	clrf	fsr2h,c
  1853  0012CE  0E44               	movlw	68
  1854  0012D0  6EDE               	movwf	postinc2,c
  1855  0012D2  0E01               	movlw	1
  1856  0012D4  6EDD               	movwf	postdec2,c
  1857  0012D6                     l2656:
  1858  0012D6  EC9F  F00C         	call	_tikSayiminiAl	;wreg free
  1859  0012DA  5001               	movf	gostergeGuncelle@s5^0,w,c
  1860  0012DC  5E40               	subwf	?_tikSayiminiAl^0,f,c
  1861  0012DE  5002               	movf	(gostergeGuncelle@s5+1)^0,w,c
  1862  0012E0  5A41               	subwfb	(?_tikSayiminiAl+1)^0,f,c
  1863  0012E2  5003               	movf	(gostergeGuncelle@s5+2)^0,w,c
  1864  0012E4  5C40               	subwf	?_tikSayiminiAl^0,w,c
  1865  0012E6  5004               	movf	(gostergeGuncelle@s5+3)^0,w,c
  1866  0012E8  5841               	subwfb	(?_tikSayiminiAl+1)^0,w,c
  1867  0012EA  A0D8               	btfss	status,0,c
  1868  0012EC  0012               	return	
  1869                           
  1870                           ;ornek3.c: 327:         if( (gosterge[3] != 0 || gosterge[2] != 0) || gosterge[1] != 0){
  1871  0012EE  5018               	movf	(_gosterge+3)^0,w,c
  1872  0012F0  A4D8               	btfss	status,2,c
  1873  0012F2  D006               	goto	u1680
  1874  0012F4  5017               	movf	(_gosterge+2)^0,w,c
  1875  0012F6  A4D8               	btfss	status,2,c
  1876  0012F8  D003               	goto	u1680
  1877  0012FA  5016               	movf	(_gosterge+1)^0,w,c
  1878  0012FC  B4D8               	btfsc	status,2,c
  1879  0012FE  D02B               	goto	l2682
  1880  001300                     u1680:
  1881                           
  1882                           ;ornek3.c: 328:             LATB &= 0xF0;
  1883  001300  0EF0               	movlw	240
  1884  001302  168A               	andwf	138,f,c	;volatile
  1885                           
  1886                           ;ornek3.c: 329:             LATC = BCDdenOrtakAnoda[gosterge[1]];
  1887  001304  5016               	movf	(_gosterge+1)^0,w,c
  1888  001306  0F01               	addlw	low gostergeGuncelle@BCDdenOrtakAnoda
  1889  001308  6E45               	movwf	??_gostergeGuncelle^0,c
  1890  00130A  C045  FFF6         	movff	??_gostergeGuncelle,tblptrl
  1891  00130E                     	if	1	;There is more than 1 active tblptr byte
  1892  00130E  0E10               	movlw	high __smallconst
  1893  001310  6EF7               	movwf	tblptrh,c
  1894  001312                     	endif
  1895  001312                     	if	1	;Program memory is < 0x10000, tblptru is always zero
  1896  001312  6AF8               	clrf	tblptru,c
  1897  001314                     	endif
  1898  001314                     	if	0	;tblptru may be non-zero
  1899  001314                     	endif
  1900  001314  0008               	tblrd		*
  1901  001316  CFF5 FF8B          	movff	tablat,3979	;volatile
  1902                           
  1903                           ;ornek3.c: 330:             LATBbits.LATB1 = 1;
  1904  00131A  828A               	bsf	138,1,c	;volatile
  1905                           
  1906                           ;ornek3.c: 331:             ( (sure_t*) &s5 )->kacTik = (5u / (1000u / 1000u)); ( (sure_
      +                          t*) &s5 )->baslangic = tikSayiminiAl(); ( (gorev_t*) tutucu )->sn = 331; case 331:; if(!
      +                          (( (tikSayiminiAl() - ( (sure_t*) &s5 )->baslangic) >= ( (sure_t*) &s5 )->kacTik ))){ re
      +                          turn 0; };
  1907  00131C  0E00               	movlw	0
  1908  00131E  6E04               	movwf	(gostergeGuncelle@s5+3)^0,c
  1909  001320  0E05               	movlw	5
  1910  001322  6E03               	movwf	(gostergeGuncelle@s5+2)^0,c
  1911  001324  EC9F  F00C         	call	_tikSayiminiAl	;wreg free
  1912  001328  C040  F001         	movff	?_tikSayiminiAl,gostergeGuncelle@s5
  1913  00132C  C041  F002         	movff	?_tikSayiminiAl+1,gostergeGuncelle@s5+1
  1914  001330  5044               	movf	gostergeGuncelle@tutucu^0,w,c
  1915  001332  6ED9               	movwf	fsr2l,c
  1916  001334  6ADA               	clrf	fsr2h,c
  1917  001336  0E4B               	movlw	75
  1918  001338  6EDE               	movwf	postinc2,c
  1919  00133A  0E01               	movlw	1
  1920  00133C  6EDD               	movwf	postdec2,c
  1921  00133E                     l2678:
  1922  00133E  EC9F  F00C         	call	_tikSayiminiAl	;wreg free
  1923  001342  5001               	movf	gostergeGuncelle@s5^0,w,c
  1924  001344  5E40               	subwf	?_tikSayiminiAl^0,f,c
  1925  001346  5002               	movf	(gostergeGuncelle@s5+1)^0,w,c
  1926  001348  5A41               	subwfb	(?_tikSayiminiAl+1)^0,f,c
  1927  00134A  5003               	movf	(gostergeGuncelle@s5+2)^0,w,c
  1928  00134C  5C40               	subwf	?_tikSayiminiAl^0,w,c
  1929  00134E  5004               	movf	(gostergeGuncelle@s5+3)^0,w,c
  1930  001350  5841               	subwfb	(?_tikSayiminiAl+1)^0,w,c
  1931  001352  A0D8               	btfss	status,0,c
  1932  001354  0012               	return	
  1933  001356                     l2682:
  1934                           
  1935                           ;ornek3.c: 335:         if(gosterge[3] != 0 || gosterge[2] != 0){
  1936  001356  5018               	movf	(_gosterge+3)^0,w,c
  1937  001358  A4D8               	btfss	status,2,c
  1938  00135A  D003               	goto	u1710
  1939  00135C  5017               	movf	(_gosterge+2)^0,w,c
  1940  00135E  B4D8               	btfsc	status,2,c
  1941  001360  D02B               	goto	l2702
  1942  001362                     u1710:
  1943                           
  1944                           ;ornek3.c: 336:             LATB &= 0xF0;
  1945  001362  0EF0               	movlw	240
  1946  001364  168A               	andwf	138,f,c	;volatile
  1947                           
  1948                           ;ornek3.c: 337:             LATC = BCDdenOrtakAnoda[gosterge[2]];
  1949  001366  5017               	movf	(_gosterge+2)^0,w,c
  1950  001368  0F01               	addlw	low gostergeGuncelle@BCDdenOrtakAnoda
  1951  00136A  6E45               	movwf	??_gostergeGuncelle^0,c
  1952  00136C  C045  FFF6         	movff	??_gostergeGuncelle,tblptrl
  1953  001370                     	if	1	;There is more than 1 active tblptr byte
  1954  001370  0E10               	movlw	high __smallconst
  1955  001372  6EF7               	movwf	tblptrh,c
  1956  001374                     	endif
  1957  001374                     	if	1	;Program memory is < 0x10000, tblptru is always zero
  1958  001374  6AF8               	clrf	tblptru,c
  1959  001376                     	endif
  1960  001376                     	if	0	;tblptru may be non-zero
  1961  001376                     	endif
  1962  001376  0008               	tblrd		*
  1963  001378  CFF5 FF8B          	movff	tablat,3979	;volatile
  1964                           
  1965                           ;ornek3.c: 338:             LATBbits.LATB2 = 1;
  1966  00137C  848A               	bsf	138,2,c	;volatile
  1967                           
  1968                           ;ornek3.c: 339:             ( (sure_t*) &s5 )->kacTik = (5u / (1000u / 1000u)); ( (sure_
      +                          t*) &s5 )->baslangic = tikSayiminiAl(); ( (gorev_t*) tutucu )->sn = 339; case 339:; if(!
      +                          (( (tikSayiminiAl() - ( (sure_t*) &s5 )->baslangic) >= ( (sure_t*) &s5 )->kacTik ))){ re
      +                          turn 0; };
  1969  00137E  0E00               	movlw	0
  1970  001380  6E04               	movwf	(gostergeGuncelle@s5+3)^0,c
  1971  001382  0E05               	movlw	5
  1972  001384  6E03               	movwf	(gostergeGuncelle@s5+2)^0,c
  1973  001386  EC9F  F00C         	call	_tikSayiminiAl	;wreg free
  1974  00138A  C040  F001         	movff	?_tikSayiminiAl,gostergeGuncelle@s5
  1975  00138E  C041  F002         	movff	?_tikSayiminiAl+1,gostergeGuncelle@s5+1
  1976  001392  5044               	movf	gostergeGuncelle@tutucu^0,w,c
  1977  001394  6ED9               	movwf	fsr2l,c
  1978  001396  6ADA               	clrf	fsr2h,c
  1979  001398  0E53               	movlw	83
  1980  00139A  6EDE               	movwf	postinc2,c
  1981  00139C  0E01               	movlw	1
  1982  00139E  6EDD               	movwf	postdec2,c
  1983  0013A0                     l2698:
  1984  0013A0  EC9F  F00C         	call	_tikSayiminiAl	;wreg free
  1985  0013A4  5001               	movf	gostergeGuncelle@s5^0,w,c
  1986  0013A6  5E40               	subwf	?_tikSayiminiAl^0,f,c
  1987  0013A8  5002               	movf	(gostergeGuncelle@s5+1)^0,w,c
  1988  0013AA  5A41               	subwfb	(?_tikSayiminiAl+1)^0,f,c
  1989  0013AC  5003               	movf	(gostergeGuncelle@s5+2)^0,w,c
  1990  0013AE  5C40               	subwf	?_tikSayiminiAl^0,w,c
  1991  0013B0  5004               	movf	(gostergeGuncelle@s5+3)^0,w,c
  1992  0013B2  5841               	subwfb	(?_tikSayiminiAl+1)^0,w,c
  1993  0013B4  A0D8               	btfss	status,0,c
  1994  0013B6  0012               	return	
  1995  0013B8                     l2702:
  1996                           
  1997                           ;ornek3.c: 343:         if(gosterge[3] != 0){
  1998  0013B8  5018               	movf	(_gosterge+3)^0,w,c
  1999  0013BA  B4D8               	btfsc	status,2,c
  2000  0013BC  D76D               	goto	l2644
  2001                           
  2002                           ;ornek3.c: 344:             LATB &= 0xF0;
  2003  0013BE  0EF0               	movlw	240
  2004  0013C0  168A               	andwf	138,f,c	;volatile
  2005                           
  2006                           ;ornek3.c: 345:             LATC = BCDdenOrtakAnoda[gosterge[3]];
  2007  0013C2  5018               	movf	(_gosterge+3)^0,w,c
  2008  0013C4  0F01               	addlw	low gostergeGuncelle@BCDdenOrtakAnoda
  2009  0013C6  6E45               	movwf	??_gostergeGuncelle^0,c
  2010  0013C8  C045  FFF6         	movff	??_gostergeGuncelle,tblptrl
  2011  0013CC                     	if	1	;There is more than 1 active tblptr byte
  2012  0013CC  0E10               	movlw	high __smallconst
  2013  0013CE  6EF7               	movwf	tblptrh,c
  2014  0013D0                     	endif
  2015  0013D0                     	if	1	;Program memory is < 0x10000, tblptru is always zero
  2016  0013D0  6AF8               	clrf	tblptru,c
  2017  0013D2                     	endif
  2018  0013D2                     	if	0	;tblptru may be non-zero
  2019  0013D2                     	endif
  2020  0013D2  0008               	tblrd		*
  2021  0013D4  CFF5 FF8B          	movff	tablat,3979	;volatile
  2022                           
  2023                           ;ornek3.c: 346:             LATBbits.LATB3 = 1;
  2024  0013D8  868A               	bsf	138,3,c	;volatile
  2025                           
  2026                           ;ornek3.c: 347:             ( (sure_t*) &s5 )->kacTik = (5u / (1000u / 1000u)); ( (sure_
      +                          t*) &s5 )->baslangic = tikSayiminiAl(); ( (gorev_t*) tutucu )->sn = 347; case 347:; if(!
      +                          (( (tikSayiminiAl() - ( (sure_t*) &s5 )->baslangic) >= ( (sure_t*) &s5 )->kacTik ))){ re
      +                          turn 0; };
  2027  0013DA  0E00               	movlw	0
  2028  0013DC  6E04               	movwf	(gostergeGuncelle@s5+3)^0,c
  2029  0013DE  0E05               	movlw	5
  2030  0013E0  6E03               	movwf	(gostergeGuncelle@s5+2)^0,c
  2031  0013E2  EC9F  F00C         	call	_tikSayiminiAl	;wreg free
  2032  0013E6  C040  F001         	movff	?_tikSayiminiAl,gostergeGuncelle@s5
  2033  0013EA  C041  F002         	movff	?_tikSayiminiAl+1,gostergeGuncelle@s5+1
  2034  0013EE  5044               	movf	gostergeGuncelle@tutucu^0,w,c
  2035  0013F0  6ED9               	movwf	fsr2l,c
  2036  0013F2  6ADA               	clrf	fsr2h,c
  2037  0013F4  0E5B               	movlw	91
  2038  0013F6  6EDE               	movwf	postinc2,c
  2039  0013F8  0E01               	movlw	1
  2040  0013FA  6EDD               	movwf	postdec2,c
  2041  0013FC                     l2716:
  2042  0013FC  EC9F  F00C         	call	_tikSayiminiAl	;wreg free
  2043  001400  5001               	movf	gostergeGuncelle@s5^0,w,c
  2044  001402  5E40               	subwf	?_tikSayiminiAl^0,f,c
  2045  001404  5002               	movf	(gostergeGuncelle@s5+1)^0,w,c
  2046  001406  5A41               	subwfb	(?_tikSayiminiAl+1)^0,f,c
  2047  001408  5003               	movf	(gostergeGuncelle@s5+2)^0,w,c
  2048  00140A  5C40               	subwf	?_tikSayiminiAl^0,w,c
  2049  00140C  5004               	movf	(gostergeGuncelle@s5+3)^0,w,c
  2050  00140E  5841               	subwfb	(?_tikSayiminiAl+1)^0,w,c
  2051  001410  A0D8               	btfss	status,0,c
  2052  001412  0012               	return	
  2053  001414  D741               	goto	l2644
  2054  001416                     l2728:
  2055  001416  5044               	movf	gostergeGuncelle@tutucu^0,w,c
  2056  001418  6ED9               	movwf	fsr2l,c
  2057  00141A  6ADA               	clrf	fsr2h,c
  2058  00141C  CFDE F045          	movff	postinc2,??_gostergeGuncelle
  2059  001420  CFDD F046          	movff	postdec2,??_gostergeGuncelle+1
  2060                           
  2061                           ; Switch on 2 bytes has been partitioned into a top level switch of size 1, and 2 sub-sw
      +                          itches
  2062                           ; Switch size 1, requested type "simple"
  2063                           ; Number of cases is 2, Range of values is 0 to 1
  2064                           ; switch strategies available:
  2065                           ; Name         Instructions Cycles
  2066                           ; simple_byte            7     4 (average)
  2067                           ;	Chosen strategy is simple_byte
  2068  001424  5046               	movf	(??_gostergeGuncelle+1)^0,w,c
  2069  001426  0A00               	xorlw	0	; case 0
  2070  001428  B4D8               	btfsc	status,2,c
  2071  00142A  D004               	goto	l2938
  2072  00142C  0A01               	xorlw	1	; case 1
  2073  00142E  A4D8               	btfss	status,2,c
  2074  001430  0012               	return	
  2075  001432  D005               	goto	l2940
  2076  001434                     l2938:
  2077                           
  2078                           ; Switch size 1, requested type "simple"
  2079                           ; Number of cases is 1, Range of values is 0 to 0
  2080                           ; switch strategies available:
  2081                           ; Name         Instructions Cycles
  2082                           ; simple_byte            4     3 (average)
  2083                           ;	Chosen strategy is simple_byte
  2084  001434  5045               	movf	??_gostergeGuncelle^0,w,c
  2085  001436  0A00               	xorlw	0	; case 0
  2086  001438  A4D8               	btfss	status,2,c
  2087  00143A  0012               	return	
  2088  00143C  D720               	goto	l2642
  2089  00143E                     l2940:
  2090                           
  2091                           ; Switch size 1, requested type "simple"
  2092                           ; Number of cases is 5, Range of values is 68 to 96
  2093                           ; switch strategies available:
  2094                           ; Name         Instructions Cycles
  2095                           ; simple_byte           16     9 (average)
  2096                           ;	Chosen strategy is simple_byte
  2097  00143E  5045               	movf	??_gostergeGuncelle^0,w,c
  2098  001440  0A44               	xorlw	68	; case 68
  2099  001442  B4D8               	btfsc	status,2,c
  2100  001444  D748               	goto	l2656
  2101  001446  0A0F               	xorlw	15	; case 75
  2102  001448  B4D8               	btfsc	status,2,c
  2103  00144A  D779               	goto	l2678
  2104  00144C  0A18               	xorlw	24	; case 83
  2105  00144E  B4D8               	btfsc	status,2,c
  2106  001450  D7A7               	goto	l2698
  2107  001452  0A08               	xorlw	8	; case 91
  2108  001454  B4D8               	btfsc	status,2,c
  2109  001456  D7D2               	goto	l2716
  2110  001458  0A3B               	xorlw	59	; case 96
  2111  00145A  0012               	return	
  2112  00145C                     __end_of_gostergeGuncelle:
  2113                           	callstack 0
  2114                           
  2115 ;; *************** function _tikSayiminiAl *****************
  2116 ;; Defined at:
  2117 ;;		line 148 in file "../../../../../kaynak/gorev.c"
  2118 ;; Parameters:    Size  Location     Type
  2119 ;;		None
  2120 ;; Auto vars:     Size  Location     Type
  2121 ;;  sayim           2   16[COMRAM] unsigned int 
  2122 ;; Return value:  Size  Location     Type
  2123 ;;                  2   14[COMRAM] unsigned int 
  2124 ;; Registers used:
  2125 ;;		None
  2126 ;; Tracked objects:
  2127 ;;		On entry : 0/F
  2128 ;;		On exit  : 0/0
  2129 ;;		Unchanged: 0/0
  2130 ;; Data sizes:     COMRAM   BANK0   BANK1   BANK2   BANK3   BANK4   BANK5   BANK6   BANK7   BANK8   BANK9  BANK10  BANK1
      +1  BANK12  BANK13  BANK14  BANK15
  2131 ;;      Params:         2       0       0       0       0       0       0       0       0       0       0       0       
      +0       0       0       0       0
  2132 ;;      Locals:         2       0       0       0       0       0       0       0       0       0       0       0       
      +0       0       0       0       0
  2133 ;;      Temps:          0       0       0       0       0       0       0       0       0       0       0       0       
      +0       0       0       0       0
  2134 ;;      Totals:         4       0       0       0       0       0       0       0       0       0       0       0       
      +0       0       0       0       0
  2135 ;;Total ram usage:        4 bytes
  2136 ;; Hardware stack levels used:    1
  2137 ;; Hardware stack levels required when called:    3
  2138 ;; This function calls:
  2139 ;;		Nothing
  2140 ;; This function is called by:
  2141 ;;		_ledCakarlama1
  2142 ;;		_ledCakarlama2
  2143 ;;		_karaSimsek
  2144 ;;		_karaSimsekHiziOkuma
  2145 ;;		_gostergeGuncelle
  2146 ;; This function uses a non-reentrant model
  2147 ;;
  2148                           
  2149                           	psect	text10
  2150  00193E                     __ptext10:
  2151                           	callstack 0
  2152  00193E                     _tikSayiminiAl:
  2153                           	callstack 26
  2154                           
  2155                           ;../../../../../kaynak/gorev.c: 149:  unsigned int sayim;;../../../../../kaynak/gorev.c:
      +                           151:  intconYedek = INTCON; INTCONbits.GIEH = 0;;
  2156                           
  2157                           ;incstack = 0
  2158  00193E  CFF2 F02F          	movff	4082,_intconYedek@portmacro$F371	;volatile
  2159  001942  9EF2               	bcf	242,7,c	;volatile
  2160                           
  2161                           ;../../../../../kaynak/gorev.c: 152:  sayim = tikSayimi;
  2162  001944  C01F  F042         	movff	_tikSayimi,tikSayiminiAl@sayim
  2163  001948  C020  F043         	movff	_tikSayimi+1,tikSayiminiAl@sayim+1
  2164                           
  2165                           ;../../../../../kaynak/gorev.c: 154:  if(intconYedek & 0x80){ INTCONbits.GIEH = 1;; };
  2166  00194C  BE2F               	btfsc	_intconYedek@portmacro$F371^0,7,c
  2167  00194E  8EF2               	bsf	242,7,c	;volatile
  2168                           
  2169                           ;../../../../../kaynak/gorev.c: 155:  return sayim;
  2170  001950  C042  F040         	movff	tikSayiminiAl@sayim,?_tikSayiminiAl
  2171  001954  C043  F041         	movff	tikSayiminiAl@sayim+1,?_tikSayiminiAl+1
  2172  001958  0012               	return		;funcret
  2173  00195A                     __end_of_tikSayiminiAl:
  2174                           	callstack 0
  2175                           
  2176 ;; *************** function _gostergeDegeriGuncelle *****************
  2177 ;; Defined at:
  2178 ;;		line 242 in file "ornek3.c"
  2179 ;; Parameters:    Size  Location     Type
  2180 ;;  tutucu          1   21[COMRAM] PTR void 
  2181 ;;		 -> main@gdg(2), 
  2182 ;; Auto vars:     Size  Location     Type
  2183 ;;  olcekliDeger    2   25[COMRAM] unsigned short 
  2184 ;;  VAZGECIS_BAY    1    0        unsigned char 
  2185 ;; Return value:  Size  Location     Type
  2186 ;;                  1    wreg      unsigned char 
  2187 ;; Registers used:
  2188 ;;		wreg, fsr2l, fsr2h, status,2, status,0, cstack
  2189 ;; Tracked objects:
  2190 ;;		On entry : 0/0
  2191 ;;		On exit  : 0/0
  2192 ;;		Unchanged: 0/0
  2193 ;; Data sizes:     COMRAM   BANK0   BANK1   BANK2   BANK3   BANK4   BANK5   BANK6   BANK7   BANK8   BANK9  BANK10  BANK1
      +1  BANK12  BANK13  BANK14  BANK15
  2194 ;;      Params:         1       0       0       0       0       0       0       0       0       0       0       0       
      +0       0       0       0       0
  2195 ;;      Locals:         3       0       0       0       0       0       0       0       0       0       0       0       
      +0       0       0       0       0
  2196 ;;      Temps:          2       0       0       0       0       0       0       0       0       0       0       0       
      +0       0       0       0       0
  2197 ;;      Totals:         6       0       0       0       0       0       0       0       0       0       0       0       
      +0       0       0       0       0
  2198 ;;Total ram usage:        6 bytes
  2199 ;; Hardware stack levels used:    1
  2200 ;; Hardware stack levels required when called:    4
  2201 ;; This function calls:
  2202 ;;		___lwdiv
  2203 ;; This function is called by:
  2204 ;;		_main
  2205 ;; This function uses a non-reentrant model
  2206 ;;
  2207                           
  2208                           	psect	text11
  2209  001694                     __ptext11:
  2210                           	callstack 0
  2211  001694                     _gostergeDegeriGuncelle:
  2212                           	callstack 26
  2213                           
  2214                           ;incstack = 0
  2215  001694  D051               	goto	l2630
  2216  001696                     l2586:
  2217                           
  2218                           ;ornek3.c: 257:         ( (gorev_t*) tutucu )->sn = 257; case 257:; if(!(karasimsekHiziO
      +                          kundu == 1)){ return 0; };
  2219  001696  5047               	movf	gostergeDegeriGuncelle@tutucu^0,w,c
  2220  001698  6ED9               	movwf	fsr2l,c
  2221  00169A  6ADA               	clrf	fsr2h,c
  2222  00169C  0E01               	movlw	1
  2223  00169E  6EDE               	movwf	postinc2,c
  2224  0016A0  0E01               	movlw	1
  2225  0016A2  6EDD               	movwf	postdec2,c
  2226  0016A4                     l2588:
  2227  0016A4  042D               	decf	_karasimsekHiziOkundu^0,w,c
  2228  0016A6  A4D8               	btfss	status,2,c
  2229  0016A8  0012               	return	
  2230                           
  2231                           ;ornek3.c: 258:         karasimsekHiziOkundu = 0;
  2232  0016AA  0E00               	movlw	0
  2233  0016AC  6E2D               	movwf	_karasimsekHiziOkundu^0,c
  2234                           
  2235                           ;ornek3.c: 260:         uint16_t olcekliDeger = (uint16_t) (gercekDeger / (uint8_t) ((10
      +                          24u - 0u) / (214u - 10u)));
  2236  0016AE  C01D  F040         	movff	_gercekDeger,___lwdiv@dividend
  2237  0016B2  C01E  F041         	movff	_gercekDeger+1,___lwdiv@dividend+1
  2238  0016B6  0E00               	movlw	0
  2239  0016B8  6E43               	movwf	(___lwdiv@divisor+1)^0,c
  2240  0016BA  0E05               	movlw	5
  2241  0016BC  6E42               	movwf	___lwdiv@divisor^0,c
  2242  0016BE  EC47  F00C         	call	___lwdiv	;wreg free
  2243  0016C2  C040  F04B         	movff	?___lwdiv,gostergeDegeriGuncelle@olcekliDeger
  2244  0016C6  C041  F04C         	movff	?___lwdiv+1,gostergeDegeriGuncelle@olcekliDeger+1
  2245                           
  2246                           ;ornek3.c: 262:         if(olcekliDeger < 10u) {
  2247  0016CA  504C               	movf	(gostergeDegeriGuncelle@olcekliDeger+1)^0,w,c
  2248  0016CC  E108               	bnz	l270
  2249  0016CE  0E0A               	movlw	10
  2250  0016D0  5C4B               	subwf	gostergeDegeriGuncelle@olcekliDeger^0,w,c
  2251  0016D2  B0D8               	btfsc	status,0,c
  2252  0016D4  D004               	goto	l270
  2253                           
  2254                           ;ornek3.c: 263:             olcekliDeger = 10u;
  2255  0016D6  0E00               	movlw	0
  2256  0016D8  6E4C               	movwf	(gostergeDegeriGuncelle@olcekliDeger+1)^0,c
  2257  0016DA  0E0A               	movlw	10
  2258  0016DC  6E4B               	movwf	gostergeDegeriGuncelle@olcekliDeger^0,c
  2259  0016DE                     l270:
  2260                           
  2261                           ;ornek3.c: 265:         gosterge[3] = 0;
  2262  0016DE  0E00               	movlw	0
  2263  0016E0  6E18               	movwf	(_gosterge+3)^0,c
  2264                           
  2265                           ;ornek3.c: 266:         while(olcekliDeger > 999){
  2266  0016E2  D005               	goto	l2604
  2267  0016E4                     l2600:
  2268                           
  2269                           ;ornek3.c: 267:             olcekliDeger -= 1000;
  2270  0016E4  0EE8               	movlw	232
  2271  0016E6  5E4B               	subwf	gostergeDegeriGuncelle@olcekliDeger^0,f,c
  2272  0016E8  0E03               	movlw	3
  2273  0016EA  5A4C               	subwfb	(gostergeDegeriGuncelle@olcekliDeger+1)^0,f,c
  2274                           
  2275                           ;ornek3.c: 268:             gosterge[3]++;
  2276  0016EC  2A18               	incf	(_gosterge+3)^0,f,c
  2277  0016EE                     l2604:
  2278                           
  2279                           ;ornek3.c: 266:         while(olcekliDeger > 999){
  2280  0016EE  0EE8               	movlw	232
  2281  0016F0  5C4B               	subwf	gostergeDegeriGuncelle@olcekliDeger^0,w,c
  2282  0016F2  0E03               	movlw	3
  2283  0016F4  584C               	subwfb	(gostergeDegeriGuncelle@olcekliDeger+1)^0,w,c
  2284  0016F6  B0D8               	btfsc	status,0,c
  2285  0016F8  D7F5               	goto	l2600
  2286                           
  2287                           ;ornek3.c: 270:         gosterge[2] = 0;
  2288  0016FA  0E00               	movlw	0
  2289  0016FC  6E17               	movwf	(_gosterge+2)^0,c
  2290                           
  2291                           ;ornek3.c: 271:         while(olcekliDeger > 99){
  2292  0016FE  D005               	goto	l2612
  2293  001700                     l2608:
  2294                           
  2295                           ;ornek3.c: 272:             olcekliDeger -= 100;
  2296  001700  0E64               	movlw	100
  2297  001702  5E4B               	subwf	gostergeDegeriGuncelle@olcekliDeger^0,f,c
  2298  001704  0E00               	movlw	0
  2299  001706  5A4C               	subwfb	(gostergeDegeriGuncelle@olcekliDeger+1)^0,f,c
  2300                           
  2301                           ;ornek3.c: 273:             gosterge[2]++;
  2302  001708  2A17               	incf	(_gosterge+2)^0,f,c
  2303  00170A                     l2612:
  2304                           
  2305                           ;ornek3.c: 271:         while(olcekliDeger > 99){
  2306  00170A  504C               	movf	(gostergeDegeriGuncelle@olcekliDeger+1)^0,w,c
  2307  00170C  E1F9               	bnz	l2608
  2308  00170E  0E64               	movlw	100
  2309  001710  5C4B               	subwf	gostergeDegeriGuncelle@olcekliDeger^0,w,c
  2310  001712  B0D8               	btfsc	status,0,c
  2311  001714  D7F5               	goto	l2608
  2312                           
  2313                           ;ornek3.c: 275:         gosterge[1] = 0;
  2314  001716  0E00               	movlw	0
  2315  001718  6E16               	movwf	(_gosterge+1)^0,c
  2316                           
  2317                           ;ornek3.c: 276:         while(olcekliDeger > 9){
  2318  00171A  D005               	goto	l2620
  2319  00171C                     l2616:
  2320                           
  2321                           ;ornek3.c: 277:             olcekliDeger -= 10;
  2322  00171C  0E0A               	movlw	10
  2323  00171E  5E4B               	subwf	gostergeDegeriGuncelle@olcekliDeger^0,f,c
  2324  001720  0E00               	movlw	0
  2325  001722  5A4C               	subwfb	(gostergeDegeriGuncelle@olcekliDeger+1)^0,f,c
  2326                           
  2327                           ;ornek3.c: 278:             gosterge[1]++;
  2328  001724  2A16               	incf	(_gosterge+1)^0,f,c
  2329  001726                     l2620:
  2330                           
  2331                           ;ornek3.c: 276:         while(olcekliDeger > 9){
  2332  001726  504C               	movf	(gostergeDegeriGuncelle@olcekliDeger+1)^0,w,c
  2333  001728  E1F9               	bnz	l2616
  2334  00172A  0E0A               	movlw	10
  2335  00172C  5C4B               	subwf	gostergeDegeriGuncelle@olcekliDeger^0,w,c
  2336  00172E  B0D8               	btfsc	status,0,c
  2337  001730  D7F5               	goto	l2616
  2338                           
  2339                           ;ornek3.c: 280:         gosterge[0] = (char)(olcekliDeger &0xFF);
  2340  001732  C04B  F015         	movff	gostergeDegeriGuncelle@olcekliDeger,_gosterge
  2341  001736  D7AF               	goto	l2586
  2342  001738                     l2630:
  2343  001738  5047               	movf	gostergeDegeriGuncelle@tutucu^0,w,c
  2344  00173A  6ED9               	movwf	fsr2l,c
  2345  00173C  6ADA               	clrf	fsr2h,c
  2346  00173E  CFDE F048          	movff	postinc2,??_gostergeDegeriGuncelle
  2347  001742  CFDD F049          	movff	postdec2,??_gostergeDegeriGuncelle+1
  2348                           
  2349                           ; Switch on 2 bytes has been partitioned into a top level switch of size 1, and 2 sub-sw
      +                          itches
  2350                           ; Switch size 1, requested type "simple"
  2351                           ; Number of cases is 2, Range of values is 0 to 1
  2352                           ; switch strategies available:
  2353                           ; Name         Instructions Cycles
  2354                           ; simple_byte            7     4 (average)
  2355                           ;	Chosen strategy is simple_byte
  2356  001746  5049               	movf	(??_gostergeDegeriGuncelle+1)^0,w,c
  2357  001748  0A00               	xorlw	0	; case 0
  2358  00174A  B4D8               	btfsc	status,2,c
  2359  00174C  D004               	goto	l2942
  2360  00174E  0A01               	xorlw	1	; case 1
  2361  001750  A4D8               	btfss	status,2,c
  2362  001752  0012               	return	
  2363  001754  D005               	goto	l2944
  2364  001756                     l2942:
  2365                           
  2366                           ; Switch size 1, requested type "simple"
  2367                           ; Number of cases is 1, Range of values is 0 to 0
  2368                           ; switch strategies available:
  2369                           ; Name         Instructions Cycles
  2370                           ; simple_byte            4     3 (average)
  2371                           ;	Chosen strategy is simple_byte
  2372  001756  5048               	movf	??_gostergeDegeriGuncelle^0,w,c
  2373  001758  0A00               	xorlw	0	; case 0
  2374  00175A  A4D8               	btfss	status,2,c
  2375  00175C  0012               	return	
  2376  00175E  D79B               	goto	l2586
  2377  001760                     l2944:
  2378                           
  2379                           ; Switch size 1, requested type "simple"
  2380                           ; Number of cases is 2, Range of values is 1 to 27
  2381                           ; switch strategies available:
  2382                           ; Name         Instructions Cycles
  2383                           ; simple_byte            7     4 (average)
  2384                           ;	Chosen strategy is simple_byte
  2385  001760  5048               	movf	??_gostergeDegeriGuncelle^0,w,c
  2386  001762  0A01               	xorlw	1	; case 1
  2387  001764  B4D8               	btfsc	status,2,c
  2388  001766  D79E               	goto	l2588
  2389  001768  0A1A               	xorlw	26	; case 27
  2390  00176A  0012               	return	
  2391  00176C                     __end_of_gostergeDegeriGuncelle:
  2392                           	callstack 0
  2393                           
  2394 ;; *************** function ___lwdiv *****************
  2395 ;; Defined at:
  2396 ;;		line 7 in file "/opt/microchip/xc8/v2.31/pic/sources/c99/common/lwdiv.c"
  2397 ;; Parameters:    Size  Location     Type
  2398 ;;  dividend        2   14[COMRAM] unsigned int 
  2399 ;;  divisor         2   16[COMRAM] unsigned int 
  2400 ;; Auto vars:     Size  Location     Type
  2401 ;;  quotient        2   19[COMRAM] unsigned int 
  2402 ;;  counter         1   18[COMRAM] unsigned char 
  2403 ;; Return value:  Size  Location     Type
  2404 ;;                  2   14[COMRAM] unsigned int 
  2405 ;; Registers used:
  2406 ;;		wreg, status,2, status,0
  2407 ;; Tracked objects:
  2408 ;;		On entry : 0/0
  2409 ;;		On exit  : 0/0
  2410 ;;		Unchanged: 0/0
  2411 ;; Data sizes:     COMRAM   BANK0   BANK1   BANK2   BANK3   BANK4   BANK5   BANK6   BANK7   BANK8   BANK9  BANK10  BANK1
      +1  BANK12  BANK13  BANK14  BANK15
  2412 ;;      Params:         4       0       0       0       0       0       0       0       0       0       0       0       
      +0       0       0       0       0
  2413 ;;      Locals:         3       0       0       0       0       0       0       0       0       0       0       0       
      +0       0       0       0       0
  2414 ;;      Temps:          0       0       0       0       0       0       0       0       0       0       0       0       
      +0       0       0       0       0
  2415 ;;      Totals:         7       0       0       0       0       0       0       0       0       0       0       0       
      +0       0       0       0       0
  2416 ;;Total ram usage:        7 bytes
  2417 ;; Hardware stack levels used:    1
  2418 ;; Hardware stack levels required when called:    3
  2419 ;; This function calls:
  2420 ;;		Nothing
  2421 ;; This function is called by:
  2422 ;;		_karaSimsekHiziOkuma
  2423 ;;		_gostergeDegeriGuncelle
  2424 ;; This function uses a non-reentrant model
  2425 ;;
  2426                           
  2427                           	psect	text12
  2428  00188E                     __ptext12:
  2429                           	callstack 0
  2430  00188E                     ___lwdiv:
  2431                           	callstack 26
  2432                           
  2433                           ;incstack = 0
  2434  00188E  0E00               	movlw	0
  2435  001890  6E46               	movwf	(___lwdiv@quotient+1)^0,c
  2436  001892  0E00               	movlw	0
  2437  001894  6E45               	movwf	___lwdiv@quotient^0,c
  2438  001896  5042               	movf	___lwdiv@divisor^0,w,c
  2439  001898  1043               	iorwf	(___lwdiv@divisor+1)^0,w,c
  2440  00189A  B4D8               	btfsc	status,2,c
  2441  00189C  D01C               	goto	l814
  2442  00189E  0E01               	movlw	1
  2443  0018A0  6E44               	movwf	___lwdiv@counter^0,c
  2444  0018A2  D004               	goto	l2306
  2445  0018A4                     l2304:
  2446  0018A4  90D8               	bcf	status,0,c
  2447  0018A6  3642               	rlcf	___lwdiv@divisor^0,f,c
  2448  0018A8  3643               	rlcf	(___lwdiv@divisor+1)^0,f,c
  2449  0018AA  2A44               	incf	___lwdiv@counter^0,f,c
  2450  0018AC                     l2306:
  2451  0018AC  AE43               	btfss	(___lwdiv@divisor+1)^0,7,c
  2452  0018AE  D7FA               	goto	l2304
  2453  0018B0                     u1220:
  2454  0018B0  90D8               	bcf	status,0,c
  2455  0018B2  3645               	rlcf	___lwdiv@quotient^0,f,c
  2456  0018B4  3646               	rlcf	(___lwdiv@quotient+1)^0,f,c
  2457  0018B6  5042               	movf	___lwdiv@divisor^0,w,c
  2458  0018B8  5C40               	subwf	___lwdiv@dividend^0,w,c
  2459  0018BA  5043               	movf	(___lwdiv@divisor+1)^0,w,c
  2460  0018BC  5841               	subwfb	(___lwdiv@dividend+1)^0,w,c
  2461  0018BE  A0D8               	btfss	status,0,c
  2462  0018C0  D005               	goto	l2316
  2463  0018C2  5042               	movf	___lwdiv@divisor^0,w,c
  2464  0018C4  5E40               	subwf	___lwdiv@dividend^0,f,c
  2465  0018C6  5043               	movf	(___lwdiv@divisor+1)^0,w,c
  2466  0018C8  5A41               	subwfb	(___lwdiv@dividend+1)^0,f,c
  2467  0018CA  8045               	bsf	___lwdiv@quotient^0,0,c
  2468  0018CC                     l2316:
  2469  0018CC  90D8               	bcf	status,0,c
  2470  0018CE  3243               	rrcf	(___lwdiv@divisor+1)^0,f,c
  2471  0018D0  3242               	rrcf	___lwdiv@divisor^0,f,c
  2472  0018D2  2E44               	decfsz	___lwdiv@counter^0,f,c
  2473  0018D4  D7ED               	goto	u1220
  2474  0018D6                     l814:
  2475  0018D6  C045  F040         	movff	___lwdiv@quotient,?___lwdiv
  2476  0018DA  C046  F041         	movff	___lwdiv@quotient+1,?___lwdiv+1
  2477  0018DE  0012               	return		;funcret
  2478  0018E0                     __end_of___lwdiv:
  2479                           	callstack 0
  2480                           
  2481 ;; *************** function _interruptYonetici *****************
  2482 ;; Defined at:
  2483 ;;		line 50 in file "interrupt.c"
  2484 ;; Parameters:    Size  Location     Type
  2485 ;;		None
  2486 ;; Auto vars:     Size  Location     Type
  2487 ;;		None
  2488 ;; Return value:  Size  Location     Type
  2489 ;;                  1    wreg      void 
  2490 ;; Registers used:
  2491 ;;		wreg, fsr0l, fsr0h, fsr1l, fsr1h, fsr1l, fsr1h, fsr2l, fsr2h, status,2, status,0, pclath, btemp, btemp+1, btemp+2, b
      +temp+3, btemp+4, btemp+5, btemp+6, btemp+7, btemp+8, btemp+9, btemp+10, btemp+11, btemp+12, btemp+13, btemp+14, btemp+15
      +, btemp+16, btemp+17, btemp+18, btemp+19, btemp+20, btemp+21, btemp+22, btemp+23, btemp+24, btemp+25, btemp+26, btemp+27
      +, btemp+28, btemp+29, btemp+30, btemp+31, tosl, structret, tblptrl, tblptrh, tblptru, prodl, prodh, bsr, cstack
  2492 ;; Tracked objects:
  2493 ;;		On entry : 0/0
  2494 ;;		On exit  : 0/0
  2495 ;;		Unchanged: 0/0
  2496 ;; Data sizes:     COMRAM   BANK0   BANK1   BANK2   BANK3   BANK4   BANK5   BANK6   BANK7   BANK8   BANK9  BANK10  BANK1
      +1  BANK12  BANK13  BANK14  BANK15
  2497 ;;      Params:         0       0       0       0       0       0       0       0       0       0       0       0       
      +0       0       0       0       0
  2498 ;;      Locals:         0       0       0       0       0       0       0       0       0       0       0       0       
      +0       0       0       0       0
  2499 ;;      Temps:         14       0       0       0       0       0       0       0       0       0       0       0       
      +0       0       0       0       0
  2500 ;;      Totals:        14       0       0       0       0       0       0       0       0       0       0       0       
      +0       0       0       0       0
  2501 ;;Total ram usage:       14 bytes
  2502 ;; Hardware stack levels used:    1
  2503 ;; Hardware stack levels required when called:    2
  2504 ;; This function calls:
  2505 ;;		Absolute function
  2506 ;;		_sisTimerKesmeIsleyici
  2507 ;; This function is called by:
  2508 ;;		Interrupt level 2
  2509 ;; This function uses a non-reentrant model
  2510 ;;
  2511                           
  2512                           	psect	intcode
  2513  000008                     __pintcode:
  2514                           	callstack 0
  2515  000008                     _interruptYonetici:
  2516                           	callstack 26
  2517                           
  2518                           ;incstack = 0
  2519  000008  824D               	bsf	btemp,1,c	;set compiler interrupt flag (level 2)
  2520  00000A  CFFA F032          	movff	pclath,??_interruptYonetici
  2521  00000E  CFFB F033          	movff	pclatu,??_interruptYonetici+1
  2522  000012  CFE9 F034          	movff	fsr0l,??_interruptYonetici+2
  2523  000016  CFEA F035          	movff	fsr0h,??_interruptYonetici+3
  2524  00001A  CFE1 F036          	movff	fsr1l,??_interruptYonetici+4
  2525  00001E  CFE2 F037          	movff	fsr1h,??_interruptYonetici+5
  2526  000022  CFD9 F038          	movff	fsr2l,??_interruptYonetici+6
  2527  000026  CFDA F039          	movff	fsr2h,??_interruptYonetici+7
  2528  00002A  CFF3 F03A          	movff	prodl,??_interruptYonetici+8
  2529  00002E  CFF4 F03B          	movff	prodh,??_interruptYonetici+9
  2530  000032  CFF6 F03C          	movff	tblptrl,??_interruptYonetici+10
  2531  000036  CFF7 F03D          	movff	tblptrh,??_interruptYonetici+11
  2532  00003A  CFF8 F03E          	movff	tblptru,??_interruptYonetici+12
  2533  00003E  CFF5 F03F          	movff	tablat,??_interruptYonetici+13
  2534                           
  2535                           ;interrupt.c: 52:     if(INTCONbits.TMR0IF == 1 && INTCONbits.TMR0IF == 1){
  2536  000042  B4F2               	btfsc	242,2,c	;volatile
  2537  000044  A4F2               	btfss	242,2,c	;volatile
  2538  000046  D00C               	goto	i2l39
  2539                           
  2540                           ;interrupt.c: 53:         TMR0IF = 0;
  2541  000048  94F2               	bcf	4082,2,c	;volatile
  2542                           
  2543                           ;interrupt.c: 54:         (*timer0KesmeIsleyici)();
  2544  00004A  D801               	call	i2u59_48
  2545  00004C  D014               	goto	i2l46
  2546  00004E                     i2u59_48:
  2547  00004E  0005               	push	
  2548  000050  6EFA               	movwf	pclath,c
  2549  000052  5027               	movf	_timer0KesmeIsleyici^0,w,c
  2550  000054  6EFD               	movwf	tosl,c
  2551  000056  5028               	movf	(_timer0KesmeIsleyici+1)^0,w,c
  2552  000058  6EFE               	movwf	tosh,c
  2553  00005A  6AFF               	clrf	tosu,c
  2554  00005C  50FA               	movf	pclath,w,c
  2555  00005E  0012               	return		;indir
  2556  000060                     i2l39:
  2557  000060  ACF2               	btfss	242,6,c	;volatile
  2558  000062  D009               	goto	i2l46
  2559                           
  2560                           ;interrupt.c: 57:         if(PIE1bits.RCIE == 1 && PIR1bits.RCIF == 1){
  2561  000064  BA9D               	btfsc	157,5,c	;volatile
  2562  000066  AA9E               	btfss	158,5,c	;volatile
  2563  000068  D002               	goto	i2l42
  2564                           
  2565                           ;interrupt.c: 58:             RCIF = 0;
  2566  00006A  9A9E               	bcf	3998,5,c	;volatile
  2567                           
  2568                           ;interrupt.c: 59:         }
  2569  00006C  D004               	goto	i2l46
  2570  00006E                     i2l42:
  2571  00006E  B89D               	btfsc	3997,4,c	;volatile
  2572  000070  A89E               	btfss	3998,4,c	;volatile
  2573  000072  D001               	goto	i2l46
  2574                           
  2575                           ;interrupt.c: 61:             TXIF = 0;
  2576  000074  989E               	bcf	3998,4,c	;volatile
  2577  000076                     i2l46:
  2578  000076  C03F  FFF5         	movff	??_interruptYonetici+13,tablat
  2579  00007A  C03E  FFF8         	movff	??_interruptYonetici+12,tblptru
  2580  00007E  C03D  FFF7         	movff	??_interruptYonetici+11,tblptrh
  2581  000082  C03C  FFF6         	movff	??_interruptYonetici+10,tblptrl
  2582  000086  C03B  FFF4         	movff	??_interruptYonetici+9,prodh
  2583  00008A  C03A  FFF3         	movff	??_interruptYonetici+8,prodl
  2584  00008E  C039  FFDA         	movff	??_interruptYonetici+7,fsr2h
  2585  000092  C038  FFD9         	movff	??_interruptYonetici+6,fsr2l
  2586  000096  C037  FFE2         	movff	??_interruptYonetici+5,fsr1h
  2587  00009A  C036  FFE1         	movff	??_interruptYonetici+4,fsr1l
  2588  00009E  C035  FFEA         	movff	??_interruptYonetici+3,fsr0h
  2589  0000A2  C034  FFE9         	movff	??_interruptYonetici+2,fsr0l
  2590  0000A6  C033  FFFB         	movff	??_interruptYonetici+1,pclatu
  2591  0000AA  C032  FFFA         	movff	??_interruptYonetici,pclath
  2592  0000AE  924D               	bcf	btemp,1,c	;clear compiler interrupt flag (level 2)
  2593  0000B0  0011               	retfie		f
  2594  0000B2                     __end_of_interruptYonetici:
  2595                           	callstack 0
  2596                           
  2597 ;; *************** function _sisTimerKesmeIsleyici *****************
  2598 ;; Defined at:
  2599 ;;		line 125 in file "sistimer.c"
  2600 ;; Parameters:    Size  Location     Type
  2601 ;;		None
  2602 ;; Auto vars:     Size  Location     Type
  2603 ;;		None
  2604 ;; Return value:  Size  Location     Type
  2605 ;;                  1    wreg      void 
  2606 ;; Registers used:
  2607 ;;		wreg, fsr0l, fsr0h, fsr1l, fsr1h, fsr1l, fsr1h, fsr2l, fsr2h, status,2, status,0, pclath, btemp, btemp+1, btemp+2, b
      +temp+3, btemp+4, btemp+5, btemp+6, btemp+7, btemp+8, btemp+9, btemp+10, btemp+11, btemp+12, btemp+13, btemp+14, btemp+15
      +, btemp+16, btemp+17, btemp+18, btemp+19, btemp+20, btemp+21, btemp+22, btemp+23, btemp+24, btemp+25, btemp+26, btemp+27
      +, btemp+28, btemp+29, btemp+30, btemp+31, tosl, structret, tblptrl, tblptrh, tblptru, prodl, prodh, bsr, cstack
  2608 ;; Tracked objects:
  2609 ;;		On entry : 0/0
  2610 ;;		On exit  : 0/0
  2611 ;;		Unchanged: 0/0
  2612 ;; Data sizes:     COMRAM   BANK0   BANK1   BANK2   BANK3   BANK4   BANK5   BANK6   BANK7   BANK8   BANK9  BANK10  BANK1
      +1  BANK12  BANK13  BANK14  BANK15
  2613 ;;      Params:         0       0       0       0       0       0       0       0       0       0       0       0       
      +0       0       0       0       0
  2614 ;;      Locals:         0       0       0       0       0       0       0       0       0       0       0       0       
      +0       0       0       0       0
  2615 ;;      Temps:          0       0       0       0       0       0       0       0       0       0       0       0       
      +0       0       0       0       0
  2616 ;;      Totals:         0       0       0       0       0       0       0       0       0       0       0       0       
      +0       0       0       0       0
  2617 ;;Total ram usage:        0 bytes
  2618 ;; Hardware stack levels used:    1
  2619 ;; Hardware stack levels required when called:    1
  2620 ;; This function calls:
  2621 ;;		Absolute function
  2622 ;;		_sisTikKesmeIsleyici
  2623 ;;		_sisTimerIsleyiciVarsayilan
  2624 ;; This function is called by:
  2625 ;;		_sisTimerIlkle
  2626 ;;		_interruptYonetici
  2627 ;; This function uses a non-reentrant model
  2628 ;;
  2629                           
  2630                           	psect	text14
  2631  001920                     __ptext14:
  2632                           	callstack 0
  2633  001920                     _sisTimerKesmeIsleyici:
  2634                           	callstack 26
  2635                           
  2636                           ;sistimer.c: 127:     TMR0 = (uint16_t) ((uint16_t)((65536)-((( 1000u - ( ( ( 52 ) * ( (
      +                           1 * ( 100 ) ) / ( (16000000 / 4 ) / 1000000 ) ) ) / ( 100 ) ) )* (16000000/1000000))/(4
      +                          *(1)))-1));
  2637                           
  2638                           ;incstack = 0
  2639  001920  0EF0               	movlw	240
  2640  001922  6ED7               	movwf	215,c	;volatile
  2641  001924  0E93               	movlw	147
  2642  001926  6ED6               	movwf	214,c	;volatile
  2643                           
  2644                           ;sistimer.c: 131:     (*sisTimerDisIsleyici)();
  2645  001928  D801               	call	i2u5_48
  2646  00192A  0012               	return	
  2647  00192C                     i2u5_48:
  2648  00192C  0005               	push	
  2649  00192E  6EFA               	movwf	pclath,c
  2650  001930  5021               	movf	_sisTimerDisIsleyici^0,w,c
  2651  001932  6EFD               	movwf	tosl,c
  2652  001934  5022               	movf	(_sisTimerDisIsleyici+1)^0,w,c
  2653  001936  6EFE               	movwf	tosh,c
  2654  001938  6AFF               	clrf	tosu,c
  2655  00193A  50FA               	movf	pclath,w,c
  2656  00193C  0012               	return		;indir
  2657  00193E                     __end_of_sisTimerKesmeIsleyici:
  2658                           	callstack 0
  2659                           
  2660 ;; *************** function _sisTikKesmeIsleyici *****************
  2661 ;; Defined at:
  2662 ;;		line 161 in file "../../../../../kaynak/gorev.c"
  2663 ;; Parameters:    Size  Location     Type
  2664 ;;		None
  2665 ;; Auto vars:     Size  Location     Type
  2666 ;;		None
  2667 ;; Return value:  Size  Location     Type
  2668 ;;                  1    wreg      void 
  2669 ;; Registers used:
  2670 ;;		status,2, status,0
  2671 ;; Tracked objects:
  2672 ;;		On entry : 0/0
  2673 ;;		On exit  : 0/0
  2674 ;;		Unchanged: 0/0
  2675 ;; Data sizes:     COMRAM   BANK0   BANK1   BANK2   BANK3   BANK4   BANK5   BANK6   BANK7   BANK8   BANK9  BANK10  BANK1
      +1  BANK12  BANK13  BANK14  BANK15
  2676 ;;      Params:         0       0       0       0       0       0       0       0       0       0       0       0       
      +0       0       0       0       0
  2677 ;;      Locals:         0       0       0       0       0       0       0       0       0       0       0       0       
      +0       0       0       0       0
  2678 ;;      Temps:          0       0       0       0       0       0       0       0       0       0       0       0       
      +0       0       0       0       0
  2679 ;;      Totals:         0       0       0       0       0       0       0       0       0       0       0       0       
      +0       0       0       0       0
  2680 ;;Total ram usage:        0 bytes
  2681 ;; Hardware stack levels used:    1
  2682 ;; This function calls:
  2683 ;;		Nothing
  2684 ;; This function is called by:
  2685 ;;		_main
  2686 ;;		_sisTimerKesmeIsleyici
  2687 ;; This function uses a non-reentrant model
  2688 ;;
  2689                           
  2690                           	psect	text15
  2691  001988                     __ptext15:
  2692                           	callstack 0
  2693  001988                     _sisTikKesmeIsleyici:
  2694                           	callstack 26
  2695                           
  2696                           ;../../../../../kaynak/gorev.c: 162:  tikSayimi++;
  2697                           
  2698                           ;incstack = 0
  2699  001988  4A1F               	infsnz	_tikSayimi^0,f,c
  2700  00198A  2A20               	incf	(_tikSayimi+1)^0,f,c
  2701  00198C  0012               	return		;funcret
  2702  00198E                     __end_of_sisTikKesmeIsleyici:
  2703                           	callstack 0
  2704                           
  2705 ;; *************** function _sisTimerIsleyiciVarsayilan *****************
  2706 ;; Defined at:
  2707 ;;		line 121 in file "sistimer.c"
  2708 ;; Parameters:    Size  Location     Type
  2709 ;;		None
  2710 ;; Auto vars:     Size  Location     Type
  2711 ;;		None
  2712 ;; Return value:  Size  Location     Type
  2713 ;;                  1    wreg      void 
  2714 ;; Registers used:
  2715 ;;		None
  2716 ;; Tracked objects:
  2717 ;;		On entry : 0/0
  2718 ;;		On exit  : 0/0
  2719 ;;		Unchanged: 0/0
  2720 ;; Data sizes:     COMRAM   BANK0   BANK1   BANK2   BANK3   BANK4   BANK5   BANK6   BANK7   BANK8   BANK9  BANK10  BANK1
      +1  BANK12  BANK13  BANK14  BANK15
  2721 ;;      Params:         0       0       0       0       0       0       0       0       0       0       0       0       
      +0       0       0       0       0
  2722 ;;      Locals:         0       0       0       0       0       0       0       0       0       0       0       0       
      +0       0       0       0       0
  2723 ;;      Temps:          0       0       0       0       0       0       0       0       0       0       0       0       
      +0       0       0       0       0
  2724 ;;      Totals:         0       0       0       0       0       0       0       0       0       0       0       0       
      +0       0       0       0       0
  2725 ;;Total ram usage:        0 bytes
  2726 ;; Hardware stack levels used:    1
  2727 ;; This function calls:
  2728 ;;		Nothing
  2729 ;; This function is called by:
  2730 ;;		_sisTimerIlkle
  2731 ;;		_sisTimerKesmeIsleyici
  2732 ;; This function uses a non-reentrant model
  2733 ;;
  2734                           
  2735                           	psect	text16
  2736  001992                     __ptext16:
  2737                           	callstack 0
  2738  001992                     _sisTimerIsleyiciVarsayilan:
  2739                           	callstack 26
  2740                           
  2741                           ;incstack = 0
  2742  001992  0012               	return		;funcret
  2743  001994                     __end_of_sisTimerIsleyiciVarsayilan:
  2744                           	callstack 0
  2745                           
  2746                           	psect	text17
  2747  000000                     __ptext17:
  2748                           	callstack 0
  2749                           
  2750                           	psect	rparam
  2751  0000                     
  2752                           	psect	temp
  2753  00004D                     btemp:
  2754                           	callstack 0
  2755  00004D                     	ds	1
  2756  0000                     int$flags	set	btemp
  2757  0000                     wtemp8	set	btemp+1
  2758  0000                     ttemp5	set	btemp+1
  2759  0000                     ttemp6	set	btemp+4
  2760  0000                     ttemp7	set	btemp+8
  2761                           
  2762                           	psect	idloc
  2763                           
  2764                           ;Config register IDLOC0 @ 0x200000
  2765                           ;	unspecified, using default values
  2766  200000                     	org	2097152
  2767  200000  FF                 	db	255
  2768                           
  2769                           ;Config register IDLOC1 @ 0x200001
  2770                           ;	unspecified, using default values
  2771  200001                     	org	2097153
  2772  200001  FF                 	db	255
  2773                           
  2774                           ;Config register IDLOC2 @ 0x200002
  2775                           ;	unspecified, using default values
  2776  200002                     	org	2097154
  2777  200002  FF                 	db	255
  2778                           
  2779                           ;Config register IDLOC3 @ 0x200003
  2780                           ;	unspecified, using default values
  2781  200003                     	org	2097155
  2782  200003  FF                 	db	255
  2783                           
  2784                           ;Config register IDLOC4 @ 0x200004
  2785                           ;	unspecified, using default values
  2786  200004                     	org	2097156
  2787  200004  FF                 	db	255
  2788                           
  2789                           ;Config register IDLOC5 @ 0x200005
  2790                           ;	unspecified, using default values
  2791  200005                     	org	2097157
  2792  200005  FF                 	db	255
  2793                           
  2794                           ;Config register IDLOC6 @ 0x200006
  2795                           ;	unspecified, using default values
  2796  200006                     	org	2097158
  2797  200006  FF                 	db	255
  2798                           
  2799                           ;Config register IDLOC7 @ 0x200007
  2800                           ;	unspecified, using default values
  2801  200007                     	org	2097159
  2802  200007  FF                 	db	255
  2803                           
  2804                           	psect	config
  2805                           
  2806                           ; Padding undefined space
  2807  300000                     	org	3145728
  2808  300000  FF                 	db	255
  2809                           
  2810                           ;Config register CONFIG1H @ 0x300001
  2811                           ;	Oscillator Selection bits
  2812                           ;	FOSC = INTIO67, Internal oscillator block
  2813                           ;	4X PLL Enable
  2814                           ;	PLLCFG = ON, Oscillator multiplied by 4
  2815                           ;	Primary clock enable bit
  2816                           ;	PRICLKEN = ON, Primary clock is always enabled
  2817                           ;	Fail-Safe Clock Monitor Enable bit
  2818                           ;	FCMEN = OFF, Fail-Safe Clock Monitor disabled
  2819                           ;	Internal/External Oscillator Switchover bit
  2820                           ;	IESO = OFF, Oscillator Switchover mode disabled
  2821  300001                     	org	3145729
  2822  300001  38                 	db	56
  2823                           
  2824                           ;Config register CONFIG2L @ 0x300002
  2825                           ;	Power-up Timer Enable bit
  2826                           ;	PWRTEN = ON, Power up timer enabled
  2827                           ;	Brown-out Reset Enable bits
  2828                           ;	BOREN = SBORDIS, Brown-out Reset enabled in hardware only (SBOREN is disabled)
  2829                           ;	Brown Out Reset Voltage bits
  2830                           ;	BORV = 250, VBOR set to 2.50 V nominal
  2831  300002                     	org	3145730
  2832  300002  0E                 	db	14
  2833                           
  2834                           ;Config register CONFIG2H @ 0x300003
  2835                           ;	Watchdog Timer Enable bits
  2836                           ;	WDTEN = OFF, Watch dog timer is always disabled. SWDTEN has no effect.
  2837                           ;	Watchdog Timer Postscale Select bits
  2838                           ;	WDTPS = 32768, 1:32768
  2839  300003                     	org	3145731
  2840  300003  3C                 	db	60
  2841                           
  2842                           ; Padding undefined space
  2843  300004                     	org	3145732
  2844  300004  FF                 	db	255
  2845                           
  2846                           ;Config register CONFIG3H @ 0x300005
  2847                           ;	CCP2 MUX bit
  2848                           ;	CCP2MX = PORTC1, CCP2 input/output is multiplexed with RC1
  2849                           ;	PORTB A/D Enable bit
  2850                           ;	PBADEN = OFF, PORTB<5:0> pins are configured as digital I/O on Reset
  2851                           ;	P3A/CCP3 Mux bit
  2852                           ;	CCP3MX = PORTB5, P3A/CCP3 input/output is multiplexed with RB5
  2853                           ;	HFINTOSC Fast Start-up
  2854                           ;	HFOFST = ON, HFINTOSC output and ready status are not delayed by the oscillator stable
      +                           status
  2855                           ;	Timer3 Clock input mux bit
  2856                           ;	T3CMX = PORTC0, T3CKI is on RC0
  2857                           ;	ECCP2 B output mux bit
  2858                           ;	P2BMX = PORTD2, P2B is on RD2
  2859                           ;	MCLR Pin Enable bit
  2860                           ;	MCLRE = INTMCLR, RE3 input pin enabled; MCLR disabled
  2861  300005                     	org	3145733
  2862  300005  3D                 	db	61
  2863                           
  2864                           ;Config register CONFIG4L @ 0x300006
  2865                           ;	Stack Full/Underflow Reset Enable bit
  2866                           ;	STVREN = ON, Stack full/underflow will cause Reset
  2867                           ;	Single-Supply ICSP Enable bit
  2868                           ;	LVP = ON, Single-Supply ICSP enabled if MCLRE is also 1
  2869                           ;	Extended Instruction Set Enable bit
  2870                           ;	XINST = OFF, Instruction set extension and Indexed Addressing mode disabled (Legacy mo
      +                          de)
  2871                           ;	Background Debug
  2872                           ;	DEBUG = OFF, Disabled
  2873  300006                     	org	3145734
  2874  300006  85                 	db	133
  2875                           
  2876                           ; Padding undefined space
  2877  300007                     	org	3145735
  2878  300007  FF                 	db	255
  2879                           
  2880                           ;Config register CONFIG5L @ 0x300008
  2881                           ;	Code Protection Block 0
  2882                           ;	CP0 = OFF, Block 0 (000800-003FFFh) not code-protected
  2883                           ;	Code Protection Block 1
  2884                           ;	CP1 = OFF, Block 1 (004000-007FFFh) not code-protected
  2885                           ;	Code Protection Block 2
  2886                           ;	CP2 = OFF, Block 2 (008000-00BFFFh) not code-protected
  2887                           ;	Code Protection Block 3
  2888                           ;	CP3 = OFF, Block 3 (00C000-00FFFFh) not code-protected
  2889  300008                     	org	3145736
  2890  300008  0F                 	db	15
  2891                           
  2892                           ;Config register CONFIG5H @ 0x300009
  2893                           ;	Boot Block Code Protection bit
  2894                           ;	CPB = OFF, Boot block (000000-0007FFh) not code-protected
  2895                           ;	Data EEPROM Code Protection bit
  2896                           ;	CPD = OFF, Data EEPROM not code-protected
  2897  300009                     	org	3145737
  2898  300009  C0                 	db	192
  2899                           
  2900                           ;Config register CONFIG6L @ 0x30000A
  2901                           ;	Write Protection Block 0
  2902                           ;	WRT0 = OFF, Block 0 (000800-003FFFh) not write-protected
  2903                           ;	Write Protection Block 1
  2904                           ;	WRT1 = OFF, Block 1 (004000-007FFFh) not write-protected
  2905                           ;	Write Protection Block 2
  2906                           ;	WRT2 = OFF, Block 2 (008000-00BFFFh) not write-protected
  2907                           ;	Write Protection Block 3
  2908                           ;	WRT3 = OFF, Block 3 (00C000-00FFFFh) not write-protected
  2909  30000A                     	org	3145738
  2910  30000A  0F                 	db	15
  2911                           
  2912                           ;Config register CONFIG6H @ 0x30000B
  2913                           ;	Configuration Register Write Protection bit
  2914                           ;	WRTC = OFF, Configuration registers (300000-3000FFh) not write-protected
  2915                           ;	Boot Block Write Protection bit
  2916                           ;	WRTB = OFF, Boot Block (000000-0007FFh) not write-protected
  2917                           ;	Data EEPROM Write Protection bit
  2918                           ;	WRTD = OFF, Data EEPROM not write-protected
  2919  30000B                     	org	3145739
  2920  30000B  E0                 	db	224
  2921                           
  2922                           ;Config register CONFIG7L @ 0x30000C
  2923                           ;	Table Read Protection Block 0
  2924                           ;	EBTR0 = OFF, Block 0 (000800-003FFFh) not protected from table reads executed in other
      +                           blocks
  2925                           ;	Table Read Protection Block 1
  2926                           ;	EBTR1 = OFF, Block 1 (004000-007FFFh) not protected from table reads executed in other
      +                           blocks
  2927                           ;	Table Read Protection Block 2
  2928                           ;	EBTR2 = OFF, Block 2 (008000-00BFFFh) not protected from table reads executed in other
      +                           blocks
  2929                           ;	Table Read Protection Block 3
  2930                           ;	EBTR3 = OFF, Block 3 (00C000-00FFFFh) not protected from table reads executed in other
      +                           blocks
  2931  30000C                     	org	3145740
  2932  30000C  0F                 	db	15
  2933                           
  2934                           ;Config register CONFIG7H @ 0x30000D
  2935                           ;	Boot Block Table Read Protection bit
  2936                           ;	EBTRB = OFF, Boot Block (000000-0007FFh) not protected from table reads executed in ot
      +                          her blocks
  2937  30000D                     	org	3145741
  2938  30000D  40                 	db	64
  2939                           tosu	equ	0xFFF
  2940                           tosh	equ	0xFFE
  2941                           tosl	equ	0xFFD
  2942                           stkptr	equ	0xFFC
  2943                           pclatu	equ	0xFFB
  2944                           pclath	equ	0xFFA
  2945                           pcl	equ	0xFF9
  2946                           tblptru	equ	0xFF8
  2947                           tblptrh	equ	0xFF7
  2948                           tblptrl	equ	0xFF6
  2949                           tablat	equ	0xFF5
  2950                           prodh	equ	0xFF4
  2951                           prodl	equ	0xFF3
  2952                           indf0	equ	0xFEF
  2953                           postinc0	equ	0xFEE
  2954                           postdec0	equ	0xFED
  2955                           preinc0	equ	0xFEC
  2956                           plusw0	equ	0xFEB
  2957                           fsr0h	equ	0xFEA
  2958                           fsr0l	equ	0xFE9
  2959                           wreg	equ	0xFE8
  2960                           indf1	equ	0xFE7
  2961                           postinc1	equ	0xFE6
  2962                           postdec1	equ	0xFE5
  2963                           preinc1	equ	0xFE4
  2964                           plusw1	equ	0xFE3
  2965                           fsr1h	equ	0xFE2
  2966                           fsr1l	equ	0xFE1
  2967                           bsr	equ	0xFE0
  2968                           indf2	equ	0xFDF
  2969                           postinc2	equ	0xFDE
  2970                           postdec2	equ	0xFDD
  2971                           preinc2	equ	0xFDC
  2972                           plusw2	equ	0xFDB
  2973                           fsr2h	equ	0xFDA
  2974                           fsr2l	equ	0xFD9
  2975                           status	equ	0xFD8

Data Sizes:
    Strings     0
    Constant    48
    Data        0
    BSS         49
    Persistent  0
    Stack       0

Auto Spaces:
    Space          Size  Autos    Used
    COMRAM           94     27      76
    BANK0           160     12      12
    BANK1           256      0       0
    BANK2           256      0       0
    BANK3           256      0       0
    BANK4           256      0       0
    BANK5           256      0       0
    BANK6           256      0       0
    BANK7           256      0       0
    BANK8           256      0       0
    BANK9           256      0       0
    BANK10          256      0       0
    BANK11          256      0       0
    BANK12          256      0       0
    BANK13          256      0       0
    BANK14          256      0       0
    BANK15           56      0       0

Pointer List with Targets:

    gostergeGuncelle@tutucu	PTR void  size(1) Largest target is 2
		 -> main@gg(BANK0[2]), 

    gostergeDegeriGuncelle@tutucu	PTR void  size(1) Largest target is 2
		 -> main@gdg(BANK0[2]), 

    karaSimsekHiziOkuma@tutucu	PTR void  size(1) Largest target is 2
		 -> main@kho(BANK0[2]), 

    karaSimsek@tutucu	PTR void  size(1) Largest target is 2
		 -> main@ksmsk(BANK0[2]), 

    ledCakarlama2@tutucu	PTR void  size(1) Largest target is 2
		 -> main@lc2(BANK0[2]), 

    ledCakarlama1@tutucu	PTR void  size(1) Largest target is 2
		 -> main@lc1(BANK0[2]), 

    sisTimerIlkle@isleyici	PTR FTN()void  size(2) Largest target is 1
		 -> sisTikKesmeIsleyici(), 

    sisTimerDisIsleyici	PTR FTN()void  size(2) Largest target is 2
		 -> Absolute function(), sisTikKesmeIsleyici(), sisTimerIlkle@isleyici(COMRAM[2]), sisTimerIsleyiciVarsayilan(), 

    uartRxKesmeIsleyici	PTR FTN()void  size(2) Largest target is 1
		 -> Absolute function(), 

    uartTxKesmeIsleyici	PTR FTN()void  size(2) Largest target is 1
		 -> Absolute function(), 

    timer0KesmeIsleyiciKur@isleyici	PTR FTN()void  size(2) Largest target is 1
		 -> sisTimerKesmeIsleyici(), 

    timer0KesmeIsleyici	PTR FTN()void  size(2) Largest target is 1
		 -> Absolute function(), sisTimerKesmeIsleyici(), 


Critical Paths under _main in COMRAM

    _main->_gostergeDegeriGuncelle
    _main->_karaSimsekHiziOkuma
    _sisTimerIlkle->_timer0KesmeIsleyiciKur
    _ledCakarlama2->_tikSayiminiAl
    _ledCakarlama1->_tikSayiminiAl
    _karaSimsekHiziOkuma->___lwdiv
    _karaSimsek->_tikSayiminiAl
    _gostergeGuncelle->_tikSayiminiAl
    _gostergeDegeriGuncelle->___lwdiv

Critical Paths under _interruptYonetici in COMRAM

    None.

Critical Paths under _main in BANK0

    None.

Critical Paths under _interruptYonetici in BANK0

    None.

Critical Paths under _main in BANK1

    None.

Critical Paths under _interruptYonetici in BANK1

    None.

Critical Paths under _main in BANK2

    None.

Critical Paths under _interruptYonetici in BANK2

    None.

Critical Paths under _main in BANK3

    None.

Critical Paths under _interruptYonetici in BANK3

    None.

Critical Paths under _main in BANK4

    None.

Critical Paths under _interruptYonetici in BANK4

    None.

Critical Paths under _main in BANK5

    None.

Critical Paths under _interruptYonetici in BANK5

    None.

Critical Paths under _main in BANK6

    None.

Critical Paths under _interruptYonetici in BANK6

    None.

Critical Paths under _main in BANK7

    None.

Critical Paths under _interruptYonetici in BANK7

    None.

Critical Paths under _main in BANK8

    None.

Critical Paths under _interruptYonetici in BANK8

    None.

Critical Paths under _main in BANK9

    None.

Critical Paths under _interruptYonetici in BANK9

    None.

Critical Paths under _main in BANK10

    None.

Critical Paths under _interruptYonetici in BANK10

    None.

Critical Paths under _main in BANK11

    None.

Critical Paths under _interruptYonetici in BANK11

    None.

Critical Paths under _main in BANK12

    None.

Critical Paths under _interruptYonetici in BANK12

    None.

Critical Paths under _main in BANK13

    None.

Critical Paths under _interruptYonetici in BANK13

    None.

Critical Paths under _main in BANK14

    None.

Critical Paths under _interruptYonetici in BANK14

    None.

Critical Paths under _main in BANK15

    None.

Critical Paths under _interruptYonetici in BANK15

    None.

Call Graph Tables:

 ---------------------------------------------------------------------------------
 (Depth) Function   	        Calls       Base Space   Used Autos Params    Refs
 ---------------------------------------------------------------------------------
 (0) _main                                                12    12      0    3799
                                              0 BANK0     12    12      0
             _gostergeDegeriGuncelle
                   _gostergeGuncelle
                     _interruptIlkle
                         _karaSimsek
                _karaSimsekHiziOkuma
                      _ledCakarlama1
                      _ledCakarlama2
                   _sisOsilatorIlkle
                      _sisTimerIlkle
 ---------------------------------------------------------------------------------
 (1) _sisTimerIlkle                                        2     0      2     277
                                             16 COMRAM     2     0      2
             _timer0KesmeIsleyiciKur
 ---------------------------------------------------------------------------------
 (2) _timer0KesmeIsleyiciKur                               2     0      2     121
                                             14 COMRAM     2     0      2
 ---------------------------------------------------------------------------------
 (1) _sisOsilatorIlkle                                     0     0      0       0
 ---------------------------------------------------------------------------------
 (1) _ledCakarlama2                                        4     3      1     378
                                             18 COMRAM     4     3      1
                      _tikSayiminiAl
 ---------------------------------------------------------------------------------
 (1) _ledCakarlama1                                        4     3      1     254
                                             18 COMRAM     4     3      1
                      _tikSayiminiAl
 ---------------------------------------------------------------------------------
 (1) _karaSimsekHiziOkuma                                  6     5      1    1019
                                             21 COMRAM     6     5      1
                            ___lwdiv
                      _tikSayiminiAl
 ---------------------------------------------------------------------------------
 (1) _karaSimsek                                           4     3      1     223
                                             18 COMRAM     4     3      1
                      _tikSayiminiAl
 ---------------------------------------------------------------------------------
 (1) _interruptIlkle                                       0     0      0       0
 ---------------------------------------------------------------------------------
 (1) _gostergeGuncelle                                     4     3      1     316
                                             18 COMRAM     4     3      1
                      _tikSayiminiAl
 ---------------------------------------------------------------------------------
 (2) _tikSayiminiAl                                        4     2      2      34
                                             14 COMRAM     4     2      2
 ---------------------------------------------------------------------------------
 (1) _gostergeDegeriGuncelle                               6     5      1     960
                                             21 COMRAM     6     5      1
                            ___lwdiv
 ---------------------------------------------------------------------------------
 (2) ___lwdiv                                              7     3      4     601
                                             14 COMRAM     7     3      4
 ---------------------------------------------------------------------------------
 Estimated maximum stack depth 2
 ---------------------------------------------------------------------------------
 (Depth) Function   	        Calls       Base Space   Used Autos Params    Refs
 ---------------------------------------------------------------------------------
 (3) _interruptYonetici                                   14    14      0       0
                                              0 COMRAM    14    14      0
                   Absolute function *
              _sisTimerKesmeIsleyici *
 ---------------------------------------------------------------------------------
 (4) _sisTimerKesmeIsleyici                                0     0      0       0
                   Absolute function *
                _sisTikKesmeIsleyici *
         _sisTimerIsleyiciVarsayilan *
 ---------------------------------------------------------------------------------
 (5) _sisTimerIsleyiciVarsayilan                           0     0      0       0
 ---------------------------------------------------------------------------------
 (5) _sisTikKesmeIsleyici                                  0     0      0       0
 ---------------------------------------------------------------------------------
 (5) Absolute function(Fake)                               0     0      0       0
 ---------------------------------------------------------------------------------
 Estimated maximum stack depth 5
 ---------------------------------------------------------------------------------

 Call Graph Graphs:

 _main (ROOT)
   _gostergeDegeriGuncelle
     ___lwdiv
   _gostergeGuncelle
     _tikSayiminiAl
   _interruptIlkle
   _karaSimsek
     _tikSayiminiAl
   _karaSimsekHiziOkuma
     ___lwdiv
     _tikSayiminiAl
   _ledCakarlama1
     _tikSayiminiAl
   _ledCakarlama2
     _tikSayiminiAl
   _sisOsilatorIlkle
   _sisTimerIlkle
     _timer0KesmeIsleyiciKur

 _interruptYonetici (ROOT)
   Absolute function(Fake) *
   _sisTimerKesmeIsleyici *
     Absolute function(Fake) *
     _sisTikKesmeIsleyici *
     _sisTimerIsleyiciVarsayilan *

 Address spaces:
Name               Size   Autos  Total    Cost      Usage
BIGRAM             F37      0       0      37        0.0%
EEDATA             400      0       0       0        0.0%
BITBANK14          100      0       0      33        0.0%
BANK14             100      0       0      34        0.0%
BITBANK13          100      0       0      31        0.0%
BANK13             100      0       0      32        0.0%
BITBANK12          100      0       0      29        0.0%
BANK12             100      0       0      30        0.0%
BITBANK11          100      0       0      27        0.0%
BANK11             100      0       0      28        0.0%
BITBANK10          100      0       0      25        0.0%
BANK10             100      0       0      26        0.0%
BITBANK9           100      0       0      23        0.0%
BANK9              100      0       0      24        0.0%
BITBANK8           100      0       0      21        0.0%
BANK8              100      0       0      22        0.0%
BITBANK7           100      0       0      19        0.0%
BANK7              100      0       0      20        0.0%
BITBANK6           100      0       0      17        0.0%
BANK6              100      0       0      18        0.0%
BITBANK5           100      0       0      15        0.0%
BANK5              100      0       0      16        0.0%
BITBANK4           100      0       0      13        0.0%
BANK4              100      0       0      14        0.0%
BITBANK3           100      0       0      10        0.0%
BANK3              100      0       0      11        0.0%
BITBANK2           100      0       0       8        0.0%
BANK2              100      0       0       9        0.0%
BITBANK1           100      0       0       6        0.0%
BANK1              100      0       0       7        0.0%
BITBANK0            A0      0       0       4        0.0%
BANK0               A0      C       C       5        7.5%
BITCOMRAM           5E      0       0       0        0.0%
COMRAM              5E     1B      4C       1       80.9%
BITBANK15           38      0       0      35        0.0%
BANK15              38      0       0      36        0.0%
BITSFR_1             0      0       0     200        0.0%
SFR_1                0      0       0     200        0.0%
BITSFR               0      0       0     200        0.0%
SFR                  0      0       0     200        0.0%
STACK                0      0       0       2        0.0%
NULL                 0      0       0       0        0.0%
ABS                  0      0      58      12        0.0%
DATA                 0      0      58       3        0.0%
CODE                 0      0       0       0        0.0%


Microchip Technology PIC18 Macro Assembler V2.31 build 20201012212115 
Symbol Table                                                                                   Fri May  7 00:32:51 2021

                  __end_of_interruptIlkle 1992               __end_of_karaSimsekHiziOkuma 1694  
                      tikSayiminiAl@sayim 0042                                       l203 1034  
                                     l231 178C                                       l245 1598  
                                     l270 16DE                                       l174 145E  
                                     l185 146E                                       l814 18D6  
                                     tosl 000FFD                                       wreg 000FE8  
               __size_of_gostergeGuncelle 01E0                          _sisOsilatorIlkle 1970  
                                    l2304 18A4                                      l2306 18AC  
                                    l2410 1078                                      l2402 103C  
                                    l2316 18CC                                      l2500 17B0  
                                    l2422 10CC                                      l2334 1904  
                                    l2600 16E4                                      l2360 1490  
                                    l2336 190C                                      l2506 17D2  
                                    l2370 14E4                                      l2362 1492  
                                    l2354 1480                                      l2434 1120  
                                    l2620 1726                                      l2612 170A  
                                    l2604 16EE                                      l2532 15A8  
                                    l2356 1484                                      l2630 1738  
                                    l2702 13B8                                      l2518 17EC  
                                    l2382 154E                                      l2470 121C  
                                    l2446 1174                                      l2616 171C  
                                    l2608 1700                                      l2560 162A  
                                    l2536 15B8                                      l2642 127E  
                                    l2490 176E                                      l2554 1602  
                                    l2394 1568                                      l2458 11C8  
                                    l2482 1236                                      l2716 13FC  
                                    l2644 1298                                      l2556 161E  
                                    l2566 164C                                      l2656 12D6  
                                    l2728 1416                                      l2496 17A2  
                                    l2586 1696                                      l2682 1356  
                                    l2578 1666                                      l2588 16A4  
                                    l2940 143E                                      l2942 1756  
                                    l2678 133E                                      l2758 185C  
                                    l2944 1760                                      l2938 1434  
                                    l2698 13A0                                      u1220 18B0  
                                    u1310 1506                                      u1400 10EE  
                                    u1340 1046                                      u1430 1142  
                                    _LATB 000F8A                                      _LATC 000F8B  
                                    u1328 1508                                      u1280 149C  
                                    _LATD 000F8C                                      u1418 10F0  
                                    u1370 109A                                      u1508 11EC  
                                    u1460 1196                                      u1710 1362  
                                    u1358 1048                                      u1448 1144  
                                    u1570 15E4                                      u1298 149E  
                                    u1490 11EA                                      u1388 109C  
                                    u1478 1198                                      u1680 1300  
                                    _RCIF 007CF5                                      i2l42 006E  
                                    i2l46 0076                                      i2l39 0060  
                                    _TMR0 000FD6                                      _TXIE 007CEC  
                                    _TXIF 007CF4                                      _main 1814  
                                    fsr0h 000FEA                                      fsr1h 000FE2  
                                    fsr2h 000FDA                                      fsr0l 000FE9  
                                    fsr1l 000FE1                                      fsr2l 000FD9  
                                    btemp 004D                                      prodh 000FF4  
                                    prodl 000FF3                                      start 00B2  
                            ___param_bank 000000                       _uartTxKesmeIsleyici 0025  
                            karaSimsek@s3 0009                           ?_interruptIlkle 0032  
                                   ?_main 0032                                     _T0CON 000FD5  
                         __end_of___lwdiv 18E0                                     _PORTD 000F83  
                                   _TRISB 000F93                                     _TRISC 000F94  
                                   _TRISD 000F95                    ?_sisTimerKesmeIsleyici 0032  
                                   pclath 000FFA                       _sisTimerDisIsleyici 0021  
                                   tablat 000FF5           __size_of_timer0KesmeIsleyiciKur 000A  
                                   ttemp5 004E                                     ttemp6 0051  
                                   ttemp7 0055                                     status 000FD8  
                                   wtemp8 004E                        ledCakarlama1@artir 002A  
                         __initialization 195A                              __end_of_main 188E  
                                  ??_main 004D                             __activetblptr 000003  
                                  _ADCON1 000FC1                                    _ADCON2 000FC0  
                                  _ADRESH 000FC4                                    _ADRESL 000FC3  
                                  _ANSELB 000F39                                    _ANSELC 000F3A  
                                  _ANSELD 000F3B              __size_of_sisTikKesmeIsleyici 0006  
                                  _INTCON 000FF2                                    _OSCCON 000FD3  
                                  _TMR0IF 007F92                                    i2u5_48 192C  
             ?_sisTimerIsleyiciVarsayilan 0032                     __end_of_tikSayiminiAl 195A  
                               ??___lwdiv 0044                                    clear_0 1960  
                  _timer0KesmeIsleyiciKur 197E                                    main@gg 0068  
                            __mediumconst 0000                                    tblptrh 000FF7  
                                  tblptrl 000FF6                                    tblptru 000FF8  
                        _gostergeGuncelle 127C                     __end_of_ledCakarlama1 1596  
                   __end_of_ledCakarlama2 127C                                __accesstop 0060  
                 __end_of__initialization 1966                             ___rparam_used 000001  
                     ledCakarlama1@secici 002B                       ledCakarlama1@tutucu 0044  
                          __pcstackCOMRAM 0032                       ledCakarlama2@tutucu 0044  
                __end_of_sisOsilatorIlkle 197E            karaSimsekHiziOkuma@oncekiSonuc 0019  
                   __end_of_sisTimerIlkle 1920                _intconYedek@portmacro$F371 002F  
              _intconYedek@portmacro$F750 002E                          karaSimsek@tutucu 0044  
                          karaSimsek@sola 0029                  _gostergeDegeriHesaplandi 002C  
                        ??_interruptIlkle 0040              __end_ofledCakarlama1@sonSira 1013  
                 ??_sisTimerKesmeIsleyici 0032                  ??_gostergeDegeriGuncelle 0048  
            __end_ofledCakarlama1@sureler 1031                                   _OSCCON2 000FD2  
                                 _OSCTUNE 000F9B                                _karaSimsek 176C  
                                 i2u59_48 004E              __size_of_karaSimsekHiziOkuma 00FE  
                                 __Hparam 0000                                   __Lparam 0000  
                                 ___lwdiv 188E                              __psmallconst 1000  
                     _sisTikKesmeIsleyici 1988                                   __pcinit 195A  
                                 __ramtop 1000                                   __ptext0 1814  
                                 __ptext1 18E0                                   __ptext2 197E  
                                 __ptext3 1970                                   __ptext4 1032  
                                 __ptext5 145C                                   __ptext6 1596  
                                 __ptext7 176C                                   __ptext8 198E  
                                 __ptext9 127C                                 _T0CONbits 000FD5  
          timer0KesmeIsleyiciKur@isleyici 0040                                   main@lc1 0064  
                                 main@lc2 006A                                   main@gdg 0062  
                                 main@kho 0066                      end_of_initialization 1966  
                    ?_sisTikKesmeIsleyici 0032                 karaSimsekHiziOkuma@tutucu 0047  
__end_ofgostergeGuncelle@BCDdenOrtakAnoda 1012          gostergeGuncelle@BCDdenOrtakAnoda 1001  
                                 postdec2 000FDD                   ?_timer0KesmeIsleyiciKur 0040  
                __end_of_gostergeGuncelle 145C                                   postinc0 000FEE  
                                 postinc2 000FDE                                 _PORTEbits 000F84  
         __size_of_gostergeDegeriGuncelle 00D8                                 _TRISAbits 000F92  
                               _TRISEbits 000F96                               ?_karaSimsek 0044  
                   ??_sisTikKesmeIsleyici 0032                      ledCakarlama1@sonSira 1012  
                     _uartRxKesmeIsleyici 0023            __end_of_timer0KesmeIsleyiciKur 1988  
                    ledCakarlama1@sureler 1013                         ?_sisOsilatorIlkle 0032  
                      gostergeGuncelle@s5 0001                      _karasimsekHiziOkundu 002D  
                      ??_sisOsilatorIlkle 0040                       start_initialization 195A  
                  __size_of_tikSayiminiAl 001C                    _gostergeDegeriGuncelle 1694  
                     __size_of_karaSimsek 00A8                       _karaSimsekHiziOkuma 1596  
                  __size_of_ledCakarlama1 013A                    __size_of_ledCakarlama2 024A  
                             __pbssCOMRAM 0001            __size_of_sisTimerKesmeIsleyici 001E  
                           __pcstackBANK0 0060             __end_of_sisTimerKesmeIsleyici 193E  
                    ?_karaSimsekHiziOkuma 0047                    __size_of_sisTimerIlkle 0040  
                        ___lwdiv@dividend 0040                                 __pintcode 0008  
                                ?___lwdiv 0040                             _tikSayiminiAl 193E  
                       _interruptYonetici 0008                               __smallconst 1000  
                      ?_interruptYonetici 0032                     ??_karaSimsekHiziOkuma 0048  
                        ___lwdiv@quotient 0045                             _ledCakarlama1 145C  
                           _ledCakarlama2 1032                       ??_interruptYonetici 0032  
                             _gercekDeger 001D                                  _LATBbits 000F8A  
                                _LATEbits 000F8D                                  _PIE1bits 000F9D  
                               _tikSayimi 001F                                  _PIR1bits 000F9E  
            ??_sisTimerIsleyiciVarsayilan 0032                                  _RCONbits 000FD0  
                          ?_tikSayiminiAl 0040                         ?_gostergeGuncelle 0044  
               __end_of_interruptYonetici 00B2                        ??_gostergeGuncelle 0045  
                  gostergeGuncelle@tutucu 0044                                _ADCON0bits 000FC2  
                           _sisTimerIlkle 18E0                   __size_of_interruptIlkle 0004  
                               main@ksmsk 0060                           ledCakarlama1@s1 0011  
                         ledCakarlama2@s2 000D              gostergeDegeriGuncelle@tutucu 0047  
                            ??_karaSimsek 0045                            ?_ledCakarlama1 0044  
                          ?_ledCakarlama2 0044       __size_of_sisTimerIsleyiciVarsayilan 0002  
                                __Hrparam 0000                                  __Lrparam 0000  
                      __end_of_karaSimsek 1814                          __size_of___lwdiv 0052  
                          ?_sisTimerIlkle 0042                                _ANSELEbits 000F3C  
             __end_of_sisTikKesmeIsleyici 198E                           ___lwdiv@divisor 0042  
                         ___lwdiv@counter 0044                                  __ptext10 193E  
                                __ptext11 1694                                  __ptext12 188E  
                                __ptext14 1920                                  __ptext15 1988  
                                __ptext16 1992                                  __ptext17 0000  
               __size_of_sisOsilatorIlkle 000E                   ?_gostergeDegeriGuncelle 0047  
                             _intconYedek 0030                             __size_of_main 007A  
                                _gosterge 0015        gostergeDegeriGuncelle@olcekliDeger 004B  
                         ??_tikSayiminiAl 0042                               _tmr0OnDeger 0031  
                                int$flags 004D                __size_of_interruptYonetici 00AA  
                          _karaSimsekHizi 001B                                _INTCONbits 000FF2  
                         ??_ledCakarlama1 0045                           ??_ledCakarlama2 0045  
                     _timer0KesmeIsleyici 0027            __end_of_gostergeDegeriGuncelle 176C  
                                intlevel2 0000                  karaSimsekHiziOkuma@sonuc 004B  
      __end_of_sisTimerIsleyiciVarsayilan 1994                _sisTimerIsleyiciVarsayilan 1992  
                         ??_sisTimerIlkle 0044                     sisTimerIlkle@isleyici 0042  
                          _interruptIlkle 198E                     _sisTimerKesmeIsleyici 1920  
                ??_timer0KesmeIsleyiciKur 0042                     karaSimsekHiziOkuma@s4 0005  
